 ConEmu.x64

 Timestamp is 5d2b871f (Sun Jul 14 22:48:47 2019)

 Preferred load address is 0000000180000000

 Start         Length     Name                   Class
 0001:00000000 00000010H .text$di                CODE
 0001:00000010 0002efa0H .text$mn                CODE
 0001:0002efb0 00000020H .text$mn$00             CODE
 0001:0002efd0 000005e0H .text$x                 CODE
 0001:0002f5b0 0000003dH .text$yd                CODE
 0002:00000000 00000670H .idata$5                DATA
 0002:00000670 00000010H .00cfg                  DATA
 0002:00000680 00000008H .CRT$XCA                DATA
 0002:00000688 00000008H .CRT$XCU                DATA
 0002:00000690 00000008H .CRT$XCZ                DATA
 0002:00000698 00000008H .CRT$XIA                DATA
 0002:000006a0 00000020H .CRT$XIC                DATA
 0002:000006c0 00000008H .CRT$XIZ                DATA
 0002:000006c8 00000008H .CRT$XLA                DATA
 0002:000006d0 00000008H .CRT$XLZ                DATA
 0002:000006d8 00000008H .CRT$XPA                DATA
 0002:000006e0 00000010H .CRT$XPX                DATA
 0002:000006f0 00000008H .CRT$XPXA               DATA
 0002:000006f8 00000008H .CRT$XPZ                DATA
 0002:00000700 00000008H .CRT$XTA                DATA
 0002:00000708 00000008H .CRT$XTZ                DATA
 0002:00000710 00000000H .gfids$x                DATA
 0002:00000710 00000000H .gfids$y                DATA
 0002:00000710 0000c910H .rdata                  DATA
 0002:0000d020 00000028H .rdata$T                DATA
 0002:0000d048 0000075cH .rdata$r                DATA
 0002:0000d7a4 000003ccH .rdata$zzzdbg           DATA
 0002:0000db70 00000008H .rtc$IAA                DATA
 0002:0000db78 00000008H .rtc$IZZ                DATA
 0002:0000db80 00000008H .rtc$TAA                DATA
 0002:0000db88 00000008H .rtc$TZZ                DATA
 0002:0000db90 00000004H .tls                    DATA
 0002:0000db94 00000004H .tls$                   DATA
 0002:0000db98 00000008H .tls$ZZZ                DATA
 0002:0000dba0 00002650H .xdata                  DATA
 0002:000101f0 00000200H .xdata$x                DATA
 0002:000103f0 000002e4H .edata                  DATA
 0002:000106d4 00000064H .idata$2                DATA
 0002:00010738 00000018H .idata$3                DATA
 0002:00010750 00000670H .idata$4                DATA
 0002:00010dc0 00000ea8H .idata$6                DATA
 0003:00000000 00000ba0H .data                   DATA
 0003:00000ba0 000002a0H .data$r                 DATA
 0003:00000e40 0000bbc0H .bss                    DATA
 0004:00000000 000027f0H .pdata                  DATA
 0005:00000000 000000a0H .rsrc$01                DATA
 0005:000000a0 00000490H .rsrc$02                DATA

  Address         Publics by Value              Rva+Base               Lib:Object

 0000:00000000       __guard_longjmp_count      0000000000000000     <absolute>
 0000:00000000       __guard_longjmp_table      0000000000000000     <absolute>
 0000:00000000       __hybrid_code_map_count    0000000000000000     <absolute>
 0000:00000000       __guard_iat_table          0000000000000000     <absolute>
 0000:00000000       __hybrid_code_map          0000000000000000     <absolute>
 0000:00000000       __guard_iat_count          0000000000000000     <absolute>
 0000:00000000       __volatile_metadata        0000000000000000     <absolute>
 0000:00000000       __guard_fids_count         0000000000000000     <absolute>
 0000:00000000       __enclave_config           0000000000000000     <absolute>
 0000:00000000       ___safe_se_handler_count   0000000000000000     <absolute>
 0000:00000000       ___safe_se_handler_table   0000000000000000     <absolute>
 0000:00000000       __guard_fids_table         0000000000000000     <absolute>
 0000:00000000       __hybrid_auxiliary_iat     0000000000000000     <absolute>
 0000:00000000       __dynamic_value_reloc_table 0000000000000000     <absolute>
 0000:00000100       __guard_flags              0000000000000100     <absolute>
 0000:00000000       __ImageBase                0000000180000000     <linker-defined>
 0001:00000010       ??$swprintf_c@$0EA@@@YAHAEAY0EA@_WPEB_WZZ 0000000180001010 f i ConEmuInjects.obj
 0001:0000003c       ??$swprintf_c@$0IA@@@YAHAEAY0IA@_WPEB_WZZ 000000018000103c f i ConEmuInjects.obj
 0001:00000068       ??$swprintf_c@$0PP@@@YAHAEAY0PP@_WPEB_WZZ 0000000180001068 f i ConEmuInjects.obj
 0001:00000094       ?ShutdownHooks@@YAXXZ      0000000180001094 f   ConEmuInjects.obj
 0001:00000284       ?StartupConsoleHooks@@YAXXZ 0000000180001284 f   ConEmuInjects.obj
 0001:00000310       ?StartupHooks@@YA_NPEAUHINSTANCE__@@@Z 0000000180001310 f   ConEmuInjects.obj
 0001:00000710       ?StringCchCopyW@@YAJPEA_W_KPEB_W@Z 0000000180001710 f i ConEmuInjects.obj
 0001:00000788       ?StringCchVPrintfW@@YAJPEA_W_KPEB_WPEAD@Z 0000000180001788 f i ConEmuInjects.obj
 0001:0000082c       __local_stdio_printf_options 000000018000182c f i ConEmuInjects.obj
 0001:00000834       ?ProcessSynchroEventW3@@YA_JPEAX@Z 0000000180001834 f   ConEmuPlugin.obj
 0001:0000085c       ?ProcessEditorEventW3@@YA_JPEAX@Z 000000018000185c f   ConEmuPlugin.obj
 0001:00000884       ?ProcessViewerEventW3@@YA_JPEAX@Z 0000000180001884 f   ConEmuPlugin.obj
 0001:000008ac       ?ExitFARW3@@YAXPEAX@Z      00000001800018ac f   ConEmuPlugin.obj
 0001:00000904       ExitFARW                   0000000180001904 f   ConEmuPlugin.obj
 0001:0000095c       ProcessEditorEventW        000000018000195c f   ConEmuPlugin.obj
 0001:0000095c       ?ProcessEditorEvent@@YAHHPEAX@Z 000000018000195c f   ConEmuPlugin.obj
 0001:0000097c       ProcessSynchroEventW       000000018000197c f   ConEmuPlugin.obj
 0001:000009a8       ProcessViewerEventW        00000001800019a8 f   ConEmuPlugin.obj
 0001:000009a8       ?ProcessViewerEvent@@YAHHPEAX@Z 00000001800019a8 f   ConEmuPlugin.obj
 0001:000009c8       ?ActivateConsole@@YAHXZ    00000001800019c8 f   ConEmuPlugin.obj
 0001:00000a58       ?ExitFAR@@YAXXZ            0000000180001a58 f   ConEmuPlugin.obj
 0001:00000ab0       ?GetFarHWND2@@YAPEAUHWND__@@H@Z 0000000180001ab0 f   ConEmuPlugin.obj
 0001:00000b1c       ?GetFarHWND@@YAPEAUHWND__@@XZ 0000000180001b1c f   ConEmuPlugin.obj
 0001:00000b24       ?GetFarVersion@@YAXPEAUFarVersion@@@Z 0000000180001b24 f   ConEmuPlugin.obj
 0001:00000b40       ?GetMinFarVersion@@YAHXZ   0000000180001b40 f   ConEmuPlugin.obj
 0001:00000b70       ?GetPluginInfo@@YAXPEAX@Z  0000000180001b70 f   ConEmuPlugin.obj
 0001:00000bc4       ?GetPluginInfoW@@YAXPEAX@Z 0000000180001bc4 f   ConEmuPlugin.obj
 0001:00000be4       ?IsConsoleActive@@YAHXZ    0000000180001be4 f   ConEmuPlugin.obj
 0001:00000c3c       ?IsTerminalMode@@YAHXZ     0000000180001c3c f   ConEmuPlugin.obj
 0001:00000c44       ?OpenPlugin@@YAPEAXH_J@Z   0000000180001c44 f   ConEmuPlugin.obj
 0001:00000c74       ?OpenW@@YAPEAXPEBX@Z       0000000180001c74 f   ConEmuPlugin.obj
 0001:00000c98       ?ProcessEditorInput@@YAHPEBU_INPUT_RECORD@@@Z 0000000180001c98 f   ConEmuPlugin.obj
 0001:00000cbc       ?RegisterBackground@@YAHPEAURegisterBackgroundArg@@@Z 0000000180001cbc f   ConEmuPlugin.obj
 0001:00000d40       ?RegisterPanelView@@YAHPEAUPanelViewInit@@@Z 0000000180001d40 f   ConEmuPlugin.obj
 0001:00000ea8       ?SetStartupInfo@@YAXPEAX@Z 0000000180001ea8 f   ConEmuPlugin.obj
 0001:00000f0c       ?SetupExportsFar3@@YAXXZ   0000000180001f0c f   ConEmuPlugin.obj
 0001:0000107c       ?SyncExecute@@YAHPEAUHINSTANCE__@@P6AX_J@Z1@Z 000000018000207c f   ConEmuPlugin.obj
 0001:000010c8       DllMain                    00000001800020c8 f   ConEmuPlugin.obj
 0001:000010ec       GetMinFarVersionW          00000001800020ec f   ConEmuPlugin.obj
 0001:000010f4       OpenPluginW                00000001800020f4 f   ConEmuPlugin.obj
 0001:00001134       ProcessEditorInputW        0000000180002134 f   ConEmuPlugin.obj
 0001:00001158       SetStartupInfoW            0000000180002158 f   ConEmuPlugin.obj
 0001:00001188       ??0CPluginW1900@@QEAA@XZ   0000000180002188 f   ConEmuPlugin1900.obj
 0001:0000132c       ??_ECPluginW1900@@UEAAPEAXI@Z 000000018000232c f i ConEmuPlugin1900.obj
 0001:0000132c       ??_GCPluginW1900@@UEAAPEAXI@Z 000000018000232c f i ConEmuPlugin1900.obj
 0001:00001834       ?CheckPanelExist@CPluginW1900@@UEAA_NXZ 0000000180002834 f   ConEmuPlugin1900.obj
 0001:00001870       ?Color2BgIndex@Far3Color@@SAXKHAEAGPEBK@Z 0000000180002870 f i ConEmuPlugin1900.obj
 0001:00001980       ?Color2FgIndex@Far3Color@@SAXKAEAGPEBK@Z 0000000180002980 f i ConEmuPlugin1900.obj
 0001:00001a6c       ?ExecuteSynchroApi@CPluginW1900@@UEAA_NXZ 0000000180002a6c f   ConEmuPlugin1900.obj
 0001:00001aa0       ?ExitFar@CPluginW1900@@UEAAXXZ 0000000180002aa0 f   ConEmuPlugin1900.obj
 0001:00001b44       ?FarColor_3_2@@YAEAEBUFarColor@@_N@Z 0000000180002b44 f i ConEmuPlugin1900.obj
 0001:00001c04       ?GetActiveWindowType@CPluginW1900@@UEAAHXZ 0000000180002c04 f   ConEmuPlugin1900.obj
 0001:00001cb8       ?GetEditorModifiedState@CPluginW1900@@UEAAKXZ 0000000180002cb8 f   ConEmuPlugin1900.obj
 0001:00001d14       ?GetFarRect@CPluginW1900@@UEAA_NAEAU_SMALL_RECT@@@Z 0000000180002d14 f   ConEmuPlugin1900.obj
 0001:00001dc0       ?GetMacroArea@CPluginW1900@@UEAAHXZ 0000000180002dc0 f   ConEmuPlugin1900.obj
 0001:00001de0       ?GetMsg@CPluginW1900@@UEAAPEB_WHPEA_W_K@Z 0000000180002de0 f   ConEmuPlugin1900.obj
 0001:00001e50       ?GetPanelDir@CPluginW1900@@UEAAPEA_WKPEA_WH@Z 0000000180002e50 f   ConEmuPlugin1900.obj
 0001:00001fcc       ?GetPanelInfo@CPluginW1900@@UEAA_NKPEAUCEPanelInfo@@@Z 0000000180002fcc f   ConEmuPlugin1900.obj
 0001:00002268       ?GetPanelItemInfo@CPluginW1900@@UEAA_NAEBUCEPanelInfo@@_N_JAEAU_WIN32_FIND_DATAW@@PEAPEA_W@Z 0000000180003268 f   ConEmuPlugin1900.obj
 0001:00002448       ?GetPluginInfoPtr@CPluginW1900@@UEAAXPEAX@Z 0000000180003448 f   ConEmuPlugin1900.obj
 0001:000024a4       ?GetWindowCount@CPluginW1900@@UEAAHXZ 00000001800034a4 f   ConEmuPlugin1900.obj
 0001:000024d4       ?GetWindowTypeName@CPluginW2800@@UEAAPEB_WH@Z 00000001800034d4 f   ConEmuPlugin2800.obj
 0001:000024d4       ?GetWindowTypeName@CPluginW995@@UEAAPEB_WH@Z 00000001800034d4 f   ConEmuPlugin995.obj
 0001:000024d4       ?GetWindowTypeName@CPluginAnsi@@UEAAPEB_WH@Z 00000001800034d4 f   ConEmuPluginA.obj
 0001:000024d4       ?GetWindowTypeName@CPluginW1900@@UEAAPEB_WH@Z 00000001800034d4 f   ConEmuPlugin1900.obj
 0001:0000252c       ?GuiMacroDlg@CPluginW1900@@UEAAXXZ 000000018000352c f   ConEmuPlugin1900.obj
 0001:00002534       ?InputBox@CPluginW1900@@UEAA_NPEB_W000AEAPEA_W@Z 0000000180003534 f   ConEmuPlugin1900.obj
 0001:000025e4       ?IsMacroActive@CPluginW1900@@UEAA_NXZ 00000001800035e4 f   ConEmuPlugin1900.obj
 0001:00002628       ?LoadFarColors@CPluginW1900@@UEAAXAEAY0BAA@E@Z 0000000180003628 f   ConEmuPlugin1900.obj
 0001:000027d8       ?LoadFarSettings@CPluginW1900@@UEAAXPEAUCEFarInterfaceSettings@@PEAUCEFarPanelSettings@@@Z 00000001800037d8 f   ConEmuPlugin1900.obj
 0001:00002924       ?Open@CPluginW1900@@UEAAPEAXPEBX@Z 0000000180003924 f   ConEmuPlugin1900.obj
 0001:00002a00       ?OpenEditor@CPluginW1900@@UEAA_NPEB_W_N11HH@Z 0000000180003a00 f   ConEmuPlugin1900.obj
 0001:00002b14       ?PanelControlApi@CPluginW1900@@UEAA_JPEAXH_J0@Z 0000000180003b14 f   ConEmuPlugin1900.obj
 0001:00002b4c       ?PostMacroApi@CPluginW1900@@UEAAXPEB_WPEAU_INPUT_RECORD@@_N@Z 0000000180003b4c f   ConEmuPlugin1900.obj
 0001:00003160       ?ProcessEditorEventPtr@CPluginW2800@@UEAAHPEAX@Z 0000000180004160 f   ConEmuPlugin2800.obj
 0001:00003160       ?ProcessEditorEventPtr@CPluginW1900@@UEAAHPEAX@Z 0000000180004160 f   ConEmuPlugin1900.obj
 0001:0000316c       ?ProcessEditorInputPtr@CPluginW1900@@UEAAHPEBX@Z 000000018000416c f   ConEmuPlugin1900.obj
 0001:0000318c       ?ProcessSynchroEventPtr@CPluginW1900@@UEAAHPEAX@Z 000000018000418c f   ConEmuPlugin1900.obj
 0001:0000318c       ?ProcessSynchroEventPtr@CPluginW2800@@UEAAHPEAX@Z 000000018000418c f   ConEmuPlugin2800.obj
 0001:000031b0       ?ProcessViewerEventPtr@CPluginW2800@@UEAAHPEAX@Z 00000001800041b0 f   ConEmuPlugin2800.obj
 0001:000031b0       ?ProcessViewerEventPtr@CPluginW1900@@UEAAHPEAX@Z 00000001800041b0 f   ConEmuPlugin1900.obj
 0001:000031bc       ?RedrawAll@CPluginW1900@@UEAAXXZ 00000001800041bc f   ConEmuPlugin1900.obj
 0001:000031f4       ?SetStartupInfoPtr@CPluginW1900@@UEAAXPEAX@Z 00000001800041f4 f   ConEmuPlugin1900.obj
 0001:0000335c       ?SetWindow@CPluginW1900@@UEAAXH@Z 000000018000435c f   ConEmuPlugin1900.obj
 0001:000033b4       ?ShowMessage@CPluginW1900@@UEAAHPEB_WH_N@Z 00000001800043b4 f   ConEmuPlugin1900.obj
 0001:0000341c       ?ShowPluginMenu@CPluginW1900@@UEAAHPEAUConEmuPluginMenuItem@@HH@Z 000000018000441c f   ConEmuPlugin1900.obj
 0001:00003584       ?ShowUserScreen@CPluginW1900@@UEAAX_N@Z 0000000180004584 f   ConEmuPlugin1900.obj
 0001:000035b0       ?_Doraise@exception@stdext@@MEBAXXZ 00000001800045b0 f   common-kernel64:CEStr.obj
 0001:000035b0       _guard_check_icall_nop     00000001800045b0 f   LIBCMT:guard_support.obj
 0001:000035b0       ?ShutdownPluginStep@CPluginBase@@SAXPEB_WHHHH@Z 00000001800045b0 f   ConEmuPluginBase.obj
 0001:000035b0       ?PlugServerInit@@YAXXZ     00000001800045b0 f   PluginSrv.obj
 0001:000035b0       ?WaitEndSynchro@CPluginAnsi@@UEAAXXZ 00000001800045b0 f   ConEmuPluginA.obj
 0001:000035b0       ?StopWaitEndSynchro@CPluginW2800@@UEAAXXZ 00000001800045b0 f   ConEmuPlugin2800.obj
 0001:000035b0       ?WaitEndSynchro@CPluginW1900@@UEAAXXZ 00000001800045b0 f   ConEmuPlugin1900.obj
 0001:000035b0       ?WaitEndSynchro@CPluginW2800@@UEAAXXZ 00000001800045b0 f   ConEmuPlugin2800.obj
 0001:000035b0       ?StopWaitEndSynchro@CPluginAnsi@@UEAAXXZ 00000001800045b0 f   ConEmuPluginA.obj
 0001:000035b0       ?StopWaitEndSynchro@CPluginW1900@@UEAAXXZ 00000001800045b0 f   ConEmuPlugin1900.obj
 0001:000035b4       ?UpdateConEmuTabsApi@CPluginW1900@@UEAA_NH@Z 00000001800045b4 f   ConEmuPlugin1900.obj
 0001:00003a78       ??$_Emplace_reallocate@AEBUWindowInfo@@@?$vector@UWindowInfo@@V?$MArrayAllocator@UWindowInfo@@@@@std@@QEAAPEAUWindowInfo@@QEAU2@AEBU2@@Z 0000000180004a78 f i ConEmuPlugin2800.obj
 0001:00003c44       ??0CPluginW2800@@QEAA@XZ   0000000180004c44 f   ConEmuPlugin2800.obj
 0001:00003de8       ??0bad_alloc@std@@QEAA@AEBV01@@Z 0000000180004de8 f i ConEmuPlugin2800.obj
 0001:00003e28       ??0bad_alloc@std@@QEAA@XZ  0000000180004e28 f i ConEmuPlugin2800.obj
 0001:00003e48       ??0exception@std@@QEAA@AEBV01@@Z 0000000180004e48 f i ConEmuPlugin2800.obj
 0001:00003e80       ??1?$MArray@UWindowInfo@@@@QEAA@XZ 0000000180004e80 f i ConEmuPlugin2800.obj
 0001:00003ec4       ??1bad_alloc@std@@UEAA@XZ  0000000180004ec4 f i ConEmuPlugin2800.obj
 0001:00003ec4       ??1length_error@std@@UEAA@XZ 0000000180004ec4 f i libcpmt:xthrow.obj
 0001:00003ec4       ??1bad_exception@std@@UEAA@XZ 0000000180004ec4 f i libvcruntime:frame.obj
 0001:00003ed8       ??_ECPluginW2800@@UEAAPEAXI@Z 0000000180004ed8 f i ConEmuPlugin2800.obj
 0001:00003ed8       ??_GCPluginW2800@@UEAAPEAXI@Z 0000000180004ed8 f i ConEmuPlugin2800.obj
 0001:00003f18       ??_Ebad_exception@std@@UEAAPEAXI@Z 0000000180004f18 f i libvcruntime:frame.obj
 0001:00003f18       ??_Glength_error@std@@UEAAPEAXI@Z 0000000180004f18 f i libcpmt:xthrow.obj
 0001:00003f18       ??_Gexception@std@@UEAAPEAXI@Z 0000000180004f18 f i ConEmuPlugin2800.obj
 0001:00003f18       ??_Eexception@std@@UEAAPEAXI@Z 0000000180004f18 f i ConEmuPlugin2800.obj
 0001:00003f18       ??_Ebad_alloc@std@@UEAAPEAXI@Z 0000000180004f18 f i ConEmuPlugin2800.obj
 0001:00003f18       ??_Gbad_exception@std@@UEAAPEAXI@Z 0000000180004f18 f i libvcruntime:frame.obj
 0001:00003f18       ??_Elogic_error@std@@UEAAPEAXI@Z 0000000180004f18 f i libcpmt:xthrow.obj
 0001:00003f18       ??_Elength_error@std@@UEAAPEAXI@Z 0000000180004f18 f i libcpmt:xthrow.obj
 0001:00003f18       ??_Gbad_alloc@std@@UEAAPEAXI@Z 0000000180004f18 f i ConEmuPlugin2800.obj
 0001:00003f18       ??_Glogic_error@std@@UEAAPEAXI@Z 0000000180004f18 f i libcpmt:xthrow.obj
 0001:000044a0       ?CheckPanelExist@CPluginW2800@@UEAA_NXZ 00000001800054a0 f   ConEmuPlugin2800.obj
 0001:000044dc       ?ExecuteSynchroApi@CPluginW2800@@UEAA_NXZ 00000001800054dc f   ConEmuPlugin2800.obj
 0001:00004510       ?ExitFar@CPluginW2800@@UEAAXXZ 0000000180005510 f   ConEmuPlugin2800.obj
 0001:000045cc       ?GetActiveWindowType@CPluginW2800@@UEAAHXZ 00000001800055cc f   ConEmuPlugin2800.obj
 0001:00004684       ?GetEditorModifiedState@CPluginW2800@@UEAAKXZ 0000000180005684 f   ConEmuPlugin2800.obj
 0001:000046e4       ?GetFarRect@CPluginW2800@@UEAA_NAEAU_SMALL_RECT@@@Z 00000001800056e4 f   ConEmuPlugin2800.obj
 0001:00004798       ?GetMacroArea@CPluginW2800@@UEAAHXZ 0000000180005798 f   ConEmuPlugin2800.obj
 0001:000047b8       ?GetMsg@CPluginW2800@@UEAAPEB_WHPEA_W_K@Z 00000001800057b8 f   ConEmuPlugin2800.obj
 0001:00004828       ?GetPanelDir@CPluginW2800@@UEAAPEA_WKPEA_WH@Z 0000000180005828 f   ConEmuPlugin2800.obj
 0001:000049a4       ?GetPanelInfo@CPluginW2800@@UEAA_NKPEAUCEPanelInfo@@@Z 00000001800059a4 f   ConEmuPlugin2800.obj
 0001:00004c44       ?GetPanelItemInfo@CPluginW2800@@UEAA_NAEBUCEPanelInfo@@_N_JAEAU_WIN32_FIND_DATAW@@PEAPEA_W@Z 0000000180005c44 f   ConEmuPlugin2800.obj
 0001:00004e3c       ?GetPluginInfoPtr@CPluginW2800@@UEAAXPEAX@Z 0000000180005e3c f   ConEmuPlugin2800.obj
 0001:00004e98       ?GetWindowCount@CPluginW2800@@UEAAHXZ 0000000180005e98 f   ConEmuPlugin2800.obj
 0001:00004ec8       ?GuiMacroDlg@CPluginW2800@@UEAAXXZ 0000000180005ec8 f   ConEmuPlugin2800.obj
 0001:00004ed0       ?InputBox@CPluginW2800@@UEAA_NPEB_W000AEAPEA_W@Z 0000000180005ed0 f   ConEmuPlugin2800.obj
 0001:00004f80       ?IsMacroActive@CPluginW2800@@UEAA_NXZ 0000000180005f80 f   ConEmuPlugin2800.obj
 0001:00004fc4       ?LoadFarColors@CPluginW2800@@UEAAXAEAY0BAA@E@Z 0000000180005fc4 f   ConEmuPlugin2800.obj
 0001:00005174       ?LoadFarSettings@CPluginW2800@@UEAAXPEAUCEFarInterfaceSettings@@PEAUCEFarPanelSettings@@@Z 0000000180006174 f   ConEmuPlugin2800.obj
 0001:000052c0       ?Open@CPluginW2800@@UEAAPEAXPEBX@Z 00000001800062c0 f   ConEmuPlugin2800.obj
 0001:00005410       ?OpenEditor@CPluginW2800@@UEAA_NPEB_W_N11HH@Z 0000000180006410 f   ConEmuPlugin2800.obj
 0001:00005534       ?PanelControlApi@CPluginW2800@@UEAA_JPEAXH_J0@Z 0000000180006534 f   ConEmuPlugin2800.obj
 0001:0000556c       ?PostMacroApi@CPluginW2800@@UEAAXPEB_WPEAU_INPUT_RECORD@@_N@Z 000000018000656c f   ConEmuPlugin2800.obj
 0001:00005920       ?ProcessEditorInputPtr@CPluginW2800@@UEAAHPEBX@Z 0000000180006920 f   ConEmuPlugin2800.obj
 0001:00005940       ?RedrawAll@CPluginW2800@@UEAAXXZ 0000000180006940 f   ConEmuPlugin2800.obj
 0001:00005978       ?SetStartupInfoPtr@CPluginW2800@@UEAAXPEAX@Z 0000000180006978 f   ConEmuPlugin2800.obj
 0001:00005ae4       ?SetWindow@CPluginW2800@@UEAAXH@Z 0000000180006ae4 f   ConEmuPlugin2800.obj
 0001:00005c34       ?ShowMessage@CPluginW2800@@UEAAHPEB_WH_N@Z 0000000180006c34 f   ConEmuPlugin2800.obj
 0001:00005c9c       ?ShowPluginMenu@CPluginW2800@@UEAAHPEAUConEmuPluginMenuItem@@HH@Z 0000000180006c9c f   ConEmuPlugin2800.obj
 0001:00005e08       ?ShowUserScreen@CPluginW2800@@UEAAX_N@Z 0000000180006e08 f   ConEmuPlugin2800.obj
 0001:00005e34       ?UpdateConEmuTabsApi@CPluginW2800@@UEAA_NH@Z 0000000180006e34 f   ConEmuPlugin2800.obj
 0001:00006754       ?_Getal@?$_Vector_alloc@U?$_Vec_base_types@UWindowInfo@@V?$MArrayAllocator@UWindowInfo@@@@@std@@@std@@QEAAAEAV?$MArrayAllocator@UWindowInfo@@@@XZ 0000000180007754 f i ConEmuPlugin2800.obj
 0001:00006758       ?_Xlength@?$vector@UtagPROCESSENTRY32W@@V?$MArrayAllocator@UtagPROCESSENTRY32W@@@@@std@@CAXXZ 0000000180007758 f i common-kernel64:MProcess.obj
 0001:00006758       ?_Xlength@?$vector@UWindowInfo@@V?$MArrayAllocator@UWindowInfo@@@@@std@@CAXXZ 0000000180007758 f i ConEmuPlugin2800.obj
 0001:0000676c       ?deallocate@?$MArrayAllocator@UWindowInfo@@@@QEAAXPEAUWindowInfo@@_K@Z 000000018000776c f i ConEmuPlugin2800.obj
 0001:00006794       ?erase@?$MArray@UWindowInfo@@@@QEAAX_J0@Z 0000000180007794 f i ConEmuPlugin2800.obj
 0001:00006824       ?insert@?$MArray@UWindowInfo@@@@QEAA_J_JAEBUWindowInfo@@0@Z 0000000180007824 f i ConEmuPlugin2800.obj
 0001:000068c0       ?insert@?$vector@UWindowInfo@@V?$MArrayAllocator@UWindowInfo@@@@@std@@QEAA?AV?$_Vector_iterator@V?$_Vector_val@U?$_Simple_types@UWindowInfo@@@std@@@std@@@2@V?$_Vector_const_iterator@V?$_Vector_val@U?$_Simple_types@UWindowInfo@@@std@@@std@@@2@_KAEBUWindowInfo@@@Z 00000001800078c0 f i ConEmuPlugin2800.obj
 0001:00006ce0       ?push_back@?$MArray@UWindowInfo@@@@QEAA_JAEBUWindowInfo@@@Z 0000000180007ce0 f i ConEmuPlugin2800.obj
 0001:00006d64       ?what@exception@std@@UEBAPEBDXZ 0000000180007d64 f i ConEmuPlugin2800.obj
 0001:00006d78       GetGlobalInfoW             0000000180007d78 f   ConEmuPlugin2800.obj
 0001:00006e10       ??0CPluginW995@@QEAA@XZ    0000000180007e10 f   ConEmuPlugin995.obj
 0001:00006fb0       ??_GCPluginW995@@UEAAPEAXI@Z 0000000180007fb0 f i ConEmuPlugin995.obj
 0001:00006fb0       ??_ECPluginW995@@UEAAPEAXI@Z 0000000180007fb0 f i ConEmuPlugin995.obj
 0001:00007468       ?CheckPanelExist@CPluginW995@@UEAA_NXZ 0000000180008468 f   ConEmuPlugin995.obj
 0001:000074a0       ?ExecuteSynchroApi@CPluginW995@@UEAA_NXZ 00000001800084a0 f   ConEmuPlugin995.obj
 0001:000074d0       ?ExitFar@CPluginW995@@UEAAXXZ 00000001800084d0 f   ConEmuPlugin995.obj
 0001:00007574       ?GetActiveWindowType@CPluginW995@@UEAAHXZ 0000000180008574 f   ConEmuPlugin995.obj
 0001:00007654       ?GetEditorModifiedState@CPluginW995@@UEAAKXZ 0000000180008654 f   ConEmuPlugin995.obj
 0001:000076ac       ?GetFarRect@CPluginW995@@UEAA_NAEAU_SMALL_RECT@@@Z 00000001800086ac f   ConEmuPlugin995.obj
 0001:00007704       ?GetMacroArea@CPluginW995@@UEAAHXZ 0000000180008704 f   ConEmuPlugin995.obj
 0001:0000775c       ?GetMsg@CPluginW995@@UEAAPEB_WHPEA_W_K@Z 000000018000875c f   ConEmuPlugin995.obj
 0001:000077c8       ?GetPanelDir@CPluginW995@@UEAAPEA_WKPEA_WH@Z 00000001800087c8 f   ConEmuPlugin995.obj
 0001:00007910       ?GetPanelInfo@CPluginW995@@UEAA_NKPEAUCEPanelInfo@@@Z 0000000180008910 f   ConEmuPlugin995.obj
 0001:00007b50       ?GetPanelItemInfo@CPluginW995@@UEAA_NAEBUCEPanelInfo@@_N_JAEAU_WIN32_FIND_DATAW@@PEAPEA_W@Z 0000000180008b50 f   ConEmuPlugin995.obj
 0001:00007d14       ?GetPluginInfoPtr@CPluginW995@@UEAAXPEAX@Z 0000000180008d14 f   ConEmuPlugin995.obj
 0001:00007d80       ?GetWindowCount@CPluginW995@@UEAAHXZ 0000000180008d80 f   ConEmuPlugin995.obj
 0001:00007dac       ?GuiMacroDlg@CPluginW995@@UEAAXXZ 0000000180008dac f   ConEmuPlugin995.obj
 0001:00007db4       ?InputBox@CPluginW995@@UEAA_NPEB_W000AEAPEA_W@Z 0000000180008db4 f   ConEmuPlugin995.obj
 0001:00007e64       ?IsMacroActive@CPluginW995@@UEAA_NXZ 0000000180008e64 f   ConEmuPlugin995.obj
 0001:00007ed4       ?LoadFarColors@CPluginW995@@UEAAXAEAY0BAA@E@Z 0000000180008ed4 f   ConEmuPlugin995.obj
 0001:00007f90       ?LoadFarSettings@CPluginW995@@UEAAXPEAUCEFarInterfaceSettings@@PEAUCEFarPanelSettings@@@Z 0000000180008f90 f   ConEmuPlugin995.obj
 0001:00007fec       ?Open@CPluginAnsi@@UEAAPEAXPEBX@Z 0000000180008fec f i ConEmuPluginA.obj
 0001:00007fec       ?Open@CPluginW995@@UEAAPEAXPEBX@Z 0000000180008fec f i ConEmuPlugin995.obj
 0001:00007ff4       ?OpenEditor@CPluginW995@@UEAA_NPEB_W_N11HH@Z 0000000180008ff4 f   ConEmuPlugin995.obj
 0001:000080fc       ?PanelControlApi@CPluginW995@@UEAA_JPEAXH_J0@Z 00000001800090fc f   ConEmuPlugin995.obj
 0001:00008140       ?PostMacroApi@CPluginW995@@UEAAXPEB_WPEAU_INPUT_RECORD@@_N@Z 0000000180009140 f   ConEmuPlugin995.obj
 0001:000081e4       ?ProcessEditorEventPtr@CPluginAnsi@@UEAAHPEAX@Z 00000001800091e4 f i ConEmuPluginA.obj
 0001:000081e4       ?ProcessSynchroEventPtr@CPluginAnsi@@UEAAHPEAX@Z 00000001800091e4 f i ConEmuPluginA.obj
 0001:000081e4       ?ProcessViewerEventPtr@CPluginW995@@UEAAHPEAX@Z 00000001800091e4 f i ConEmuPlugin995.obj
 0001:000081e4       ?ProcessEditorInputPtr@CPluginAnsi@@UEAAHPEBX@Z 00000001800091e4 f i ConEmuPluginA.obj
 0001:000081e4       ?ProcessViewerEventPtr@CPluginAnsi@@UEAAHPEAX@Z 00000001800091e4 f i ConEmuPluginA.obj
 0001:000081e4       ?ProcessEditorEventPtr@CPluginW995@@UEAAHPEAX@Z 00000001800091e4 f i ConEmuPlugin995.obj
 0001:000081e4       ?ProcessSynchroEventPtr@CPluginW995@@UEAAHPEAX@Z 00000001800091e4 f i ConEmuPlugin995.obj
 0001:000081e8       ?ProcessEditorInputPtr@CPluginW995@@UEAAHPEBX@Z 00000001800091e8 f   ConEmuPlugin995.obj
 0001:00008204       ?RedrawAll@CPluginW995@@UEAAXXZ 0000000180009204 f   ConEmuPlugin995.obj
 0001:00008234       ?SetStartupInfoPtr@CPluginW995@@UEAAXPEAX@Z 0000000180009234 f   ConEmuPlugin995.obj
 0001:0000838c       ?SetWindow@CPluginW995@@UEAAXH@Z 000000018000938c f   ConEmuPlugin995.obj
 0001:000083d8       ?ShowMessage@CPluginW995@@UEAAHPEB_WH_N@Z 00000001800093d8 f   ConEmuPlugin995.obj
 0001:00008438       ?ShowPluginMenu@CPluginW995@@UEAAHPEAUConEmuPluginMenuItem@@HH@Z 0000000180009438 f   ConEmuPlugin995.obj
 0001:0000858c       ?ShowUserScreen@CPluginW995@@UEAAX_N@Z 000000018000958c f   ConEmuPlugin995.obj
 0001:000085b8       ?StopWaitEndSynchro@CPluginW995@@UEAAXXZ 00000001800095b8 f   ConEmuPlugin995.obj
 0001:000085e8       ?UpdateConEmuTabsApi@CPluginW995@@UEAA_NH@Z 00000001800095e8 f   ConEmuPlugin995.obj
 0001:00008864       ?WaitEndSynchro@CPluginW995@@UEAAXXZ 0000000180009864 f   ConEmuPlugin995.obj
 0001:000089f8       ??0CPluginAnsi@@QEAA@XZ    00000001800099f8 f   ConEmuPluginA.obj
 0001:00008b64       ??_GCPluginAnsi@@UEAAPEAXI@Z 0000000180009b64 f i ConEmuPluginA.obj
 0001:00008b64       ??_ECPluginAnsi@@UEAAPEAXI@Z 0000000180009b64 f i ConEmuPluginA.obj
 0001:0000914c       ?CheckPanelExist@CPluginAnsi@@UEAA_NXZ 000000018000a14c f   ConEmuPluginA.obj
 0001:00009184       ?GetFarRect@CPluginAnsi@@UEAA_NAEAU_SMALL_RECT@@@Z 000000018000a184 f i ConEmuPluginA.obj
 0001:00009184       ?ExecuteSynchroApi@CPluginAnsi@@UEAA_NXZ 000000018000a184 f i ConEmuPluginA.obj
 0001:00009188       ?ExitFar@CPluginAnsi@@UEAAXXZ 000000018000a188 f   ConEmuPluginA.obj
 0001:000091e4       ?GetActiveWindowType@CPluginAnsi@@UEAAHXZ 000000018000a1e4 f   ConEmuPluginA.obj
 0001:00009268       ?GetEditorModifiedState@CPluginAnsi@@UEAAKXZ 000000018000a268 f   ConEmuPluginA.obj
 0001:000092c0       ?GetMacroArea@CPluginAnsi@@UEAAHXZ 000000018000a2c0 f   ConEmuPluginA.obj
 0001:000092c0       _get_startup_argv_mode     000000018000a2c0 f   LIBCMT:argv_mode.obj
 0001:000092c8       ?GetMsg@CPluginAnsi@@UEAAPEB_WHPEA_W_K@Z 000000018000a2c8 f   ConEmuPluginA.obj
 0001:00009370       ?GetPanelDir@CPluginAnsi@@UEAAPEA_WKPEA_WH@Z 000000018000a370 f   ConEmuPluginA.obj
 0001:00009468       ?GetPanelInfo@CPluginAnsi@@UEAA_NKPEAUCEPanelInfo@@@Z 000000018000a468 f   ConEmuPluginA.obj
 0001:000096bc       ?GetPanelItemInfo@CPluginAnsi@@UEAA_NAEBUCEPanelInfo@@_N_JAEAU_WIN32_FIND_DATAW@@PEAPEA_W@Z 000000018000a6bc f   ConEmuPluginA.obj
 0001:000097e4       ?GetPluginInfoPtr@CPluginAnsi@@UEAAXPEAX@Z 000000018000a7e4 f   ConEmuPluginA.obj
 0001:00009870       ?GetWindowCount@CPluginAnsi@@UEAAHXZ 000000018000a870 f   ConEmuPluginA.obj
 0001:0000989c       ?GuiMacroDlg@CPluginAnsi@@UEAAXXZ 000000018000a89c f   ConEmuPluginA.obj
 0001:000098a4       ?InputBox@CPluginAnsi@@UEAA_NPEB_W000AEAPEA_W@Z 000000018000a8a4 f   ConEmuPluginA.obj
 0001:00009a04       ?IsMacroActive@CPluginAnsi@@UEAA_NXZ 000000018000aa04 f   ConEmuPluginA.obj
 0001:00009a78       ?LoadFarColors@CPluginAnsi@@UEAAXAEAY0BAA@E@Z 000000018000aa78 f   ConEmuPluginA.obj
 0001:00009b38       ?LoadFarSettings@CPluginAnsi@@UEAAXPEAUCEFarInterfaceSettings@@PEAUCEFarPanelSettings@@@Z 000000018000ab38 f   ConEmuPluginA.obj
 0001:00009b98       ?OpenEditor@CPluginAnsi@@UEAA_NPEB_W_N11HH@Z 000000018000ab98 f   ConEmuPluginA.obj
 0001:00009cd4       ?PanelControlApi@CPluginAnsi@@UEAA_JPEAXH_J0@Z 000000018000acd4 f   ConEmuPluginA.obj
 0001:00009d10       ?PostMacroApi@CPluginAnsi@@UEAAXPEB_WPEAU_INPUT_RECORD@@_N@Z 000000018000ad10 f   ConEmuPluginA.obj
 0001:00009de8       ?RedrawAll@CPluginAnsi@@UEAAXXZ 000000018000ade8 f   ConEmuPluginA.obj
 0001:00009e1c       ?SetStartupInfoPtr@CPluginAnsi@@UEAAXPEAX@Z 000000018000ae1c f   ConEmuPluginA.obj
 0001:00009f78       ?SetWindow@CPluginAnsi@@UEAAXH@Z 000000018000af78 f   ConEmuPluginA.obj
 0001:00009fcc       ?ShowMessage@CPluginAnsi@@UEAAHPEB_WH_N@Z 000000018000afcc f   ConEmuPluginA.obj
 0001:0000a0c4       ?ShowPluginMenu@CPluginAnsi@@UEAAHPEAUConEmuPluginMenuItem@@HH@Z 000000018000b0c4 f   ConEmuPluginA.obj
 0001:0000a278       ?ShowUserScreen@CPluginAnsi@@UEAAX_N@Z 000000018000b278 f   ConEmuPluginA.obj
 0001:0000a2a4       ?UpdateConEmuTabsApi@CPluginAnsi@@UEAA_NH@Z 000000018000b2a4 f   ConEmuPluginA.obj
 0001:0000a560       ??$swprintf_c@$0BAE@@@YAHAEAY0BAE@_WPEB_WZZ 000000018000b560 f i ConEmuPluginBase.obj
 0001:0000a58c       ??$swprintf_c@$0DAM@@@YAHAEAY0DAM@_WPEB_WZZ 000000018000b58c f i ConEmuPluginBase.obj
 0001:0000a5b8       ??$swprintf_c@$0EAA@@@YAHAEAY0EAA@_WPEB_WZZ 000000018000b5b8 f i ConEmuPluginBase.obj
 0001:0000a5e4       ??$swprintf_c@$0MI@@@YAHAEAY0MI@_WPEB_WZZ 000000018000b5e4 f i ConEmuPluginBase.obj
 0001:0000a610       ??0CPluginBase@@QEAA@XZ    000000018000b610 f   ConEmuPluginBase.obj
 0001:0000a738       ??0MWow64Disable@@QEAA@XZ  000000018000b738 f i ConEmuPluginBase.obj
 0001:0000a7ac       ??1?$MFileMapping@UCESERVER_CONSOLE_MAPPING_HDR@@@@QEAA@XZ 000000018000b7ac f i ConEmuPluginBase.obj
 0001:0000a7ac       ??1?$MFileMapping@UPanelViewSetMapping@@@@QEAA@XZ 000000018000b7ac f i PluginBackground.obj
 0001:0000a7ac       ??1?$MFileMapping@UConEmuGuiMapping@@@@QEAA@XZ 000000018000b7ac f i common-user64:ConEmuCheckEx.obj
 0001:0000a800       ??1CPluginBase@@UEAA@XZ    000000018000b800 f   ConEmuPluginBase.obj
 0001:0000a80c       ??1MWow64Disable@@QEAA@XZ  000000018000b80c f i ConEmuPluginBase.obj
 0001:0000a838       ??_G?$MFileMapping@UCESERVER_CONSOLE_MAPPING_HDR@@@@QEAAPEAXI@Z 000000018000b838 f i ConEmuPluginBase.obj
 0001:0000a8ac       ??_GCPluginBase@@UEAAPEAXI@Z 000000018000b8ac f i ConEmuPluginBase.obj
 0001:0000a8ac       ??_ECPluginBase@@UEAAPEAXI@Z 000000018000b8ac f i ConEmuPluginBase.obj
 0001:0000a8d8       ?ActivatePlugin@CPluginBase@@QEAA_NKPEAXK@Z 000000018000b8d8 f   ConEmuPluginBase.obj
 0001:0000aaa4       ?AddTab@CPluginBase@@QEAA_NAEAHH_N1HPEB_W2HHHH@Z 000000018000baa4 f   ConEmuPluginBase.obj
 0001:0000ae1c       ?AddTabFinish@CPluginBase@@QEAAXH@Z 000000018000be1c f   ConEmuPluginBase.obj
 0001:0000ae28       ?Attach2Gui@CPluginBase@@QEAA_N_N@Z 000000018000be28 f   ConEmuPluginBase.obj
 0001:0000b258       ?BackgroundMacroError@CPluginBase@@SAKPEAX@Z 000000018000c258 f   ConEmuPluginBase.obj
 0001:0000b290       ?CheckBufferEnabled@CPluginBase@@QEAA_NXZ 000000018000c290 f   ConEmuPluginBase.obj
 0001:0000b2f4       ?CheckConEmuDetached@CPluginBase@@SAXXZ 000000018000c2f4 f   ConEmuPluginBase.obj
 0001:0000b430       ?CheckResources@CPluginBase@@QEAAX_N@Z 000000018000c430 f   ConEmuPluginBase.obj
 0001:0000b610       ?CloseMapHeader@CPluginBase@@SAXXZ 000000018000c610 f   ConEmuPluginBase.obj
 0001:0000b66c       ?CloseTabs@CPluginBase@@SAXXZ 000000018000c66c f   ConEmuPluginBase.obj
 0001:0000b70c       ?CommonPluginStartup@CPluginBase@@QEAAXXZ 000000018000c70c f   ConEmuPluginBase.obj
 0001:0000b818       ?CreateTabs@CPluginBase@@SA_NH@Z 000000018000c818 f   ConEmuPluginBase.obj
 0001:0000b900       ?DllCheckUnique@CPluginBase@@KA_N_N@Z 000000018000c900 f   ConEmuPluginBase.obj
 0001:0000bb44       ?DllMain_ProcessAttach@CPluginBase@@KAXPEAUHINSTANCE__@@@Z 000000018000cb44 f   ConEmuPluginBase.obj
 0001:0000bc38       ?DllMain_ProcessDetach@CPluginBase@@KAXXZ 000000018000cc38 f   ConEmuPluginBase.obj
 0001:0000bd20       ?EditViewConsoleOutput@CPluginBase@@QEAAX_N@Z 000000018000cd20 f   ConEmuPluginBase.obj
 0001:0000bdf8       ?EmergencyShow@CPluginBase@@KAXXZ 000000018000cdf8 f   ConEmuPluginBase.obj
 0001:0000be54       ?ExecuteSynchro@CPluginBase@@QEAAXXZ 000000018000ce54 f   ConEmuPluginBase.obj
 0001:0000bed8       ?ExitFarCommon@CPluginBase@@QEAAX_N@Z 000000018000ced8 f   ConEmuPluginBase.obj
 0001:0000bf04       ?FarSetConsoleSize@CPluginBase@@SA_NFF@Z 000000018000cf04 f   ConEmuPluginBase.obj
 0001:0000c010       ?FillLoadedParm@CPluginBase@@SAXPEAUConEmuLoadedArg@@PEAUHINSTANCE__@@H@Z 000000018000d010 f   ConEmuPluginBase.obj
 0001:0000c0e8       ?FillUpdateBackground@CPluginBase@@QEAAXPEAUPaintBackgroundArg@@@Z 000000018000d0e8 f   ConEmuPluginBase.obj
 0001:0000c264       ?FindServerCmd@CPluginBase@@QEAA_NKAEAK_N@Z 000000018000d264 f   ConEmuPluginBase.obj
 0001:0000c360       ?GetMainThreadId@CPluginBase@@SAKXZ 000000018000d360 f   ConEmuPluginBase.obj
 0001:0000c414       ?GetPanelInfo@CPluginBase@@QEAA_NKPEAUBkPanelInfo@@@Z 000000018000d414 f   ConEmuPluginBase.obj
 0001:0000c4b8       ?InitHWND@CPluginBase@@SAXXZ 000000018000d4b8 f   ConEmuPluginBase.obj
 0001:0000c758       ?InitName@?$MFileMapping@UPanelViewSetMapping@@@@QEAAPEB_WPEB_WKK@Z 000000018000d758 f i PluginBackground.obj
 0001:0000c758       ?InitName@?$MFileMapping@UConEmuGuiMapping@@@@QEAAPEB_WPEB_WKK@Z 000000018000d758 f i common-kernel64:ConEmuCheck.obj
 0001:0000c758       ?InitName@?$MFileMapping@UCESERVER_CONSOLE_MAPPING_HDR@@@@QEAAPEB_WPEB_WKK@Z 000000018000d758 f i ConEmuPluginBase.obj
 0001:0000c7f0       ?InitResources@CPluginBase@@QEAAXXZ 000000018000d7f0 f   ConEmuPluginBase.obj
 0001:0000ca30       ?InitRootRegKey@CPluginBase@@IEAAXXZ 000000018000da30 f   ConEmuPluginBase.obj
 0001:0000cb38       ?InternalOpenCreate@?$MFileMapping@UCESERVER_CONSOLE_MAPPING_HDR@@@@IEAAPEAUCESERVER_CONSOLE_MAPPING_HDR@@HHH@Z 000000018000db38 f i ConEmuPluginBase.obj
 0001:0000cce0       ?IsCurrentTabModal@CPluginBase@@QEAA_NXZ 000000018000dce0 f   ConEmuPluginBase.obj
 0001:0000ce9c       ?LoadFarVersion@CPluginBase@@SA_NXZ 000000018000de9c f   ConEmuPluginBase.obj
 0001:0000d158       ?LoadPanelTabsFromRegistry@CPluginBase@@IEAAXXZ 000000018000e158 f   ConEmuPluginBase.obj
 0001:0000d294       ?MonitorThreadProcW@CPluginBase@@SAKPEAX@Z 000000018000e294 f   ConEmuPluginBase.obj
 0001:0000d6a8       ?NotifyConEmuUnloaded@CPluginBase@@SAXXZ 000000018000e6a8 f   ConEmuPluginBase.obj
 0001:0000d7cc       ?OnConsoleDetaching@CPluginBase@@SAHPEAUHookCallbackArg@@@Z 000000018000e7cc f   ConEmuPluginBase.obj
 0001:0000d8f8       ?OnConsolePeekInput@CPluginBase@@SAHPEAUHookCallbackArg@@@Z 000000018000e8f8 f   ConEmuPluginBase.obj
 0001:0000d960       ?OnConsolePeekInputPost@CPluginBase@@SAHPEAUHookCallbackArg@@@Z 000000018000e960 f   ConEmuPluginBase.obj
 0001:0000d990       ?OnConsolePeekReadInput@CPluginBase@@SAX_N@Z 000000018000e990 f   ConEmuPluginBase.obj
 0001:0000db88       ?OnConsoleReadInput@CPluginBase@@SAHPEAUHookCallbackArg@@@Z 000000018000eb88 f   ConEmuPluginBase.obj
 0001:0000db90       ?OnConsoleReadInputPost@CPluginBase@@SAHPEAUHookCallbackArg@@@Z 000000018000eb90 f   ConEmuPluginBase.obj
 0001:0000dd40       ?OnConsoleReadInputWork@CPluginBase@@SAHPEAUHookCallbackArg@@@Z 000000018000ed40 f   ConEmuPluginBase.obj
 0001:0000ddb4       ?OnConsoleWasAttached@CPluginBase@@SAHPEAUHookCallbackArg@@@Z 000000018000edb4 f   ConEmuPluginBase.obj
 0001:0000de1c       ?OnCurDirChanged@CPluginBase@@SAXXZ 000000018000ee1c f   ConEmuPluginBase.obj
 0001:0000de80       ?OnGetNumberOfConsoleInputEventsPost@CPluginBase@@SAHPEAUHookCallbackArg@@@Z 000000018000ee80 f   ConEmuPluginBase.obj
 0001:0000deb4       ?OnLibraryLoaded@CPluginBase@@SAXPEAUHINSTANCE__@@@Z 000000018000eeb4 f   ConEmuPluginBase.obj
 0001:0000df54       ?OnMainThreadActivated@CPluginBase@@QEAAXXZ 000000018000ef54 f   ConEmuPluginBase.obj
 0001:0000e0f8       ?OnPanelViewCallbacks@CPluginBase@@SA_NPEAUHookCallbackArg@@P6AHPEAXPEAU_INPUT_RECORD@@KPEAKPEAH@Z5@Z 000000018000f0f8 f   ConEmuPluginBase.obj
 0001:0000e1d0       ?OnPostWriteConsoleOutput@CPluginBase@@SAHPEAUHookCallbackArg@@@Z 000000018000f1d0 f   ConEmuPluginBase.obj
 0001:0000e1dc       ?OnShellExecuteExW_Except@CPluginBase@@SAHPEAUHookCallbackArg@@@Z 000000018000f1dc f   ConEmuPluginBase.obj
 0001:0000e21c       ?OnWriteConsoleOutput@CPluginBase@@SAHPEAUHookCallbackArg@@@Z 000000018000f21c f   ConEmuPluginBase.obj
 0001:0000e2f0       ?OpenMapHeader@CPluginBase@@SAHXZ 000000018000f2f0 f   ConEmuPluginBase.obj
 0001:0000e3f0       ?OpenPluginCommon@CPluginBase@@QEAAPEAXH_J_N@Z 000000018000f3f0 f   ConEmuPluginBase.obj
 0001:0000e710       ?OutDataAlloc@CPluginBase@@SA_NK@Z 000000018000f710 f   ConEmuPluginBase.obj
 0001:0000e780       ?OutDataRealloc@CPluginBase@@SA_NK@Z 000000018000f780 f   ConEmuPluginBase.obj
 0001:0000e860       ?OutDataWrite@CPluginBase@@SA_NPEAXK@Z 000000018000f860 f   ConEmuPluginBase.obj
 0001:0000e904       ?PanelControl@CPluginBase@@QEAA_JPEAXH_J0@Z 000000018000f904 f   ConEmuPluginBase.obj
 0001:0000e99c       ?Plugin@@YAPEAVCPluginBase@@XZ 000000018000f99c f   ConEmuPluginBase.obj
 0001:0000ea70       ?PrintText@CPluginBase@@QEAA_NPEB_W@Z 000000018000fa70 f   ConEmuPluginBase.obj
 0001:0000ebb8       ?ProcessCommand@CPluginBase@@QEAA_NKHPEAXPEAPEAUCESERVER_REQ@@_N@Z 000000018000fbb8 f   ConEmuPluginBase.obj
 0001:0000f058       ?ProcessCommandLine@CPluginBase@@QEAA_NPEA_W@Z 0000000180010058 f   ConEmuPluginBase.obj
 0001:0000f0a4       ?ProcessDragFrom@CPluginBase@@QEAAXXZ 00000001800100a4 f   ConEmuPluginBase.obj
 0001:0000f57c       ?ProcessDragTo@CPluginBase@@QEAAXXZ 000000018001057c f   ConEmuPluginBase.obj
 0001:0000f8d8       ?ProcessEditorInputInternal@CPluginBase@@QEAAXAEBU_INPUT_RECORD@@@Z 00000001800108d8 f   ConEmuPluginBase.obj
 0001:0000f904       ?ProcessEditorViewerEvent@CPluginBase@@QEAAHHH@Z 0000000180010904 f   ConEmuPluginBase.obj
 0001:0000f9b8       ?ProcessSetWindowCommand@CPluginBase@@QEAAXXZ 00000001800109b8 f   ConEmuPluginBase.obj
 0001:0000fadc       ?ProcessSynchroEvent@CPluginBase@@QEAAHHPEAX@Z 0000000180010adc f   ConEmuPluginBase.obj
 0001:0000fb60       ?ReloadFarInfo@CPluginBase@@QEAA_N_N@Z 0000000180010b60 f   ConEmuPluginBase.obj
 0001:0000fdec       ?ReloadFarInfoApi@CPluginBase@@IEAA_NXZ 0000000180010dec f   ConEmuPluginBase.obj
 0001:0000ffc0       ?RunExternalProgram@CPluginBase@@QEAA_NPEA_W@Z 0000000180010fc0 f   ConEmuPluginBase.obj
 0001:00010144       ?RunExternalProgramW@CPluginBase@@SA_NPEA_W0_N@Z 0000000180011144 f   ConEmuPluginBase.obj
 0001:000103c8       ?SendTabs@CPluginBase@@SAXH_N@Z 00000001800113c8 f   ConEmuPluginBase.obj
 0001:00010590       ?SetRootRegKey@CPluginBase@@IEAAXPEA_W@Z 0000000180011590 f   ConEmuPluginBase.obj
 0001:0001064c       ?ShowConsoleInfo@CPluginBase@@QEAAXXZ 000000018001164c f   ConEmuPluginBase.obj
 0001:00010850       ?ShowMessage@CPluginBase@@QEAAHHH@Z 0000000180011850 f   ConEmuPluginBase.obj
 0001:000108cc       ?ShowMessageBox@CPluginBase@@KAHPEB_WI@Z 00000001800118cc f   ConEmuPluginBase.obj
 0001:000109b0       ?ShowMessageGui@CPluginBase@@QEAAHHH@Z 00000001800119b0 f   ConEmuPluginBase.obj
 0001:00010a38       ?ShowPanelsList@CPluginBase@@QEAAXXZ 0000000180011a38 f   ConEmuPluginBase.obj
 0001:00010b9c       ?ShowPluginMenu@CPluginBase@@QEAAXW4PluginCallCommands@@@Z 0000000180011b9c f   ConEmuPluginBase.obj
 0001:00010d94       ?ShowProtocolWarning@CPluginBase@@KAXXZ 0000000180011d94 f   ConEmuPluginBase.obj
 0001:00010f18       ?ShowTabsList@CPluginBase@@QEAAXXZ 0000000180011f18 f   ConEmuPluginBase.obj
 0001:000111c8       ?StartDebugger@CPluginBase@@QEAA_NXZ 00000001800121c8 f   ConEmuPluginBase.obj
 0001:00011480       ?StopThread@CPluginBase@@QEAAX_N@Z 0000000180012480 f   ConEmuPluginBase.obj
 0001:00011718       ?StorePanelDirs@CPluginBase@@QEAA_NPEB_W0@Z 0000000180012718 f   ConEmuPluginBase.obj
 0001:0001188c       ?StringCchCatW@@YAJPEA_W_KPEB_W@Z 000000018001288c f i ConEmuPluginBase.obj
 0001:0001195c       ?SwitchTabCommand@CPluginBase@@QEAAXW4PluginMenuCommands@@@Z 000000018001295c f   ConEmuPluginBase.obj
 0001:000119e0       ?ToOem@CPluginBase@@SAPEADPEB_W@Z 00000001800129e0 f   ConEmuPluginBase.obj
 0001:00011a4c       ?ToOem@CPluginBase@@SAXPEB_WPEAD_J@Z 0000000180012a4c f   ConEmuPluginBase.obj
 0001:00011a8c       ?ToUnicode@CPluginBase@@SAPEA_WPEBD@Z 0000000180012a8c f   ConEmuPluginBase.obj
 0001:00011b18       ?TouchReadPeekConsoleInputs@CPluginBase@@SAXH@Z 0000000180012b18 f   ConEmuPluginBase.obj
 0001:00011b64       ?UngetDummyMouseEvent@CPluginBase@@SA_N_NPEAUHookCallbackArg@@@Z 0000000180012b64 f   ConEmuPluginBase.obj
 0001:00011d10       ?UpdateConEmuTabs@CPluginBase@@QEAA_N_N@Z 0000000180012d10 f   ConEmuPluginBase.obj
 0001:00011f9c       ?UpdatePanelDirs@CPluginBase@@QEAAXXZ 0000000180012f9c f   ConEmuPluginBase.obj
 0001:00012160       ?WaitPluginActivation@CPluginBase@@SAKKPEAPEAXHK@Z 0000000180013160 f   ConEmuPluginBase.obj
 0001:00012270       ?cmd_CloseQSearch@CPluginBase@@QEAAXXZ 0000000180013270 f   ConEmuPluginBase.obj
 0001:000122ac       ?cmd_ConSetFont@CPluginBase@@QEAAXPEAX@Z 00000001800132ac f   ConEmuPluginBase.obj
 0001:00012300       ?cmd_EMenu@CPluginBase@@QEAAXPEAX@Z 0000000180013300 f   ConEmuPluginBase.obj
 0001:00012420       ?cmd_ExternalCallback@CPluginBase@@QEAA_NPEAX@Z 0000000180013420 f   ConEmuPluginBase.obj
 0001:00012484       ?cmd_GuiChanged@CPluginBase@@QEAAXPEAX@Z 0000000180013484 f   ConEmuPluginBase.obj
 0001:00012510       ?cmd_LeftClickSync@CPluginBase@@QEAAXPEAX@Z 0000000180013510 f   ConEmuPluginBase.obj
 0001:00012604       ?cmd_OpenEditorLine@CPluginBase@@QEAA_NPEAUCESERVER_REQ_FAREDITOR@@@Z 0000000180013604 f   ConEmuPluginBase.obj
 0001:000126d8       ?cmd_RedrawFarCall@CPluginBase@@QEAA_NAEAPEAUCESERVER_REQ@@PEAPEAU2@@Z 00000001800136d8 f   ConEmuPluginBase.obj
 0001:000127ac       ?cmd_SetWindow@CPluginBase@@QEAA_NPEAX_N@Z 00000001800137ac f   ConEmuPluginBase.obj
 0001:00012838       ?isMacroActive@CPluginBase@@QEAA_NAEAH@Z 0000000180013838 f   ConEmuPluginBase.obj
 0001:00012874       ?isModalEditorViewer@CPluginBase@@QEAA_NXZ 0000000180013874 f   ConEmuPluginBase.obj
 0001:000128a0       ?pcc_Disabled@CPluginBase@@SA_NW4PluginMenuCommands@@@Z 00000001800138a0 f   ConEmuPluginBase.obj
 0001:00012914       ?pcc_Selected@CPluginBase@@SA_NW4PluginMenuCommands@@@Z 0000000180013914 f   ConEmuPluginBase.obj
 0001:00012970       ??0CPluginBackground@@QEAA@XZ 0000000180013970 f   PluginBackground.obj
 0001:00012b9c       ??1CPluginBackground@@QEAA@XZ 0000000180013b9c f   PluginBackground.obj
 0001:00012d90       ?CheckPanelFolders@CPluginBackground@@IEAAXH@Z 0000000180013d90 f   PluginBackground.obj
 0001:00012e60       ?InternalOpenCreate@?$MFileMapping@UPanelViewSetMapping@@@@IEAAPEAUPanelViewSetMapping@@HHH@Z 0000000180013e60 f i PluginBackground.obj
 0001:00013008       ?IsParmChanged@CPluginBackground@@IEAA_NPEAUPaintBackgroundArg@@0@Z 0000000180014008 f   PluginBackground.obj
 0001:00013280       ?LoadThSet@CPluginBackground@@IEAAHH@Z 0000000180014280 f   PluginBackground.obj
 0001:00013538       ?MonitorBackground@CPluginBackground@@QEAAXXZ 0000000180014538 f   PluginBackground.obj
 0001:000135a0       ?OnMainThreadActivated@CPluginBackground@@QEAAXHH@Z 00000001800145a0 f   PluginBackground.obj
 0001:00013664       ?ReallocItems@CPluginBackground@@IEAAXH@Z 0000000180014664 f   PluginBackground.obj
 0001:000136e8       ?RegisterSubplugin@CPluginBackground@@QEAAHPEAURegisterBackgroundArg@@@Z 00000001800146e8 f   PluginBackground.obj
 0001:00013988       ?SetDcPanelRect@CPluginBackground@@IEAAXPEAUtagRECT@@PEAUBkPanelInfo@@PEAUPaintBackgroundArg@@@Z 0000000180014988 f   PluginBackground.obj
 0001:00013a5c       ?SetForceThLoad@CPluginBackground@@QEAAXXZ 0000000180014a5c f   PluginBackground.obj
 0001:00013a74       ?SetForceUpdate@CPluginBackground@@QEAAX_N@Z 0000000180014a74 f   PluginBackground.obj
 0001:00013a94       ?UpdateBackground@CPluginBackground@@IEAAXXZ 0000000180014a94 f   PluginBackground.obj
 0001:00014338       ?UpdateBackground_Exec@CPluginBackground@@KAXPEAURegisterBackgroundArg@@PEAUPaintBackgroundArg@@@Z 0000000180015338 f   PluginBackground.obj
 0001:0001437c       ??$swprintf_c@$09@@YAHAEAY09_WPEB_WZZ 000000018001537c f i PluginSrv.obj
 0001:000143a8       ?DumpError@?$PipeServer@UCESERVER_REQ@@@@IEAAXPEAUPipeInst@1@PEB_WH@Z 00000001800153a8 f i PluginSrv.obj
 0001:000144bc       ?PipeServerRead@?$PipeServer@UCESERVER_REQ@@@@IEAAHPEAUPipeInst@1@@Z 00000001800154bc f i PluginSrv.obj
 0001:00014784       ?PipeServerThread@?$PipeServer@UCESERVER_REQ@@@@IEAAKPEAUPipeInst@1@@Z 0000000180015784 f i PluginSrv.obj
 0001:00014a54       ?PipeServerWrite@?$PipeServer@UCESERVER_REQ@@@@IEAAHPEAUPipeInst@1@PEBXKPEAKH@Z 0000000180015a54 f i PluginSrv.obj
 0001:00014b80       ?PlugServerCommand@@YAHPEAXPEAUCESERVER_REQ@@AEAPEAU1@AEAK3_J@Z 0000000180015b80 f   PluginSrv.obj
 0001:00015138       ?PlugServerFree@@YAXPEAUCESERVER_REQ@@_J@Z 0000000180016138 f   PluginSrv.obj
 0001:00015150       ?PlugServerStart@@YA_NXZ   0000000180016150 f   PluginSrv.obj
 0001:00015270       ?PlugServerStop@@YAX_N@Z   0000000180016270 f   PluginSrv.obj
 0001:000152c4       ?StartPipeInstance@?$PipeServer@UCESERVER_REQ@@@@IEAA_NPEAUPipeInst@1@@Z 00000001800162c4 f i PluginSrv.obj
 0001:00015450       ?StartPipeServer@?$PipeServer@UCESERVER_REQ@@@@QEAA_N_NPEB_W_JPEAU_SECURITY_ATTRIBUTES@@P6AHPEAXPEAUCESERVER_REQ@@AEAPEAU3@AEAK72@ZP6AX52@ZP6AH42@ZP6AH42@ZP6AH42@Z@Z 0000000180016450 f i PluginSrv.obj
 0001:000155e8       ?StopPipeServer@?$PipeServer@UCESERVER_REQ@@@@QEAAX_NAEA_N@Z 00000001800165e8 f i PluginSrv.obj
 0001:00015950       ?TerminatePipeThread@?$PipeServer@UCESERVER_REQ@@@@KAXAEAPEAXAEBUPipeInst@1@AEA_N@Z 0000000180016950 f i PluginSrv.obj
 0001:000159bc       ?WaitForClient@?$PipeServer@UCESERVER_REQ@@@@IEAA_NPEAUPipeInst@1@AEAH1@Z 00000001800169bc f i PluginSrv.obj
 0001:00015cd4       ?WaitOverlapped@?$PipeServer@UCESERVER_REQ@@@@IEAAHPEAUPipeInst@1@PEAK@Z 0000000180016cd4 f i PluginSrv.obj
 0001:00015ea8       ?WriteDummyAnswer@?$PipeServer@UCESERVER_REQ@@@@IEAAHPEAUPipeInst@1@@Z 0000000180016ea8 f i PluginSrv.obj
 0001:00015f40       ?_PipeServerThread@?$PipeServer@UCESERVER_REQ@@@@KAKPEAX@Z 0000000180016f40 f i PluginSrv.obj
 0001:00015f9c       ?cmd_FarSetChanged@@YAXPEAUFAR_REQ_FARSETCHANGED@@@Z 0000000180016f9c f   PluginSrv.obj
 0001:00015ff6       GetFileVersionInfoSizeW    0000000180016ff6 f   version:VERSION.dll
 0001:00015ffc       GetFileVersionInfoW        0000000180016ffc f   version:VERSION.dll
 0001:00016002       VerQueryValueW             0000000180017002 f   version:VERSION.dll
 0001:00016008       CreateToolhelp32Snapshot   0000000180017008 f   kernel32:KERNEL32.dll
 0001:0001600e       Thread32First              000000018001700e f   kernel32:KERNEL32.dll
 0001:00016014       Thread32Next               0000000180017014 f   kernel32:KERNEL32.dll
 0001:0001601a       Module32FirstW             000000018001701a f   kernel32:KERNEL32.dll
 0001:00016020       Module32NextW              0000000180017020 f   kernel32:KERNEL32.dll
 0001:00016028       ??2@YAPEAX_K@Z             0000000180017028 f   common-kernel64:Memory.obj
 0001:0001605c       ??3@YAXPEAX@Z              000000018001705c f   common-kernel64:Memory.obj
 0001:00016070       ??_U@YAPEAX_K@Z            0000000180017070 f   common-kernel64:Memory.obj
 0001:00016084       ??_V@YAXPEAX@Z             0000000180017084 f   common-kernel64:Memory.obj
 0001:00016098       ?HeapDeinitialize@@YAXXZ   0000000180017098 f   common-kernel64:Memory.obj
 0001:000160f8       ?HeapInitialize@@YA_NXZ    00000001800170f8 f   common-kernel64:Memory.obj
 0001:00016138       ?xf_calloc@@YAPEAX_K0PEBDH@Z 0000000180017138 f   common-kernel64:Memory.obj
 0001:000161e4       ?xf_free@@YAXPEAXPEBDH@Z   00000001800171e4 f   common-kernel64:Memory.obj
 0001:00016274       ?xf_malloc@@YAPEAX_KPEBDH@Z 0000000180017274 f   common-kernel64:Memory.obj
 0001:00016318       ?xf_realloc@@YAPEAXPEAX_KPEBDH@Z 0000000180017318 f   common-kernel64:Memory.obj
 0001:000163e0       ?xf_set_tag@@YAXPEAXPEBDH_N@Z 00000001800173e0 f   common-kernel64:Memory.obj
 0001:00016488       ?ExecuteCmd@@YAPEAUCESERVER_REQ@@PEB_WPEAU1@KPEAUHWND__@@HKH@Z 0000000180017488 f   common-kernel64:ConEmuCheck.obj
 0001:00016694       ?ExecuteFreeResult@@YAXAEAPEAUCESERVER_REQ@@@Z 0000000180017694 f   common-kernel64:ConEmuCheck.obj
 0001:000166c0       ?ExecuteGuiCmd@@YAPEAUCESERVER_REQ@@PEAUHWND__@@PEAU1@0H@Z 00000001800176c0 f   common-kernel64:ConEmuCheck.obj
 0001:00016780       ?ExecuteNewCmd@@YAPEAUCESERVER_REQ@@K_K@Z 0000000180017780 f   common-kernel64:ConEmuCheck.obj
 0001:000167f0       ?ExecuteNewCmd@@YA_NAEAPEAUCESERVER_REQ@@AEAKK_K@Z 00000001800177f0 f   common-kernel64:ConEmuCheck.obj
 0001:00016880       ?ExecuteOpenPipe@@YAPEAXPEB_WAEAY0CAI@_W0KKHPEAXH@Z 0000000180017880 f   common-kernel64:ConEmuCheck.obj
 0001:00016a30       ?ExecutePrepareCmd@@YAXPEAUCESERVER_REQ@@K_K@Z 0000000180017a30 f   common-kernel64:ConEmuCheck.obj
 0001:00016a6c       ?ExecutePrepareCmd@@YAXPEAUCESERVER_REQ_HDR@@K_K@Z 0000000180017a6c f   common-kernel64:ConEmuCheck.obj
 0001:00016adc       ?ExecuteSrvCmd@@YAPEAUCESERVER_REQ@@KPEAU1@PEAUHWND__@@HKH@Z 0000000180017adc f   common-kernel64:ConEmuCheck.obj
 0001:00016bb0       ?GetConEmuHWND@@YAPEAUHWND__@@H@Z 0000000180017bb0 f   common-kernel64:ConEmuCheck.obj
 0001:00016d0c       ?GuiMessageBox@@YAHPEAUHWND__@@PEB_W1H@Z 0000000180017d0c f   common-kernel64:ConEmuCheck.obj
 0001:00016e9c       ?InternalOpenCreate@?$MFileMapping@UConEmuGuiMapping@@@@IEAAPEAUConEmuGuiMapping@@HHH@Z 0000000180017e9c f i common-kernel64:ConEmuCheck.obj
 0001:00017044       ?LoadSrvMapping@@YAHPEAUHWND__@@AEAUCESERVER_CONSOLE_MAPPING_HDR@@@Z 0000000180018044 f   common-kernel64:ConEmuCheck.obj
 0001:00017194       ?ModuleName@@YAPEB_WPEB_W@Z 0000000180018194 f   common-kernel64:ConEmuCheck.obj
 0001:00017258       ?isConsoleClass@@YA_NPEB_W@Z 0000000180018258 f   common-kernel64:ConEmuCheck.obj
 0001:000172a8       ?isConsoleWindow@@YA_NPEAUHWND__@@@Z 00000001800182a8 f   common-kernel64:ConEmuCheck.obj
 0001:00017398       ?myGetConsoleWindow@@YAPEAUHWND__@@XZ 0000000180018398 f   common-kernel64:ConEmuCheck.obj
 0001:00017434       ?StringCchVPrintfA@@YAJPEAD_KPEBD0@Z 0000000180018434 f i common-kernel64:MStrSafe.obj
 0001:000174dc       ?lstrcmpni@@YAHPEB_W0H@Z   00000001800184dc f   common-kernel64:MStrSafe.obj
 0001:000175ec       ?msprintf@@YAPEB_WPEA_W_KPEB_WZZ 00000001800185ec f   common-kernel64:MStrSafe.obj
 0001:000179fc       ?sprintf_c@@YAHPEAD_JPEBDZZ 00000001800189fc f   common-kernel64:MStrSafe.obj
 0001:00017a3c       ?swprintf_c@@YAHPEA_W_JPEB_WZZ 0000000180018a3c f   common-kernel64:MStrSafe.obj
 0001:00017a7c       ?IsFilePath@@YA_NPEB_W_N@Z 0000000180018a7c f   common-kernel64:CmdLine.obj
 0001:00017bcc       ?PointToExt@@YAPEB_WPEB_W@Z 0000000180018bcc f   common-kernel64:CmdLine.obj
 0001:00017bf0       ?PointToName@@YAPEB_WPEB_W@Z 0000000180018bf0 f   common-kernel64:CmdLine.obj
 0001:00017c4c       ?Unquote@@YAPEB_WPEA_W_N@Z 0000000180018c4c f   common-kernel64:CmdLine.obj
 0001:00017cb4       ??$sprintf_c@$0CI@@@YAHAEAY0CI@DPEBDZZ 0000000180018cb4 f i common-kernel64:WThreads.obj
 0001:00017ce0       ?SetThreadName@@YAXKPEAD@Z 0000000180018ce0 f   common-kernel64:WThreads.obj
 0001:00017d18       ?apiCreateThread@@YAPEAXP6AKPEAX@Z0PEAKPEBDH@Z 0000000180018d18 f   common-kernel64:WThreads.obj
 0001:00017e6c       ?apiTerminateThreadEx@@YAHPEAXKPEBDH@Z 0000000180018e6c f   common-kernel64:WThreads.obj
 0001:00017f74       ?apiThreadHelper@@YAKPEAX@Z 0000000180018f74 f   common-kernel64:WThreads.obj
 0001:00018180       ?lstrdup@@YAPEA_WPEB_W_K@Z 0000000180019180 f   common-kernel64:MStrDup.obj
 0001:00018200       ?lstrmerge@@YAPEA_WPEB_W00000000@Z 0000000180019200 f   common-kernel64:MStrDup.obj
 0001:0001834c       ?lstrmerge@@YA_NPEAPEA_WPEB_W1111111@Z 000000018001934c f   common-kernel64:MStrDup.obj
 0001:000183d4       ??0CEnvStrings@@QEAA@PEA_W@Z 00000001800193d4 f   common-kernel64:EnvVar.obj
 0001:00018448       ??1CEnvStrings@@QEAA@XZ    0000000180019448 f   common-kernel64:EnvVar.obj
 0001:0001846c       ?Clear@CEnvRestorer@@QEAAXXZ 000000018001946c f   common-kernel64:EnvVar.obj
 0001:00018490       ?ExpandEnvStr@@YAPEA_WPEB_W@Z 0000000180019490 f   common-kernel64:EnvVar.obj
 0001:00018558       ?GetEnvVar@@YAPEA_WPEB_W@Z 0000000180019558 f   common-kernel64:EnvVar.obj
 0001:00018628       ?SavePathVar@CEnvRestorer@@QEAAXPEB_W@Z 0000000180019628 f   common-kernel64:EnvVar.obj
 0001:0001865c       ?CommonShutdown@@YAXXZ     000000018001965c f   common-kernel64:Common.obj
 0001:0001866c       ?IsEnvBlockVariableValid@@YA_NPEB_W@Z 000000018001966c f   common-kernel64:Common.obj
 0001:000186a0       ?IsEnvBlockVariableValid@@YA_NPEB_WAEAPEB_W@Z 00000001800196a0 f   common-kernel64:Common.obj
 0001:000186f4       ?SetCommand@CESERVER_REQ_NEWCMD@@QEAAXPEB_W@Z 00000001800196f4 f   common-kernel64:Common.obj
 0001:0001875c       ?SetEnvStrings@CESERVER_REQ_NEWCMD@@QEAAXPEB_WK@Z 000000018001975c f   common-kernel64:Common.obj
 0001:00018874       ??_GMNullDesc@@QEAAPEAXI@Z 0000000180019874 f i common-kernel64:MSecurity.obj
 0001:000188ec       ?LoadAdvApi@MNullDesc@@IEAAHXZ 00000001800198ec f i common-kernel64:MSecurity.obj
 0001:00018aa0       ?LocalSecurity@@YAPEAU_SECURITY_ATTRIBUTES@@XZ 0000000180019aa0 f   common-kernel64:MSecurity.obj
 0001:00018afc       ?LocalSecurity@MNullDesc@@QEAAPEAU_SECURITY_ATTRIBUTES@@XZ 0000000180019afc f i common-kernel64:MSecurity.obj
 0001:00018c78       ?ShutdownSecurity@@YAXXZ   0000000180019c78 f   common-kernel64:MSecurity.obj
 0001:00018ca0       ??0CEStr@@QEAA@$$QEAPEA_W@Z 0000000180019ca0 f   common-kernel64:CEStr.obj
 0001:00018cc0       ??0CEStr@@QEAA@PEB_W00000000@Z 0000000180019cc0 f   common-kernel64:CEStr.obj
 0001:00018d58       ??0CEStr@@QEAA@XZ          0000000180019d58 f   common-kernel64:CEStr.obj
 0001:00018d68       ??0bad_alloc@stdext@@QEAA@AEBV01@@Z 0000000180019d68 f i common-kernel64:CEStr.obj
 0001:00018d88       ??0bad_alloc@stdext@@QEAA@XZ 0000000180019d88 f i common-kernel64:CEStr.obj
 0001:00018da4       ??0exception@stdext@@QEAA@AEBV01@@Z 0000000180019da4 f i common-kernel64:CEStr.obj
 0001:00018dbc       ??1CEStr@@QEAA@XZ          0000000180019dbc f   common-kernel64:CEStr.obj
 0001:00018dec       ??1bad_alloc@stdext@@UEAA@XZ 0000000180019dec f i common-kernel64:CEStr.obj
 0001:00018df8       ??4CEStr@@QEAAAEAU0@PEB_W@Z 0000000180019df8 f   common-kernel64:CEStr.obj
 0001:00018e14       ??BCEStr@@QEBAPEB_WXZ      0000000180019e14 f   common-kernel64:CEStr.obj
 0001:00018e18       ??_Eexception@stdext@@UEAAPEAXI@Z 0000000180019e18 f i common-kernel64:CEStr.obj
 0001:00018e18       ??_Ebad_alloc@stdext@@UEAAPEAXI@Z 0000000180019e18 f i common-kernel64:CEStr.obj
 0001:00018e18       ??_Gbad_alloc@stdext@@UEAAPEAXI@Z 0000000180019e18 f i common-kernel64:CEStr.obj
 0001:00018e18       ??_Gexception@stdext@@UEAAPEAXI@Z 0000000180019e18 f i common-kernel64:CEStr.obj
 0001:00018e44       ?AttachInt@CEStr@@AEAAPEB_WAEAPEA_W@Z 0000000180019e44 f   common-kernel64:CEStr.obj
 0001:00018ec8       ?Clear@CEStr@@QEAAXXZ      0000000180019ec8 f   common-kernel64:CEStr.obj
 0001:00018ef8       ?GetBuffer@CEStr@@QEAAPEA_W_J@Z 0000000180019ef8 f   common-kernel64:CEStr.obj
 0001:00018fc8       ?GetLen@CEStr@@QEBA_JXZ    0000000180019fc8 f   common-kernel64:CEStr.obj
 0001:00018fec       ?GetMaxCount@CEStr@@QEAA_JXZ 0000000180019fec f   common-kernel64:CEStr.obj
 0001:00019018       ?Set@CEStr@@QEAAPEB_WPEB_W_J@Z 000000018001a018 f   common-kernel64:CEStr.obj
 0001:000190f0       ?StringCchCopyNW@@YAJPEA_W_KPEB_W1@Z 000000018001a0f0 f i common-kernel64:CEStr.obj
 0001:00019178       ?_Doraise@bad_alloc@stdext@@MEBAXXZ 000000018001a178 f i common-kernel64:CEStr.obj
 0001:00019194       ?what@exception@stdext@@UEBAPEBDXZ 000000018001a194 f i common-kernel64:CEStr.obj
 0001:000191a8       ?FileExists@@YA_NPEB_WPEAK@Z 000000018001a1a8 f   common-kernel64:WObjects.obj
 0001:00019334       ?IsWin6@@YA_NXZ            000000018001a334 f   common-kernel64:WObjects.obj
 0001:00019368       ?IsWinVerOrHigher@@YA_NG@Z 000000018001a368 f   common-kernel64:WObjects.obj
 0001:000193fc       ?IsWindows64@@YA_NXZ       000000018001a3fc f   common-kernel64:WObjects.obj
 0001:00019420       ?_VerifyVersionInfo@@YA_NPEAU_OSVERSIONINFOEXW@@K_K@Z 000000018001a420 f   common-kernel64:WObjects.obj
 0001:000194d0       ?Init@HkFunc@@QEAA_NPEB_WPEAUHINSTANCE__@@@Z 000000018001a4d0 f   common-kernel64:HkFunc.obj
 0001:00019560       ?isConEmuHk@HkFunc@@QEAA_NXZ 000000018001a560 f   common-kernel64:HkFunc.obj
 0001:00019568       ??$_Emplace_reallocate@AEBUtagPROCESSENTRY32W@@@?$vector@UtagPROCESSENTRY32W@@V?$MArrayAllocator@UtagPROCESSENTRY32W@@@@@std@@QEAAPEAUtagPROCESSENTRY32W@@QEAU2@AEBU2@@Z 000000018001a568 f i common-kernel64:MProcess.obj
 0001:00019770       ??$emplace_back@AEBUtagPROCESSENTRY32W@@@?$vector@UtagPROCESSENTRY32W@@V?$MArrayAllocator@UtagPROCESSENTRY32W@@@@@std@@QEAAXAEBUtagPROCESSENTRY32W@@@Z 000000018001a770 f i common-kernel64:MProcess.obj
 0001:0001980c       ??0?$MToolHelp@UtagPROCESSENTRY32W@@$1?Process32FirstW@@YAHPEAXPEAU1@@Z$1?Process32NextW@@YAH01@Z@@QEAA@KK@Z 000000018001a80c f i common-kernel64:MProcess.obj
 0001:00019878       ??_EMToolHelpProcess@@UEAAPEAXI@Z 000000018001a878 f i common-kernel64:MProcess.obj
 0001:00019878       ??_GMToolHelpProcess@@UEAAPEAXI@Z 000000018001a878 f i common-kernel64:MProcess.obj
 0001:00019878       ??_E?$MToolHelp@UtagPROCESSENTRY32W@@$1?Process32FirstW@@YAHPEAXPEAU1@@Z$1?Process32NextW@@YAH01@Z@@UEAAPEAXI@Z 000000018001a878 f i common-kernel64:MProcess.obj
 0001:00019878       ??_G?$MToolHelp@UtagPROCESSENTRY32W@@$1?Process32FirstW@@YAHPEAXPEAU1@@Z$1?Process32NextW@@YAH01@Z@@UEAAPEAXI@Z 000000018001a878 f i common-kernel64:MProcess.obj
 0001:000198f0       ?Close@?$MToolHelp@UtagPROCESSENTRY32W@@$1?Process32FirstW@@YAHPEAXPEAU1@@Z$1?Process32NextW@@YAH01@Z@@QEAAX_N@Z 000000018001a8f0 f i common-kernel64:MProcess.obj
 0001:00019980       ?Filter@?$MToolHelp@UtagPROCESSENTRY32W@@$1?Process32FirstW@@YAHPEAXPEAU1@@Z$1?Process32NextW@@YAH01@Z@@MEAA_NPEAUtagPROCESSENTRY32W@@@Z 000000018001a980 f i common-kernel64:MProcess.obj
 0001:00019980       __acrt_uninitialize_command_line 000000018001a980 f i libucrt:argv_data.obj
 0001:00019984       ?Find@?$MToolHelp@UtagPROCESSENTRY32W@@$1?Process32FirstW@@YAHPEAXPEAU1@@Z$1?Process32NextW@@YAH01@Z@@QEAA_NP6A_NPEAUtagPROCESSENTRY32W@@_J@Z10@Z 000000018001a984 f i common-kernel64:MProcess.obj
 0001:00019a24       ?Next@?$MToolHelp@UtagPROCESSENTRY32W@@$1?Process32FirstW@@YAHPEAXPEAU1@@Z$1?Process32NextW@@YAH01@Z@@QEAA_NPEAUtagPROCESSENTRY32W@@@Z 000000018001aa24 f i common-kernel64:MProcess.obj
 0001:00019aa4       ?compare@cmp@?1??Find@MToolHelpProcess@@QEAA_NKPEAUtagPROCESSENTRY32W@@@Z@SA_N0_J@Z 000000018001aaa4 f i common-kernel64:MProcess.obj
 0001:00019aac       ?getNext@?$MToolHelp@UtagPROCESSENTRY32W@@$1?Process32FirstW@@YAHPEAXPEAU1@@Z$1?Process32NextW@@YAH01@Z@@IEAA_NXZ 000000018001aaac f i common-kernel64:MProcess.obj
 0001:00019b70       ?isTerminalMode@@YA_NXZ    000000018001ab70 f   common-kernel64:MProcess.obj
 0001:00019cd4       ??0MSection@@QEAA@XZ       000000018001acd4 f   common-kernel64:MSection.obj
 0001:00019d5c       ??0MSectionLock@@QEAA@XZ   000000018001ad5c f   common-kernel64:MSection.obj
 0001:00019d6c       ??0MSectionThread@@QEAA@PEAVMSection@@@Z 000000018001ad6c f   common-kernel64:MSection.obj
 0001:00019d8c       ??1MSection@@QEAA@XZ       000000018001ad8c f   common-kernel64:MSection.obj
 0001:00019e00       ??1MSectionLock@@QEAA@XZ   000000018001ae00 f   common-kernel64:MSection.obj
 0001:00019e24       ??1MSectionThread@@QEAA@XZ 000000018001ae24 f   common-kernel64:MSection.obj
 0001:00019e60       ?AddRef@MSection@@IEAAXK@Z 000000018001ae60 f   common-kernel64:MSection.obj
 0001:00019ef4       ?Lock@MSection@@IEAAHHK@Z  000000018001aef4 f   common-kernel64:MSection.obj
 0001:00019ff0       ?Lock@MSectionLock@@QEAAHPEAVMSection@@HK@Z 000000018001aff0 f   common-kernel64:MSection.obj
 0001:0001a044       ?MyEnterCriticalSection@MSection@@IEAA_NK@Z 000000018001b044 f   common-kernel64:MSection.obj
 0001:0001a174       ?ReleaseRef@MSection@@IEAAHK@Z 000000018001b174 f   common-kernel64:MSection.obj
 0001:0001a214       ?Unlock@MSection@@IEAAXH@Z 000000018001b214 f   common-kernel64:MSection.obj
 0001:0001a26c       ?Unlock@MSectionLock@@QEAAXXZ 000000018001b26c f   common-kernel64:MSection.obj
 0001:0001a298       ?WaitUnlocked@MSection@@IEAAXKK@Z 000000018001b298 f   common-kernel64:MSection.obj
 0001:0001a32c       ?CheckCallbackPtr@@YA_NPEAUHINSTANCE__@@_KPEAP6A_JXZHHH@Z 000000018001b32c f   common-kernel64:WModuleCheck.obj
 0001:0001a438       ?IsModuleValid@@YA_NPEAUHINSTANCE__@@H@Z 000000018001b438 f   common-kernel64:WModuleCheck.obj
 0001:0001a544       ??0MModule@@QEAA@PEAUHINSTANCE__@@@Z 000000018001b544 f   common-kernel64:MModule.obj
 0001:0001a550       ??1MModule@@QEAA@XZ        000000018001b550 f   common-kernel64:MModule.obj
 0001:0001a558       ?Free@MModule@@QEAAXXZ     000000018001b558 f   common-kernel64:MModule.obj
 0001:0001a588       ??0MSectionSimple@@QEAA@_N@Z 000000018001b588 f   common-kernel64:MSectionSimple.obj
 0001:0001a5c0       ?Close@MSectionSimple@@QEAAXXZ 000000018001b5c0 f   common-kernel64:MSectionSimple.obj
 0001:0001a5c0       ??1MSectionSimple@@QEAA@XZ 000000018001b5c0 f   common-kernel64:MSectionSimple.obj
 0001:0001a5e0       ?Enter@MSectionSimple@@QEAAXXZ 000000018001b5e0 f   common-kernel64:MSectionSimple.obj
 0001:0001a5e8       ?Init@MSectionSimple@@QEAAXXZ 000000018001b5e8 f   common-kernel64:MSectionSimple.obj
 0001:0001a608       ?Leave@MSectionSimple@@QEAAXXZ 000000018001b608 f   common-kernel64:MSectionSimple.obj
 0001:0001a610       ?RecreateAndLock@MSectionSimple@@QEAA_NXZ 000000018001b610 f   common-kernel64:MSectionSimple.obj
 0001:0001a680       ?TryEnter@MSectionSimple@@QEAA_NXZ 000000018001b680 f   common-kernel64:MSectionSimple.obj
 0001:0001a6a8       ?SetConEmuEnvHWND@@YAXPEB_WPEAUHWND__@@@Z 000000018001b6a8 f   common-user64:SetEnvVar.obj
 0001:0001a700       ?SetConEmuEnvVar@@YAXPEAUHWND__@@@Z 000000018001b700 f   common-user64:SetEnvVar.obj
 0001:0001a784       ?SetConEmuEnvVarChild@@YAXPEAUHWND__@@0@Z 000000018001b784 f   common-user64:SetEnvVar.obj
 0001:0001a7b0       ?FindConEmuBaseDir@@YAHAEAY0BAF@_W0PEAUHINSTANCE__@@@Z 000000018001b7b0 f   common-user64:ConEmuCheckEx.obj
 0001:0001ad30       ?IsConEmuExeExist@@YAHPEB_WAEAY0BAF@_W@Z 000000018001bd30 f   common-user64:ConEmuCheckEx.obj
 0001:0001add8       ??$swprintf_c@$0FA@@@YAHAEAY0FA@_WPEB_WZZ 000000018001bdd8 f i common-user64:EmergencyShow.obj
 0001:0001ae04       ?CorrectConsolePos@@YAXPEAUHWND__@@@Z 000000018001be04 f   common-user64:EmergencyShow.obj
 0001:0001af24       ?EmergencyShow@@YAXPEAUHWND__@@HH@Z 000000018001bf24 f   common-user64:EmergencyShow.obj
 0001:0001b064       ?EvaluateDefaultFontWidth@@YAHHPEB_W@Z 000000018001c064 f   common-user64:EmergencyShow.obj
 0001:0001b178       ?SetUserFriendlyFont@@YAXPEAUHWND__@@HH@Z 000000018001c178 f   common-user64:EmergencyShow.obj
 0001:0001b554       ??0MSetter@@QEAA@PEAJ@Z    000000018001c554 f   common-user64:MSetter.obj
 0001:0001b56c       ??1MSetter@@QEAA@XZ        000000018001c56c f   common-user64:MSetter.obj
 0001:0001b574       ?Unlock@MSetter@@QEAAXXZ   000000018001c574 f   common-user64:MSetter.obj
 0001:0001b5d4       ?IsDotsName@@YA_NPEB_W@Z   000000018001c5d4 f   common-user64:WFiles.obj
 0001:0001b5f8       ?SearchAppPaths@@YA_NPEB_WAEAUCEStr@@_NPEAVCEnvRestorer@@@Z 000000018001c5f8 f   common-user64:WFiles.obj
 0001:0001ba38       ?GetConsoleSizeInfo@@YAXPEAUCONSOLE_INFO@@@Z 000000018001ca38 f   common-user64:WConsoleEx.obj
 0001:0001bac4       ?SetConsoleFontSizeTo@@YAXPEAUHWND__@@HHPEB_WGG@Z 000000018001cac4 f   common-user64:WConsoleEx.obj
 0001:0001beac       ?SetConsoleInfo@@YAHPEAUHWND__@@PEAUCONSOLE_INFO@@@Z 000000018001ceac f   common-user64:WConsoleEx.obj
 0001:0001c0a8       ?SetEnvVarExpanded@@YAXPEB_W0@Z 000000018001d0a8 f   common-user64:WUser.obj
 0001:0001c1c0       ?UpdateComspec@@YAXPEAUConEmuComspec@@_N@Z 000000018001d1c0 f   common-user64:WUser.obj
 0001:0001c47c       ?apiShowWindow@@YA_NPEAUHWND__@@H@Z 000000018001d47c f   common-user64:WUser.obj
 0001:0001c490       ?apiShowWindowAsync@@YA_NPEAUHWND__@@H@Z 000000018001d490 f   common-user64:WUser.obj
 0001:0001c4a4       ?FindMonitorsWorkspace@@YAHPEAUHMONITOR__@@PEAUHDC__@@PEAUtagRECT@@_J@Z 000000018001d4a4 f   common-user64:Monitors.obj
 0001:0001c4e0       ?GetAllMonitorsWorkspace@@YA?AUtagRECT@@XZ 000000018001d4e0 f   common-user64:Monitors.obj
 0001:0001c544       ??0length_error@std@@QEAA@AEBV01@@Z 000000018001d544 f i libcpmt:xthrow.obj
 0001:0001c584       ??0length_error@std@@QEAA@PEBD@Z 000000018001d584 f i libcpmt:xthrow.obj
 0001:0001c5d0       ??0logic_error@std@@QEAA@AEBV01@@Z 000000018001d5d0 f i libcpmt:xthrow.obj
 0001:0001c610       ?_Xlength_error@std@@YAXPEBD@Z 000000018001d610 f   libcpmt:xthrow.obj
 0001:0001c634       __GSHandlerCheck           000000018001d634 f   LIBCMT:gshandler.obj
 0001:0001c654       __GSHandlerCheckCommon     000000018001d654 f   LIBCMT:gshandler.obj
 0001:0001c6c0       __security_check_cookie    000000018001d6c0 f   LIBCMT:amdsecgs.obj
 0001:0001c6e4       ??3@YAXPEAX_K@Z            000000018001d6e4 f   LIBCMT:delete_scalar_size.obj
 0001:0001c700       _alloca_probe              000000018001d700 f   LIBCMT:chkstk.obj
 0001:0001c700       __chkstk                   000000018001d700 f   LIBCMT:chkstk.obj
 0001:0001c754       ??_Gtype_info@@UEAAPEAXI@Z 000000018001d754 f i LIBCMT:std_type_info_static.obj
 0001:0001c754       ??_Etype_info@@UEAAPEAXI@Z 000000018001d754 f i LIBCMT:std_type_info_static.obj
 0001:0001c780       __GSHandlerCheck_EH        000000018001d780 f   LIBCMT:gshandlereh.obj
 0001:0001c988       _Init_thread_footer        000000018001d988 f   LIBCMT:thread_safe_statics.obj
 0001:0001c9e8       _Init_thread_header        000000018001d9e8 f   LIBCMT:thread_safe_statics.obj
 0001:0001ca50       _Init_thread_notify        000000018001da50 f   LIBCMT:thread_safe_statics.obj
 0001:0001caa0       _Init_thread_wait          000000018001daa0 f   LIBCMT:thread_safe_statics.obj
 0001:0001ce48       _DllMainCRTStartup         000000018001de48 f   LIBCMT:dll_dllmain.obj
 0001:0001ce88       __scrt_acquire_startup_lock 000000018001de88 f   LIBCMT:utility.obj
 0001:0001cec4       __scrt_dllmain_after_initialize_c 000000018001dec4 f   LIBCMT:utility.obj
 0001:0001cef8       __scrt_dllmain_before_initialize_c 000000018001def8 f   LIBCMT:utility.obj
 0001:0001cf10       __scrt_dllmain_crt_thread_attach 000000018001df10 f   LIBCMT:utility.obj
 0001:0001cf38       __scrt_dllmain_crt_thread_detach 000000018001df38 f   LIBCMT:utility.obj
 0001:0001cf50       __scrt_dllmain_exception_filter 000000018001df50 f   LIBCMT:utility.obj
 0001:0001cfb0       __scrt_dllmain_uninitialize_c 000000018001dfb0 f   LIBCMT:utility.obj
 0001:0001cfe0       __scrt_dllmain_uninitialize_critical 000000018001dfe0 f   LIBCMT:utility.obj
 0001:0001cff4       __scrt_initialize_crt      000000018001dff4 f   LIBCMT:utility.obj
 0001:0001d040       __scrt_initialize_onexit_tables 000000018001e040 f   LIBCMT:utility.obj
 0001:0001d118       __scrt_is_nonwritable_in_current_image 000000018001e118 f   LIBCMT:utility.obj
 0001:0001d1b4       __scrt_release_startup_lock 000000018001e1b4 f   LIBCMT:utility.obj
 0001:0001d1d8       __scrt_uninitialize_crt    000000018001e1d8 f   LIBCMT:utility.obj
 0001:0001d204       _onexit                    000000018001e204 f   LIBCMT:utility.obj
 0001:0001d254       atexit                     000000018001e254 f   LIBCMT:utility.obj
 0001:0001d26c       __raise_securityfailure    000000018001e26c f   LIBCMT:gs_report.obj
 0001:0001d2a0       __report_gsfailure         000000018001e2a0 f   LIBCMT:gs_report.obj
 0001:0001d374       __report_rangecheckfailure 000000018001e374 f   LIBCMT:gs_report.obj
 0001:0001d388       __report_securityfailure   000000018001e388 f   LIBCMT:gs_report.obj
 0001:0001d508       __crt_debugger_hook        000000018001e508 f   LIBCMT:utility_desktop.obj
 0001:0001d510       __scrt_fastfail            000000018001e510 f   LIBCMT:utility_desktop.obj
 0001:0001d65c       __security_init_cookie     000000018001e65c f   LIBCMT:gs_support.obj
 0001:0001d708       ?__scrt_initialize_type_info@@YAXXZ 000000018001e708 f   LIBCMT:tncleanup.obj
 0001:0001d718       ?__scrt_uninitialize_type_info@@YAXXZ 000000018001e718 f   LIBCMT:tncleanup.obj
 0001:0001d724       __local_stdio_scanf_options 000000018001e724 f i LIBCMT:default_local_stdio_options.obj
 0001:0001d72c       __scrt_initialize_default_local_stdio_options 000000018001e72c f   LIBCMT:default_local_stdio_options.obj
 0001:0001d748       __scrt_get_dyn_tls_init_callback 000000018001e748 f   LIBCMT:dyn_tls_init.obj
 0001:0001d750       _RTC_Initialize            000000018001e750 f   LIBCMT:initsect.obj
 0001:0001d78c       _RTC_Terminate             000000018001e78c f   LIBCMT:initsect.obj
 0001:0001d7c8       __isa_available_init       000000018001e7c8 f   LIBCMT:cpu_disp.obj
 0001:0001d984       __scrt_is_ucrt_dll_in_use  000000018001e984 f   LIBCMT:ucrt_detection.obj
 0001:0001d990       ??$_CallSETranslator@V__FrameHandler3@@@@YAHPEAUEHExceptionRecord@@PEA_KPEAU_CONTEXT@@PEAU_xDISPATCHER_CONTEXT@@PEBU_s_FuncInfo@@K1@Z 000000018001e990 f i libvcruntime:risctrnsctrl.obj
 0001:0001d9e4       ?CatchTryBlock@__FrameHandler3@@SAPEBU_s_TryBlockMapEntry@@PEBU_s_FuncInfo@@H@Z 000000018001e9e4 f   libvcruntime:risctrnsctrl.obj
 0001:0001da3c       ?ExecutionInCatch@__FrameHandler3@@SA_NPEAU_xDISPATCHER_CONTEXT@@PEBU_s_FuncInfo@@@Z 000000018001ea3c f   libvcruntime:risctrnsctrl.obj
 0001:0001da68       ?FrameUnwindToEmptyState@__FrameHandler3@@SAXPEA_KPEAU_xDISPATCHER_CONTEXT@@PEBU_s_FuncInfo@@@Z 000000018001ea68 f   libvcruntime:risctrnsctrl.obj
 0001:0001dacc       ?GetEstablisherFrame@__FrameHandler3@@SAPEA_KPEA_KPEAU_xDISPATCHER_CONTEXT@@PEBU_s_FuncInfo@@0@Z 000000018001eacc f   libvcruntime:risctrnsctrl.obj
 0001:0001db98       ?GetRangeOfTrysToCheck@__FrameHandler3@@SA?AU?$pair@Viterator@TryBlockMap@__FrameHandler3@@V123@@std@@AEAVTryBlockMap@1@HH@Z 000000018001eb98 f   libvcruntime:risctrnsctrl.obj
 0001:0001dcf4       ?UnwindNestedFrames@__FrameHandler3@@SAXPEA_KPEAUEHExceptionRecord@@PEAU_CONTEXT@@0PEAXPEBU_s_FuncInfo@@HHPEBU_s_HandlerType@@PEAU_xDISPATCHER_CONTEXT@@E@Z 000000018001ecf4 f   libvcruntime:risctrnsctrl.obj
 0001:0001de18       _CreateFrameInfo           000000018001ee18 f   libvcruntime:risctrnsctrl.obj
 0001:0001de54       _FindAndUnlinkFrame        000000018001ee54 f   libvcruntime:risctrnsctrl.obj
 0001:0001dea8       _GetImageBase              000000018001eea8 f   libvcruntime:risctrnsctrl.obj
 0001:0001debc       _GetThrowImageBase         000000018001eebc f   libvcruntime:risctrnsctrl.obj
 0001:0001ded0       _SetImageBase              000000018001eed0 f   libvcruntime:risctrnsctrl.obj
 0001:0001dee8       _SetThrowImageBase         000000018001eee8 f   libvcruntime:risctrnsctrl.obj
 0001:0001df00       __CxxFrameHandler3         000000018001ef00 f   libvcruntime:risctrnsctrl.obj
 0001:0001df90       memcpy_repmovs             000000018001ef90 f   libvcruntime:memcpy.obj
 0001:0001dfb0       memcpy                     000000018001efb0 f   libvcruntime:memcpy.obj
 0001:0001dfb0       memmove                    000000018001efb0 f   libvcruntime:memcpy.obj
 0001:0001e3e8       wcschr                     000000018001f3e8 f   libvcruntime:wcschr.obj
 0001:0001e47c       wcsstr                     000000018001f47c f   libvcruntime:wcsstr.obj
 0001:0001e6b0       memset_repmovs             000000018001f6b0 f   libvcruntime:memset.obj
 0001:0001e6d0       memset                     000000018001f6d0 f   libvcruntime:memset.obj
 0001:0001e860       __DestructExceptionObject  000000018001f860 f   libvcruntime:ehhelpers.obj
 0001:0001e8d4       ?_CallMemberFunction0@@YAXQEAX0@Z 000000018001f8d4 f i libvcruntime:ehhelpers.obj
 0001:0001e8d8       _IsExceptionObjectToBeDestroyed 000000018001f8d8 f   libvcruntime:ehhelpers.obj
 0001:0001e908       __AdjustPointer            000000018001f908 f   libvcruntime:ehhelpers.obj
 0001:0001e92c       __FrameUnwindFilter        000000018001f92c f   libvcruntime:ehhelpers.obj
 0001:0001e978       __std_terminate            000000018001f978 f   libvcruntime:ehhelpers.obj
 0001:0001e984       __std_exception_copy       000000018001f984 f   libvcruntime:std_exception.obj
 0001:0001ea14       __std_exception_destroy    000000018001fa14 f   libvcruntime:std_exception.obj
 0001:0001ea3c       _CxxThrowException         000000018001fa3c f   libvcruntime:throw.obj
 0001:0001eafc       _purecall                  000000018001fafc f   libvcruntime:purevirt.obj
 0001:0001eb2c       wcsrchr                    000000018001fb2c f   libvcruntime:wcsrchr.obj
 0001:0001ebf0       memcmp                     000000018001fbf0 f   libvcruntime:memcmp.obj
 0001:0001ecb8       strrchr                    000000018001fcb8 f   libvcruntime:strrchr.obj
 0001:0001ee04       strchr                     000000018001fe04 f   libvcruntime:strchr.obj
 0001:0001ee90       __C_specific_handler       000000018001fe90 f   libvcruntime:riscchandler.obj
 0001:0001f09c       __vcrt_initialize          000000018002009c f   libvcruntime:initialization.obj
 0001:0001f0d0       __vcrt_thread_attach       00000001800200d0 f   libvcruntime:initialization.obj
 0001:0001f0e4       __vcrt_thread_detach       00000001800200e4 f   libvcruntime:initialization.obj
 0001:0001f0f8       __vcrt_uninitialize        00000001800200f8 f   libvcruntime:initialization.obj
 0001:0001f118       __vcrt_uninitialize_critical 0000000180020118 f   libvcruntime:initialization.obj
 0001:0001f128       __std_type_info_compare    0000000180020128 f   libvcruntime:std_type_info.obj
 0001:0001f150       __std_type_info_destroy_list 0000000180020150 f   libvcruntime:std_type_info.obj
 0001:0001f17c       __vcrt_freefls             000000018002017c f   libvcruntime:per_thread_data.obj
 0001:0001f19c       __vcrt_freeptd             000000018002019c f   libvcruntime:per_thread_data.obj
 0001:0001f1ec       __vcrt_getptd              00000001800201ec f   libvcruntime:per_thread_data.obj
 0001:0001f208       __vcrt_getptd_noexit       0000000180020208 f   libvcruntime:per_thread_data.obj
 0001:0001f2d4       __vcrt_initialize_ptd      00000001800202d4 f   libvcruntime:per_thread_data.obj
 0001:0001f328       __vcrt_uninitialize_ptd    0000000180020328 f   libvcruntime:per_thread_data.obj
 0001:0001f34c       ?GetCurrentState@__FrameHandler3@@SAHPEA_KPEAU_xDISPATCHER_CONTEXT@@PEBU_s_FuncInfo@@@Z 000000018002034c f   libvcruntime:ehstate.obj
 0001:0001f374       ?GetUnwindTryBlock@__FrameHandler3@@SAHPEA_KPEAU_xDISPATCHER_CONTEXT@@PEBU_s_FuncInfo@@@Z 0000000180020374 f   libvcruntime:ehstate.obj
 0001:0001f3a0       ?SetState@__FrameHandler3@@SAXPEA_KPEBU_s_FuncInfo@@H@Z 00000001800203a0 f   libvcruntime:ehstate.obj
 0001:0001f3ac       ?SetUnwindTryBlock@__FrameHandler3@@SAXPEA_KPEAU_xDISPATCHER_CONTEXT@@PEBU_s_FuncInfo@@H@Z 00000001800203ac f   libvcruntime:ehstate.obj
 0001:0001f3e8       ?StateFromControlPc@__FrameHandler3@@SAHPEBU_s_FuncInfo@@PEAU_xDISPATCHER_CONTEXT@@@Z 00000001800203e8 f   libvcruntime:ehstate.obj
 0001:0001f3f0       ?StateFromIp@__FrameHandler3@@SAHPEBU_s_FuncInfo@@PEAU_xDISPATCHER_CONTEXT@@_K@Z 00000001800203f0 f   libvcruntime:ehstate.obj
 0001:0001fe7c       ??$TypeMatchHelper@V__FrameHandler3@@@@YAHPEBU_s_HandlerType@@PEBU_s_CatchableType@@PEBU_s_ThrowInfo@@@Z 0000000180020e7c f i libvcruntime:frame.obj
 0001:0001ffc0       ??$__InternalCxxFrameHandler@V__FrameHandler3@@@@YA?AW4_EXCEPTION_DISPOSITION@@PEAUEHExceptionRecord@@PEA_KPEAU_CONTEXT@@PEAU_xDISPATCHER_CONTEXT@@PEBU_s_FuncInfo@@H1E@Z 0000000180020fc0 f i libvcruntime:frame.obj
 0001:00020208       ??0bad_exception@std@@QEAA@AEBV01@@Z 0000000180021208 f i libvcruntime:frame.obj
 0001:00020248       ??0bad_exception@std@@QEAA@XZ 0000000180021248 f i libvcruntime:frame.obj
 0001:00020268       ?CxxCallCatchBlock@__FrameHandler3@@SAPEAXPEAU_EXCEPTION_RECORD@@@Z 0000000180021268 f   libvcruntime:frame.obj
 0001:000204dc       ?FrameUnwindToState@__FrameHandler3@@SAXPEA_KPEAU_xDISPATCHER_CONTEXT@@PEBU_s_FuncInfo@@H@Z 00000001800214dc f   libvcruntime:frame.obj
 0001:00020670       ?GetHandlerSearchState@__FrameHandler3@@SAHPEA_KPEAU_xDISPATCHER_CONTEXT@@PEBU_s_FuncInfo@@@Z 0000000180021670 f i libvcruntime:frame.obj
 0001:00020874       ?_CallMemberFunction1@@YAXQEAX00@Z 0000000180021874 f i libvcruntime:frame.obj
 0001:00020880       ?_CallMemberFunction2@@YAXQEAX00H@Z 0000000180021880 f i libvcruntime:frame.obj
 0001:00020890       __vcrt_initialize_pure_virtual_call_handler 0000000180021890 f   libvcruntime:purevirt_data.obj
 0001:000208b0       _NLG_Notify                00000001800218b0 f   libvcruntime:notify.obj
 0001:000208d0       __NLG_Dispatch2            00000001800218d0 f   libvcruntime:notify.obj
 0001:000208e0       __NLG_Return2              00000001800218e0 f   libvcruntime:notify.obj
 0001:000208e4       __except_validate_context_record 00000001800218e4 f   libvcruntime:jbcxrval.obj
 0001:0002091c       __vcrt_initialize_locks    000000018002191c f   libvcruntime:locks.obj
 0001:00020964       __vcrt_uninitialize_locks  0000000180021964 f   libvcruntime:locks.obj
 0001:00020b74       __vcrt_FlsAlloc            0000000180021b74 f   libvcruntime:winapi_downlevel.obj
 0001:00020bbc       __vcrt_FlsFree             0000000180021bbc f   libvcruntime:winapi_downlevel.obj
 0001:00020c04       __vcrt_FlsGetValue         0000000180021c04 f   libvcruntime:winapi_downlevel.obj
 0001:00020c4c       __vcrt_FlsSetValue         0000000180021c4c f   libvcruntime:winapi_downlevel.obj
 0001:00020ca0       __vcrt_InitializeCriticalSectionEx 0000000180021ca0 f   libvcruntime:winapi_downlevel.obj
 0001:00020d04       __vcrt_initialize_winapi_thunks 0000000180021d04 f   libvcruntime:winapi_downlevel.obj
 0001:00020d34       __vcrt_uninitialize_winapi_thunks 0000000180021d34 f   libvcruntime:winapi_downlevel.obj
 0001:00020d90       _CallSettingFrame          0000000180021d90 f   libvcruntime:handlers.obj
 0001:00020de0       _CallSettingFrameEncoded   0000000180021de0 f   libvcruntime:handlers.obj
 0001:00020e28       ??$ensure_buffer_is_big_enough@D@formatting_buffer@__crt_stdio_output@@QEAA_N_K@Z 0000000180021e28 f i libucrt:output.obj
 0001:00020ed4       ??$is_wide_character_specifier@D@__crt_stdio_output@@YA_N_KDW4length_modifier@0@@Z 0000000180021ed4 f i libucrt:output.obj
 0001:00020f04       ??$is_wide_character_specifier@_W@__crt_stdio_output@@YA_N_K_WW4length_modifier@0@@Z 0000000180021f04 f i libucrt:output.obj
 0001:00020f48       ??$type_case_integer_parse_into_buffer@I@?$output_processor@_WV?$string_output_adapter@_W@__crt_stdio_output@@V?$standard_base@_WV?$string_output_adapter@_W@__crt_stdio_output@@@2@@__crt_stdio_output@@AEAAXII_N@Z 0000000180021f48 f i libucrt:output.obj
 0001:00020f48       ??$type_case_integer_parse_into_buffer@I@?$output_processor@DV?$string_output_adapter@D@__crt_stdio_output@@V?$standard_base@DV?$string_output_adapter@D@__crt_stdio_output@@@2@@__crt_stdio_output@@AEAAXII_N@Z 0000000180021f48 f i libucrt:output.obj
 0001:00020fe4       ??$type_case_integer_parse_into_buffer@_K@?$output_processor@DV?$string_output_adapter@D@__crt_stdio_output@@V?$standard_base@DV?$string_output_adapter@D@__crt_stdio_output@@@2@@__crt_stdio_output@@AEAAX_KI_N@Z 0000000180021fe4 f i libucrt:output.obj
 0001:00020fe4       ??$type_case_integer_parse_into_buffer@_K@?$output_processor@_WV?$string_output_adapter@_W@__crt_stdio_output@@V?$standard_base@_WV?$string_output_adapter@_W@__crt_stdio_output@@@2@@__crt_stdio_output@@AEAAX_KI_N@Z 0000000180021fe4 f i libucrt:output.obj
 0001:00021080       ??$write_multiple_characters@V?$string_output_adapter@D@__crt_stdio_output@@D@__crt_stdio_output@@YAXAEBV?$string_output_adapter@D@0@DHQEAH@Z 0000000180022080 f i libucrt:output.obj
 0001:000210dc       ??$write_multiple_characters@V?$string_output_adapter@_W@__crt_stdio_output@@D@__crt_stdio_output@@YAXAEBV?$string_output_adapter@_W@0@DHQEAH@Z 00000001800220dc f i libucrt:output.obj
 0001:0002114c       ??0?$output_processor@DV?$string_output_adapter@D@__crt_stdio_output@@V?$standard_base@DV?$string_output_adapter@D@__crt_stdio_output@@@2@@__crt_stdio_output@@QEAA@AEBV?$string_output_adapter@D@1@_KQEBDQEAU__crt_locale_pointers@@QEAD@Z 000000018002214c f i libucrt:output.obj
 0001:000211c8       ??0?$output_processor@_WV?$string_output_adapter@_W@__crt_stdio_output@@V?$standard_base@_WV?$string_output_adapter@_W@__crt_stdio_output@@@2@@__crt_stdio_output@@QEAA@AEBV?$string_output_adapter@_W@1@_KQEB_WQEAU__crt_locale_pointers@@QEAD@Z 00000001800221c8 f i libucrt:output.obj
 0001:00021248       ??0_LocaleUpdate@@QEAA@QEAU__crt_locale_pointers@@@Z 0000000180022248 f i libucrt:output.obj
 0001:000212d8       ?force_decimal_point@__crt_stdio_output@@YAXPEADQEAU__crt_locale_pointers@@@Z 00000001800222d8 f i libucrt:output.obj
 0001:00021348       ?parse_int_from_format_string@?$output_processor@DV?$string_output_adapter@D@__crt_stdio_output@@V?$standard_base@DV?$string_output_adapter@D@__crt_stdio_output@@@2@@__crt_stdio_output@@AEAA_NQEAH@Z 0000000180022348 f i libucrt:output.obj
 0001:000213cc       ?parse_int_from_format_string@?$output_processor@_WV?$string_output_adapter@_W@__crt_stdio_output@@V?$standard_base@_WV?$string_output_adapter@_W@__crt_stdio_output@@@2@@__crt_stdio_output@@AEAA_NQEAH@Z 00000001800223cc f i libucrt:output.obj
 0001:0002144c       ?process@?$output_processor@DV?$string_output_adapter@D@__crt_stdio_output@@V?$standard_base@DV?$string_output_adapter@D@__crt_stdio_output@@@2@@__crt_stdio_output@@QEAAHXZ 000000018002244c f i libucrt:output.obj
 0001:00021650       ?process@?$output_processor@_WV?$string_output_adapter@_W@__crt_stdio_output@@V?$standard_base@_WV?$string_output_adapter@_W@__crt_stdio_output@@@2@@__crt_stdio_output@@QEAAHXZ 0000000180022650 f i libucrt:output.obj
 0001:000218cc       ?state_case_normal@?$output_processor@DV?$string_output_adapter@D@__crt_stdio_output@@V?$standard_base@DV?$string_output_adapter@D@__crt_stdio_output@@@2@@__crt_stdio_output@@AEAA_NXZ 00000001800228cc f i libucrt:output.obj
 0001:00021940       ?state_case_normal_tchar@?$output_processor@DV?$string_output_adapter@D@__crt_stdio_output@@V?$standard_base@DV?$string_output_adapter@D@__crt_stdio_output@@@2@@__crt_stdio_output@@AEAA_ND@Z 0000000180022940 f i libucrt:output.obj
 0001:000219d8       ?state_case_size@?$output_processor@DV?$string_output_adapter@D@__crt_stdio_output@@V?$standard_base@DV?$string_output_adapter@D@__crt_stdio_output@@@2@@__crt_stdio_output@@AEAA_NXZ 00000001800229d8 f i libucrt:output.obj
 0001:00021b54       ?state_case_size@?$output_processor@_WV?$string_output_adapter@_W@__crt_stdio_output@@V?$standard_base@_WV?$string_output_adapter@_W@__crt_stdio_output@@@2@@__crt_stdio_output@@AEAA_NXZ 0000000180022b54 f i libucrt:output.obj
 0001:00021cf8       ?state_case_type@?$output_processor@DV?$string_output_adapter@D@__crt_stdio_output@@V?$standard_base@DV?$string_output_adapter@D@__crt_stdio_output@@@2@@__crt_stdio_output@@AEAA_NXZ 0000000180022cf8 f i libucrt:output.obj
 0001:00021f74       ?state_case_type@?$output_processor@_WV?$string_output_adapter@_W@__crt_stdio_output@@V?$standard_base@_WV?$string_output_adapter@_W@__crt_stdio_output@@@2@@__crt_stdio_output@@AEAA_NXZ 0000000180022f74 f i libucrt:output.obj
 0001:00022240       ?type_case_Z@?$output_processor@DV?$string_output_adapter@D@__crt_stdio_output@@V?$standard_base@DV?$string_output_adapter@D@__crt_stdio_output@@@2@@__crt_stdio_output@@AEAA_NXZ 0000000180023240 f i libucrt:output.obj
 0001:000222c0       ?type_case_Z@?$output_processor@_WV?$string_output_adapter@_W@__crt_stdio_output@@V?$standard_base@_WV?$string_output_adapter@_W@__crt_stdio_output@@@2@@__crt_stdio_output@@AEAA_NXZ 00000001800232c0 f i libucrt:output.obj
 0001:00022340       ?type_case_a@?$output_processor@DV?$string_output_adapter@D@__crt_stdio_output@@V?$standard_base@DV?$string_output_adapter@D@__crt_stdio_output@@@2@@__crt_stdio_output@@AEAA_NXZ 0000000180023340 f i libucrt:output.obj
 0001:0002255c       ?type_case_a@?$output_processor@_WV?$string_output_adapter@_W@__crt_stdio_output@@V?$standard_base@_WV?$string_output_adapter@_W@__crt_stdio_output@@@2@@__crt_stdio_output@@AEAA_NXZ 000000018002355c f i libucrt:output.obj
 0001:000227a0       ?type_case_c_tchar@?$output_processor@DV?$string_output_adapter@D@__crt_stdio_output@@V?$standard_base@DV?$string_output_adapter@D@__crt_stdio_output@@@2@@__crt_stdio_output@@AEAA_ND@Z 00000001800237a0 f i libucrt:output.obj
 0001:00022854       ?type_case_c_tchar@?$output_processor@_WV?$string_output_adapter@_W@__crt_stdio_output@@V?$standard_base@_WV?$string_output_adapter@_W@__crt_stdio_output@@@2@@__crt_stdio_output@@AEAA_N_W@Z 0000000180023854 f i libucrt:output.obj
 0001:000228fc       ?type_case_integer@?$output_processor@_WV?$string_output_adapter@_W@__crt_stdio_output@@V?$standard_base@_WV?$string_output_adapter@_W@__crt_stdio_output@@@2@@__crt_stdio_output@@AEAA_NI_N@Z 00000001800238fc f i libucrt:output.obj
 0001:000228fc       ?type_case_integer@?$output_processor@DV?$string_output_adapter@D@__crt_stdio_output@@V?$standard_base@DV?$string_output_adapter@D@__crt_stdio_output@@@2@@__crt_stdio_output@@AEAA_NI_N@Z 00000001800238fc f i libucrt:output.obj
 0001:00022a9c       ?type_case_n@?$output_processor@_WV?$string_output_adapter@_W@__crt_stdio_output@@V?$standard_base@_WV?$string_output_adapter@_W@__crt_stdio_output@@@2@@__crt_stdio_output@@AEAA_NXZ 0000000180023a9c f i libucrt:output.obj
 0001:00022a9c       ?type_case_n@?$output_processor@DV?$string_output_adapter@D@__crt_stdio_output@@V?$standard_base@DV?$string_output_adapter@D@__crt_stdio_output@@@2@@__crt_stdio_output@@AEAA_NXZ 0000000180023a9c f i libucrt:output.obj
 0001:00022b78       ?type_case_s@?$output_processor@DV?$string_output_adapter@D@__crt_stdio_output@@V?$standard_base@DV?$string_output_adapter@D@__crt_stdio_output@@@2@@__crt_stdio_output@@AEAA_NXZ 0000000180023b78 f i libucrt:output.obj
 0001:00022c08       ?type_case_s@?$output_processor@_WV?$string_output_adapter@_W@__crt_stdio_output@@V?$standard_base@_WV?$string_output_adapter@_W@__crt_stdio_output@@@2@@__crt_stdio_output@@AEAA_NXZ 0000000180023c08 f i libucrt:output.obj
 0001:00022cd0       ?write_stored_string_tchar@?$output_processor@DV?$string_output_adapter@D@__crt_stdio_output@@V?$standard_base@DV?$string_output_adapter@D@__crt_stdio_output@@@2@@__crt_stdio_output@@AEAA_ND@Z 0000000180023cd0 f i libucrt:output.obj
 0001:00022da8       ?write_stored_string_tchar@?$output_processor@_WV?$string_output_adapter@_W@__crt_stdio_output@@V?$standard_base@_WV?$string_output_adapter@_W@__crt_stdio_output@@@2@@__crt_stdio_output@@AEAA_N_W@Z 0000000180023da8 f i libucrt:output.obj
 0001:00022e98       ?write_string@?$string_output_adapter@D@__crt_stdio_output@@QEBAXQEBDHQEAH1@Z 0000000180023e98 f i libucrt:output.obj
 0001:00022f54       ?write_string@?$string_output_adapter@_W@__crt_stdio_output@@QEBAXQEB_WHQEAH1@Z 0000000180023f54 f i libucrt:output.obj
 0001:00023014       __stdio_common_vsprintf    0000000180024014 f   libucrt:output.obj
 0001:00023248       __stdio_common_vswprintf   0000000180024248 f   libucrt:output.obj
 0001:00023480       ??$is_overflow_condition@K@__crt_strtox@@YA_NIK@Z 0000000180024480 f i libucrt:strtox.obj
 0001:000234ac       ??$make_c_string_character_source@_WPEAPEA_W@__crt_strtox@@YA?AV?$c_string_character_source@_W@0@QEB_WQEAPEA_W@Z 00000001800244ac f i libucrt:strtox.obj
 0001:000234ac       ??$make_c_string_character_source@DPEAPEAD@__crt_strtox@@YA?AV?$c_string_character_source@D@0@QEBDQEAPEAD@Z 00000001800244ac f i libucrt:strtox.obj
 0001:000234c0       ??$parse_integer@KV?$c_string_character_source@D@__crt_strtox@@@__crt_strtox@@YAKQEAU__crt_locale_pointers@@V?$c_string_character_source@D@0@H_N@Z 00000001800244c0 f i libucrt:strtox.obj
 0001:000237d4       ??$parse_integer@KV?$c_string_character_source@_W@__crt_strtox@@@__crt_strtox@@YAKQEAU__crt_locale_pointers@@V?$c_string_character_source@_W@0@H_N@Z 00000001800247d4 f i libucrt:strtox.obj
 0001:00023ea8       strtol                     0000000180024ea8 f   libucrt:strtox.obj
 0001:00023ed8       wcstol                     0000000180024ed8 f   libucrt:strtox.obj
 0001:00023f08       wcsncmp                    0000000180024f08 f   libucrt:wcsncmp.obj
 0001:00023f34       __acrt_call_reportfault    0000000180024f34 f   libucrt:invalid_parameter.obj
 0001:00024090       __acrt_initialize_invalid_parameter_handler 0000000180025090 f   libucrt:invalid_parameter.obj
 0001:00024098       _invalid_parameter         0000000180025098 f   libucrt:invalid_parameter.obj
 0001:00024140       _invalid_parameter_noinfo  0000000180025140 f   libucrt:invalid_parameter.obj
 0001:00024160       _invoke_watson             0000000180025160 f   libucrt:invalid_parameter.obj
 0001:000241a8       __acrt_errno_from_os_error 00000001800251a8 f   libucrt:errno.obj
 0001:000241f0       __acrt_errno_map_os_error  00000001800251f0 f   libucrt:errno.obj
 0001:00024240       __doserrno                 0000000180025240 f   libucrt:errno.obj
 0001:00024260       _errno                     0000000180025260 f   libucrt:errno.obj
 0001:00024280       _initterm                  0000000180025280 f   libucrt:initterm.obj
 0001:000242f8       _initterm_e                00000001800252f8 f   libucrt:initterm.obj
 0001:00024344       _seh_filter_dll            0000000180025344 f   libucrt:exception_filter.obj
 0001:00024358       _seh_filter_exe            0000000180025358 f   libucrt:exception_filter.obj
 0001:00024718       __acrt_initialize_thread_local_exit_callback 0000000180025718 f   libucrt:exit.obj
 0001:00024720       _cexit                     0000000180025720 f   libucrt:exit.obj
 0001:00024730       _exit                      0000000180025730 f   libucrt:exit.obj
 0001:0002473c       _is_c_termination_complete 000000018002573c f   libucrt:exit.obj
 0001:00024900       __acrt_allocate_buffer_for_argv 0000000180025900 f   libucrt:argv_parsing.obj
 0001:00024964       _configure_narrow_argv     0000000180025964 f   libucrt:argv_parsing.obj
 0001:00024cc0       __dcrt_uninitialize_environments_nolock 0000000180025cc0 f   libucrt:environment_initialization.obj
 0001:00024cf8       _initialize_narrow_environment 0000000180025cf8 f   libucrt:environment_initialization.obj
 0001:00024d00       ??$?RV<lambda_b8c45f8f788dd370798f47cfe8ac3a86>@@AEAV<lambda_4e60a939b0d047cfe11ddc22648dfba9>@@V<lambda_332c3edc96d0294ec56c57d38c1cdfd5>@@@?$__crt_seh_guarded_call@H@@QEAAH$$QEAV<lambda_b8c45f8f788dd370798f47cfe8ac3a86>@@AEAV<lambda_4e60a939b0d047cfe11ddc22648dfba9>@@$$QEAV<lambda_332c3edc96d0294ec56c57d38c1cdfd5>@@@Z 0000000180025d00 f i libucrt:onexit.obj
 0001:00024d3c       ??$?RV<lambda_e24bbb7b643b32fcea6fa61b31d4c984>@@AEAV<lambda_275893d493268fdec8709772e3fcec0e>@@V<lambda_9d71df4d7cf3f480f8d633942495c3b0>@@@?$__crt_seh_guarded_call@H@@QEAAH$$QEAV<lambda_e24bbb7b643b32fcea6fa61b31d4c984>@@AEAV<lambda_275893d493268fdec8709772e3fcec0e>@@$$QEAV<lambda_9d71df4d7cf3f480f8d633942495c3b0>@@@Z 0000000180025d3c f i libucrt:onexit.obj
 0001:000250b8       _crt_atexit                00000001800260b8 f   libucrt:onexit.obj
 0001:000250c8       _execute_onexit_table      00000001800260c8 f   libucrt:onexit.obj
 0001:00025104       _initialize_onexit_table   0000000180026104 f   libucrt:onexit.obj
 0001:00025144       _register_onexit_function  0000000180026144 f   libucrt:onexit.obj
 0001:000252c0       __acrt_initialize          00000001800262c0 f   libucrt:initialization.obj
 0001:000252d4       __acrt_thread_attach       00000001800262d4 f   libucrt:initialization.obj
 0001:000252e8       __acrt_thread_detach       00000001800262e8 f   libucrt:initialization.obj
 0001:000252f8       __acrt_uninitialize        00000001800262f8 f   libucrt:initialization.obj
 0001:0002530c       __acrt_uninitialize_critical 000000018002630c f   libucrt:initialization.obj
 0001:0002531c       terminate                  000000018002631c f   libucrt:terminate.obj
 0001:00025344       free                       0000000180026344 f   libucrt:free.obj
 0001:0002534c       malloc                     000000018002634c f   libucrt:malloc.obj
 0001:00025354       strcpy_s                   0000000180026354 f   libucrt:strcpy_s.obj
 0001:000253b4       abort                      00000001800263b4 f   libucrt:abort.obj
 0001:0002540c       calloc                     000000018002640c f   libucrt:calloc.obj
 0001:00025430       strncmp                    0000000180026430 f   libucrt:strncmp.obj
 0001:000254b0       isdigit                    00000001800264b0 f i libucrt:_ctype.obj
 0001:00025574       _tolower_l                 0000000180026574 f   libucrt:tolower_toupper.obj
 0001:000256b4       tolower                    00000001800266b4 f   libucrt:tolower_toupper.obj
 0001:000256e0       _free_base                 00000001800266e0 f   libucrt:free_base.obj
 0001:00025720       _malloc_base               0000000180026720 f   libucrt:malloc_base.obj
 0001:00025780       _mbtowc_l                  0000000180026780 f   libucrt:mbtowc.obj
 0001:000258c8       mbtowc                     00000001800268c8 f   libucrt:mbtowc.obj
 0001:000258d0       _wctomb_s_l                00000001800268d0 f   libucrt:wctomb.obj
 0001:00025a54       wctomb_s                   0000000180026a54 f   libucrt:wctomb.obj
 0001:00025a68       strnlen                    0000000180026a68 f   libucrt:strnlen.obj
 0001:00025bc4       wcsnlen                    0000000180026bc4 f   libucrt:strnlen.obj
 0001:00025db4       ??$?RV<lambda_46352004c1216016012b18bd6f87e700>@@AEAV<lambda_3bd07e1a1191394380780325891bf33f>@@V<lambda_334532d3f185bcaa59b5be82d7d22bff>@@@?$__crt_seh_guarded_call@X@@QEAAX$$QEAV<lambda_46352004c1216016012b18bd6f87e700>@@AEAV<lambda_3bd07e1a1191394380780325891bf33f>@@$$QEAV<lambda_334532d3f185bcaa59b5be82d7d22bff>@@@Z 0000000180026db4 f i libucrt:per_thread_data.obj
 0001:00025e14       ??$?RV<lambda_5e887d1dcbef67a5eb4283622ba103bf>@@AEAV<lambda_4466841279450cc726390878d4a41900>@@V<lambda_341c25c0346d94847f1f3c463c57e077>@@@?$__crt_seh_guarded_call@X@@QEAAX$$QEAV<lambda_5e887d1dcbef67a5eb4283622ba103bf>@@AEAV<lambda_4466841279450cc726390878d4a41900>@@$$QEAV<lambda_341c25c0346d94847f1f3c463c57e077>@@@Z 0000000180026e14 f i libucrt:per_thread_data.obj
 0001:00025e5c       ??$?RV<lambda_72d1df2b273a38828b1ce30cbf4cdab5>@@AEAV<lambda_876a65b173b8412d3a47c70a915b0cf4>@@V<lambda_41932305e351933ebe8f8be3ed8bb5dc>@@@?$__crt_seh_guarded_call@X@@QEAAX$$QEAV<lambda_72d1df2b273a38828b1ce30cbf4cdab5>@@AEAV<lambda_876a65b173b8412d3a47c70a915b0cf4>@@$$QEAV<lambda_41932305e351933ebe8f8be3ed8bb5dc>@@@Z 0000000180026e5c f i libucrt:per_thread_data.obj
 0001:00025e9c       ??$?RV<lambda_fb3a7dec4e47f37f22dae91bb15c9095>@@AEAV<lambda_698284760c8add0bfb0756c19673e34b>@@V<lambda_dfb8eca1e75fef3034a8fb18dd509707>@@@?$__crt_seh_guarded_call@X@@QEAAX$$QEAV<lambda_fb3a7dec4e47f37f22dae91bb15c9095>@@AEAV<lambda_698284760c8add0bfb0756c19673e34b>@@$$QEAV<lambda_dfb8eca1e75fef3034a8fb18dd509707>@@@Z 0000000180026e9c f i libucrt:per_thread_data.obj
 0001:0002612c       __acrt_freeptd             000000018002712c f   libucrt:per_thread_data.obj
 0001:00026170       __acrt_getptd              0000000180027170 f   libucrt:per_thread_data.obj
 0001:00026204       __acrt_getptd_noexit       0000000180027204 f   libucrt:per_thread_data.obj
 0001:000262a4       __acrt_initialize_ptd      00000001800272a4 f   libucrt:per_thread_data.obj
 0001:000262e0       __acrt_uninitialize_ptd    00000001800272e0 f   libucrt:per_thread_data.obj
 0001:00026304       __acrt_update_locale_info  0000000180027304 f   libucrt:locale_update.obj
 0001:00026338       __acrt_update_multibyte_info 0000000180027338 f   libucrt:locale_update.obj
 0001:0002636c       ?__acrt_fp_classify@@YA?AW4__acrt_fp_class@@AEBN@Z 000000018002736c f i libucrt:cvt.obj
 0001:00026da4       __acrt_fp_format           0000000180027da4 f   libucrt:cvt.obj
 0001:00026fe8       _fileno                    0000000180027fe8 f   libucrt:fileno.obj
 0001:00027010       __acrt_initialize_stdio    0000000180028010 f   libucrt:_file.obj
 0001:00027130       __acrt_uninitialize_stdio  0000000180028130 f   libucrt:_file.obj
 0001:0002718c       _lock_file                 000000018002818c f   libucrt:_file.obj
 0001:00027198       _unlock_file               0000000180028198 f   libucrt:_file.obj
 0001:000271a4       _get_printf_count_output   00000001800281a4 f   libucrt:printf_count_output.obj
 0001:000271bc       __acrt_set_locale_changed  00000001800281bc f   libucrt:wsetlocale.obj
 0001:000271c8       __acrt_uninitialize_locale 00000001800281c8 f   libucrt:wsetlocale.obj
 0001:000273f8       __acrt_initialize_lowio    00000001800283f8 f   libucrt:ioinit.obj
 0001:00027434       __acrt_uninitialize_lowio  0000000180028434 f   libucrt:ioinit.obj
 0001:00027474       __pctype_func              0000000180028474 f   libucrt:ctype.obj
 0001:000274a4       iswctype                   00000001800284a4 f   libucrt:iswctype.obj
 0001:00027514       _isctype_l                 0000000180028514 f   libucrt:isctype.obj
 0001:00027624       __acrt_initialize_locks    0000000180028624 f   libucrt:locks.obj
 0001:0002766c       __acrt_lock                000000018002866c f   libucrt:locks.obj
 0001:00027688       __acrt_uninitialize_locks  0000000180028688 f   libucrt:locks.obj
 0001:000276c0       __acrt_unlock              00000001800286c0 f   libucrt:locks.obj
 0001:0002787c       __acrt_FlsAlloc            000000018002887c f   libucrt:winapi_thunks.obj
 0001:000278d4       __acrt_FlsFree             00000001800288d4 f   libucrt:winapi_thunks.obj
 0001:0002792c       __acrt_FlsGetValue         000000018002892c f   libucrt:winapi_thunks.obj
 0001:00027984       __acrt_FlsSetValue         0000000180028984 f   libucrt:winapi_thunks.obj
 0001:000279ec       __acrt_InitializeCriticalSectionEx 00000001800289ec f   libucrt:winapi_thunks.obj
 0001:00027a64       __acrt_LCMapStringEx       0000000180028a64 f   libucrt:winapi_thunks.obj
 0001:00027b54       __acrt_LocaleNameToLCID    0000000180028b54 f   libucrt:winapi_thunks.obj
 0001:00027bbc       __acrt_initialize_winapi_thunks 0000000180028bbc f   libucrt:winapi_thunks.obj
 0001:00027bf4       __acrt_is_packaged_app     0000000180028bf4 f   libucrt:winapi_thunks.obj
 0001:00027c7c       __acrt_uninitialize_winapi_thunks 0000000180028c7c f   libucrt:winapi_thunks.obj
 0001:00027cc0       _calloc_base               0000000180028cc0 f   libucrt:calloc_base.obj
 0001:00028214       ?expand_if_necessary@?$argument_list@D@?A0xca0879c4@@AEAAHXZ 0000000180029214 f i libucrt:argv_wildcards.obj
 0001:000282dc       __acrt_expand_narrow_argv_wildcards 00000001800292dc f   libucrt:argv_wildcards.obj
 0001:000282e4       ??$?RV<lambda_99476a1ad63dd22509b5d3e65b0ffc95>@@AEAV<lambda_ad1ced32f4ac17aa236e5ef05d6b3b7c>@@V<lambda_f7424dd8d45958661754dc4f2697e9c3>@@@?$__crt_seh_guarded_call@X@@QEAAX$$QEAV<lambda_99476a1ad63dd22509b5d3e65b0ffc95>@@AEAV<lambda_ad1ced32f4ac17aa236e5ef05d6b3b7c>@@$$QEAV<lambda_f7424dd8d45958661754dc4f2697e9c3>@@@Z 00000001800292e4 f i libucrt:mbctype.obj
 0001:000289e0       __acrt_initialize_multibyte 00000001800299e0 f   libucrt:mbctype.obj
 0001:00028a08       __acrt_update_thread_multibyte_data 0000000180029a08 f   libucrt:mbctype.obj
 0001:00028ac8       _setmbcp_nolock            0000000180029ac8 f   libucrt:mbctype.obj
 0001:00028de8       _ismbblead                 0000000180029de8 f   libucrt:ismbbyte.obj
 0001:00028dfc       __acrt_initialize_command_line 0000000180029dfc f   libucrt:argv_data.obj
 0001:00028e24       __dcrt_get_narrow_environment_from_os 0000000180029e24 f   libucrt:get_environment_from_os.obj
 0001:00028f28       _recalloc                  0000000180029f28 f   libucrt:recalloc.obj
 0001:00028f30       _recalloc_base             0000000180029f30 f   libucrt:recalloc.obj
 0001:00028fc8       __acrt_initialize_heap     0000000180029fc8 f   libucrt:heap_handle.obj
 0001:00028fe4       __acrt_uninitialize_heap   0000000180029fe4 f   libucrt:heap_handle.obj
 0001:00028ff0       __acrt_execute_initializers 0000000180029ff0 f   libucrt:shared_initialization.obj
 0001:00029084       __acrt_execute_uninitializers 000000018002a084 f   libucrt:shared_initialization.obj
 0001:000290d4       __acrt_initialize_new_handler 000000018002a0d4 f   libucrt:new_handler.obj
 0001:000290dc       _callnewh                  000000018002a0dc f   libucrt:new_handler.obj
 0001:0002911c       _query_new_handler         000000018002a11c f   libucrt:new_handler.obj
 0001:00029150       ??$?RV<lambda_c36588078e9f5dfd39652860aa6b3aaf>@@AEAV<lambda_ec61778202f4f5fc7e7711acc23c3bca>@@V<lambda_dc9d2797ccde5d239b4a0efae8ebd7db>@@@?$__crt_seh_guarded_call@P6AXH@Z@@QEAAP6AXH@Z$$QEAV<lambda_c36588078e9f5dfd39652860aa6b3aaf>@@AEAV<lambda_ec61778202f4f5fc7e7711acc23c3bca>@@$$QEAV<lambda_dc9d2797ccde5d239b4a0efae8ebd7db>@@@Z 000000018002a150 f i libucrt:signal.obj
 0001:00029198       __acrt_get_sigabrt_handler 000000018002a198 f   libucrt:signal.obj
 0001:000291c8       __acrt_initialize_signal_handlers 000000018002a1c8 f   libucrt:signal.obj
 0001:000291e8       raise                      000000018002a1e8 f   libucrt:signal.obj
 0001:00029484       __acrt_has_user_matherr    000000018002a484 f   libucrt:matherr.obj
 0001:000294a4       __acrt_initialize_user_matherr 000000018002a4a4 f   libucrt:matherr.obj
 0001:000294ac       __acrt_invoke_user_matherr 000000018002a4ac f   libucrt:matherr.obj
 0001:000294f4       _isleadbyte_l              000000018002a4f4 f i libucrt:_wctype.obj
 0001:00029890       __acrt_LCMapStringA        000000018002a890 f   libucrt:lcmapstringa.obj
 0001:00029928       _query_new_mode            000000018002a928 f   libucrt:new_mode.obj
 0001:00029930       __acrt_add_locale_ref      000000018002a930 f   libucrt:locale_refcounting.obj
 0001:000299bc       __acrt_free_locale         000000018002a9bc f   libucrt:locale_refcounting.obj
 0001:00029b34       __acrt_locale_add_lc_time_reference 000000018002ab34 f   libucrt:locale_refcounting.obj
 0001:00029b5c       __acrt_locale_free_lc_time_if_unreferenced 000000018002ab5c f   libucrt:locale_refcounting.obj
 0001:00029b94       __acrt_locale_release_lc_time_reference 000000018002ab94 f   libucrt:locale_refcounting.obj
 0001:00029bbc       __acrt_release_locale_ref  000000018002abbc f   libucrt:locale_refcounting.obj
 0001:00029c64       __acrt_update_thread_locale_data 000000018002ac64 f   libucrt:locale_refcounting.obj
 0001:00029cd4       _updatetlocinfoEx_nolock   000000018002acd4 f   libucrt:locale_refcounting.obj
 0001:00029d3c       __acrt_fp_strflt_to_string 000000018002ad3c f   libucrt:_fptostr.obj
 0001:00029e00       ?divide@__crt_strtox@@YA_KAEAUbig_integer@1@AEBU21@@Z 000000018002ae00 f i libucrt:cfout.obj
 0001:0002a2d0       __acrt_fltout              000000018002b2d0 f   libucrt:cfout.obj
 0001:0002b6c4       _fcloseall                 000000018002c6c4 f   libucrt:closeall.obj
 0001:0002b778       __acrt_stdio_flush_nolock  000000018002c778 f   libucrt:fflush.obj
 0001:0002b7f0       _fflush_nolock             000000018002c7f0 f   libucrt:fflush.obj
 0001:0002b83c       _flushall                  000000018002c83c f   libucrt:fflush.obj
 0001:0002b92c       __acrt_stdio_free_buffer_nolock 000000018002c92c f   libucrt:_freebuf.obj
 0001:0002b96c       _isatty                    000000018002c96c f   libucrt:isatty.obj
 0001:0002b9cc       __acrt_locale_free_monetary 000000018002c9cc f   libucrt:initmon.obj
 0001:0002bad8       __acrt_locale_free_numeric 000000018002cad8 f   libucrt:initnum.obj
 0001:0002bb9c       __acrt_locale_free_time    000000018002cb9c f   libucrt:inittime.obj
 0001:0002bca4       __acrt_GetStringTypeA      000000018002cca4 f   libucrt:getstringtypea.obj
 0001:0002be58       __acrt_lowio_create_handle_array 000000018002ce58 f   libucrt:osfinfo.obj
 0001:0002bef0       __acrt_lowio_destroy_handle_array 000000018002cef0 f   libucrt:osfinfo.obj
 0001:0002bf40       __acrt_lowio_ensure_fh_exists 000000018002cf40 f   libucrt:osfinfo.obj
 0001:0002bff8       __acrt_lowio_lock_fh       000000018002cff8 f   libucrt:osfinfo.obj
 0001:0002c01c       __acrt_lowio_unlock_fh     000000018002d01c f   libucrt:osfinfo.obj
 0001:0002c040       _free_osfhnd               000000018002d040 f   libucrt:osfinfo.obj
 0001:0002c0fc       _get_osfhandle             000000018002d0fc f   libucrt:osfinfo.obj
 0001:0002c23c       __acrt_DownlevelLocaleNameToLCID 000000018002d23c f   libucrt:lcidtoname_downlevel.obj
 0001:0002c340       qsort                      000000018002d340 f   libucrt:qsort.obj
 0001:0002c674       strncpy_s                  000000018002d674 f   libucrt:strncpy_s.obj
 0001:0002c748       strpbrk                    000000018002d748 f   libucrt:strpbrk.obj
 0001:0002c7e8       _mbsdec                    000000018002d7e8 f   libucrt:mbsdec.obj
 0001:0002c7f0       _mbsdec_l                  000000018002d7f0 f   libucrt:mbsdec.obj
 0001:0002c8a0       _msize                     000000018002d8a0 f   libucrt:msize.obj
 0001:0002c8dc       _realloc_base              000000018002d8dc f   libucrt:realloc_base.obj
 0001:0002c960       __strncnt                  000000018002d960 f   libucrt:strncnt.obj
 0001:0002c978       fegetenv                   000000018002d978 f   libucrt:fegetenv.obj
 0001:0002c998       fesetenv                   000000018002d998 f   libucrt:fesetenv.obj
 0001:0002c9e4       feholdexcept               000000018002d9e4 f   libucrt:feholdexcept.obj
 0001:0002ca34       ceil                       000000018002da34 f   libucrt:ceil.obj
 0001:0002cb00       log10                      000000018002db00 f   libucrt:log10.obj
 0001:0002d64c       _write                     000000018002e64c f   libucrt:write.obj
 0001:0002d738       _write_nolock              000000018002e738 f   libucrt:write.obj
 0001:0002dab8       _lseeki64_nolock           000000018002eab8 f   libucrt:lseek.obj
 0001:0002dac0       _fclose_nolock             000000018002eac0 f   libucrt:fclose.obj
 0001:0002db44       fclose                     000000018002eb44 f   libucrt:fclose.obj
 0001:0002dbb0       ??$?RV<lambda_b521505b218e5242e90febf6bfebc422>@@AEAV<lambda_6978c1fb23f02e42e1d9e99668cc68aa>@@V<lambda_314360699dd331753a4119843814e9a7>@@@?$__crt_seh_guarded_call@H@@QEAAH$$QEAV<lambda_b521505b218e5242e90febf6bfebc422>@@AEAV<lambda_6978c1fb23f02e42e1d9e99668cc68aa>@@$$QEAV<lambda_314360699dd331753a4119843814e9a7>@@@Z 000000018002ebb0 f i libucrt:commit.obj
 0001:0002dc3c       _commit                    000000018002ec3c f   libucrt:commit.obj
 0001:0002dcd0       _query_app_type            000000018002ecd0 f   libucrt:report_runtime_error.obj
 0001:0002dcd8       _getfpcontrolword          000000018002ecd8 f   libucrt:_fenvutils.obj
 0001:0002dcf0       _getfpstatusword           000000018002ecf0 f   libucrt:_fenvutils.obj
 0001:0002dd04       _setfpcontrolword          000000018002ed04 f   libucrt:_fenvutils.obj
 0001:0002dd10       _setfpstatusword           000000018002ed10 f   libucrt:_fenvutils.obj
 0001:0002dd60       _clearfp                   000000018002ed60 f   libucrt:ieee.obj
 0001:0002ddb4       _controlfp                 000000018002edb4 f   libucrt:ieee.obj
 0001:0002ddc0       _statusfp                  000000018002edc0 f   libucrt:ieee.obj
 0001:0002e1c4       _handle_error              000000018002f1c4 f   libucrt:libm_error.obj
 0001:0002e2ec       _handle_nan                000000018002f2ec f   libucrt:libm_error.obj
 0001:0002e310       __acrt_initialize_fma3     000000018002f310 f   libucrt:fma3_available.obj
 0001:0002e380       _log10_special             000000018002f380 f   libucrt:log_special.obj
 0001:0002e438       _putwch_nolock             000000018002f438 f   libucrt:putwch.obj
 0001:0002e494       ??$?RV<lambda_bfedae4ebbf01fab1bb6dcc6a9e276e0>@@AEAV<lambda_2fe9b910cf3cbf4a0ab98a02ba45b3ec>@@V<lambda_237c231691f317818eb88cc1d5d642d6>@@@?$__crt_seh_guarded_call@H@@QEAAH$$QEAV<lambda_bfedae4ebbf01fab1bb6dcc6a9e276e0>@@AEAV<lambda_2fe9b910cf3cbf4a0ab98a02ba45b3ec>@@$$QEAV<lambda_237c231691f317818eb88cc1d5d642d6>@@@Z 000000018002f494 f i libucrt:close.obj
 0001:0002e508       _close                     000000018002f508 f   libucrt:close.obj
 0001:0002e5ac       _close_nolock              000000018002f5ac f   libucrt:close.obj
 0001:0002e668       ?__acrt_stdio_free_stream@@YAXV__crt_stdio_stream@@@Z 000000018002f668 f   libucrt:stream.obj
 0001:0002e6c0       _get_fpsr                  000000018002f6c0 f   libucrt:fpsr.obj
 0001:0002e6d0       _set_fpsr                  000000018002f6d0 f   libucrt:fpsr.obj
 0001:0002e6da       _fclrf                     000000018002f6da f   libucrt:fpsr.obj
 0001:0002e6ee       _frnd                      000000018002f6ee f   libucrt:fpsr.obj
 0001:0002e710       _raise_exc                 000000018002f710 f   libucrt:fpexcept.obj
 0001:0002e738       _raise_exc_ex              000000018002f738 f   libucrt:fpexcept.obj
 0001:0002ea40       _set_errno_from_matherr    000000018002fa40 f   libucrt:fpexcept.obj
 0001:0002ea70       _clrfp                     000000018002fa70 f   libucrt:fpctrl.obj
 0001:0002ea90       _ctrlfp                    000000018002fa90 f   libucrt:fpctrl.obj
 0001:0002eb0c       _set_statfp                000000018002fb0c f   libucrt:fpctrl.obj
 0001:0002eb2c       _statfp                    000000018002fb2c f   libucrt:fpctrl.obj
 0001:0002eb40       __dcrt_lowio_initialize_console_output 000000018002fb40 f   libucrt:initcon.obj
 0001:0002eb7c       __dcrt_terminate_console_output 000000018002fb7c f   libucrt:initcon.obj
 0001:0002eb9c       Process32FirstW            000000018002fb9c f   kernel32:KERNEL32.dll
 0001:0002eba2       Process32NextW             000000018002fba2 f   kernel32:KERNEL32.dll
 0001:0002eba8       IsProcessorFeaturePresent  000000018002fba8 f   kernel32:KERNEL32.dll
 0001:0002ebb0       ?apiGetConsoleFontSize@@YAHPEAXAEAH1AEAY0CA@_W@Z 000000018002fbb0 f   common-kernel64:WConsole.obj
 0001:0002ec78       ?apiGetCurrentConsoleFontEx@@YAHPEAXHPEAUMY_CONSOLE_FONT_INFOEX@@@Z 000000018002fc78 f   common-kernel64:WConsole.obj
 0001:0002ecf4       ?apiSetConsoleFontSize@@YAHPEAXHHPEB_W@Z 000000018002fcf4 f   common-kernel64:WConsole.obj
 0001:0002ee60       ?apiSetCurrentConsoleFontEx@@YAHPEAXHPEAUMY_CONSOLE_FONT_INFOEX@@@Z 000000018002fe60 f   common-kernel64:WConsole.obj
 0001:0002eee0       _FindPESection             000000018002fee0 f   LIBCMT:pesect.obj
 0001:0002ef30       _IsNonwritableInCurrentImage 000000018002ff30 f   LIBCMT:pesect.obj
 0001:0002ef80       _ValidateImageBase         000000018002ff80 f   LIBCMT:pesect.obj
 0001:0002efc0       _guard_dispatch_icall_nop  000000018002ffc0 f   LIBCMT:guard_dispatch.obj
 0002:00000000       __imp_RegQueryValueExW     0000000180031000     advapi32:ADVAPI32.dll
 0002:00000008       __imp_RegOpenKeyExW        0000000180031008     advapi32:ADVAPI32.dll
 0002:00000010       __imp_RegCloseKey          0000000180031010     advapi32:ADVAPI32.dll
 0002:00000018       __imp_RegCreateKeyExW      0000000180031018     advapi32:ADVAPI32.dll
 0002:00000020       \177ADVAPI32_NULL_THUNK_DATA 0000000180031020     advapi32:ADVAPI32.dll
 0002:00000028       __imp_GdiFlush             0000000180031028     gdi32:GDI32.dll
 0002:00000030       __imp_GetEnhMetaFileBits   0000000180031030     gdi32:GDI32.dll
 0002:00000038       __imp_DeleteEnhMetaFile    0000000180031038     gdi32:GDI32.dll
 0002:00000040       __imp_CreateEnhMetaFileW   0000000180031040     gdi32:GDI32.dll
 0002:00000048       __imp_CloseEnhMetaFile     0000000180031048     gdi32:GDI32.dll
 0002:00000050       __imp_GetDeviceCaps        0000000180031050     gdi32:GDI32.dll
 0002:00000058       __imp_DeleteObject         0000000180031058     gdi32:GDI32.dll
 0002:00000060       __imp_CreateSolidBrush     0000000180031060     gdi32:GDI32.dll
 0002:00000068       __imp_CreateCompatibleDC   0000000180031068     gdi32:GDI32.dll
 0002:00000070       __imp_CreateFontIndirectW  0000000180031070     gdi32:GDI32.dll
 0002:00000078       __imp_DeleteDC             0000000180031078     gdi32:GDI32.dll
 0002:00000080       __imp_SelectObject         0000000180031080     gdi32:GDI32.dll
 0002:00000088       __imp_GetTextMetricsW      0000000180031088     gdi32:GDI32.dll
 0002:00000090       \177GDI32_NULL_THUNK_DATA  0000000180031090     gdi32:GDI32.dll
 0002:00000098       __imp_SuspendThread        0000000180031098     kernel32:KERNEL32.dll
 0002:000000a0       __imp_ResumeThread         00000001800310a0     kernel32:KERNEL32.dll
 0002:000000a8       __imp_IsDebuggerPresent    00000001800310a8     kernel32:KERNEL32.dll
 0002:000000b0       __imp_SetEvent             00000001800310b0     kernel32:KERNEL32.dll
 0002:000000b8       __imp_ResetEvent           00000001800310b8     kernel32:KERNEL32.dll
 0002:000000c0       __imp_ReleaseSemaphore     00000001800310c0     kernel32:KERNEL32.dll
 0002:000000c8       __imp_WaitForSingleObject  00000001800310c8     kernel32:KERNEL32.dll
 0002:000000d0       __imp_WaitForMultipleObjects 00000001800310d0     kernel32:KERNEL32.dll
 0002:000000d8       __imp_Sleep                00000001800310d8     kernel32:KERNEL32.dll
 0002:000000e0       __imp_GetStdHandle         00000001800310e0     kernel32:KERNEL32.dll
 0002:000000e8       __imp_GetTickCount         00000001800310e8     kernel32:KERNEL32.dll
 0002:000000f0       __imp_MapViewOfFile        00000001800310f0     kernel32:KERNEL32.dll
 0002:000000f8       __imp_UnmapViewOfFile      00000001800310f8     kernel32:KERNEL32.dll
 0002:00000100       __imp_lstrcmpW             0000000180031100     kernel32:KERNEL32.dll
 0002:00000108       __imp_lstrcmpiW            0000000180031108     kernel32:KERNEL32.dll
 0002:00000110       __imp_lstrcatW             0000000180031110     kernel32:KERNEL32.dll
 0002:00000118       __imp_CreateEventW         0000000180031118     kernel32:KERNEL32.dll
 0002:00000120       __imp_CreateSemaphoreW     0000000180031120     kernel32:KERNEL32.dll
 0002:00000128       __imp_CreateFileMappingW   0000000180031128     kernel32:KERNEL32.dll
 0002:00000130       __imp_OpenFileMappingW     0000000180031130     kernel32:KERNEL32.dll
 0002:00000138       __imp_GetModuleFileNameW   0000000180031138     kernel32:KERNEL32.dll
 0002:00000140       __imp_CreateProcessW       0000000180031140     kernel32:KERNEL32.dll
 0002:00000148       __imp_GetEnvironmentVariableW 0000000180031148     kernel32:KERNEL32.dll
 0002:00000150       __imp_DeleteFileW          0000000180031150     kernel32:KERNEL32.dll
 0002:00000158       __imp_IsBadStringPtrW      0000000180031158     kernel32:KERNEL32.dll
 0002:00000160       __imp_PeekConsoleInputW    0000000180031160     kernel32:KERNEL32.dll
 0002:00000168       __imp_ReadConsoleInputW    0000000180031168     kernel32:KERNEL32.dll
 0002:00000170       __imp_WriteConsoleInputW   0000000180031170     kernel32:KERNEL32.dll
 0002:00000178       __imp_GetConsoleMode       0000000180031178     kernel32:KERNEL32.dll
 0002:00000180       __imp_lstrcpynW            0000000180031180     kernel32:KERNEL32.dll
 0002:00000188       __imp_GetConsoleScreenBufferInfo 0000000180031188     kernel32:KERNEL32.dll
 0002:00000190       __imp_GetConsoleCursorInfo 0000000180031190     kernel32:KERNEL32.dll
 0002:00000198       __imp_SetConsoleMode       0000000180031198     kernel32:KERNEL32.dll
 0002:000001a0       __imp_SetLastError         00000001800311a0     kernel32:KERNEL32.dll
 0002:000001a8       __imp_SetConsoleTitleW     00000001800311a8     kernel32:KERNEL32.dll
 0002:000001b0       __imp_CreateToolhelp32Snapshot 00000001800311b0     kernel32:KERNEL32.dll
 0002:000001b8       __imp_Thread32First        00000001800311b8     kernel32:KERNEL32.dll
 0002:000001c0       __imp_Thread32Next         00000001800311c0     kernel32:KERNEL32.dll
 0002:000001c8       __imp_Module32FirstW       00000001800311c8     kernel32:KERNEL32.dll
 0002:000001d0       __imp_Module32NextW        00000001800311d0     kernel32:KERNEL32.dll
 0002:000001d8       __imp_SetThreadPriority    00000001800311d8     kernel32:KERNEL32.dll
 0002:000001e0       __imp_GetExitCodeThread    00000001800311e0     kernel32:KERNEL32.dll
 0002:000001e8       __imp_GetOverlappedResult  00000001800311e8     kernel32:KERNEL32.dll
 0002:000001f0       __imp_WriteFile            00000001800311f0     kernel32:KERNEL32.dll
 0002:000001f8       __imp_ReadFile             00000001800311f8     kernel32:KERNEL32.dll
 0002:00000200       __imp_FlushFileBuffers     0000000180031200     kernel32:KERNEL32.dll
 0002:00000208       __imp_ConnectNamedPipe     0000000180031208     kernel32:KERNEL32.dll
 0002:00000210       __imp_DisconnectNamedPipe  0000000180031210     kernel32:KERNEL32.dll
 0002:00000218       __imp_CreateNamedPipeW     0000000180031218     kernel32:KERNEL32.dll
 0002:00000220       __imp_CloseHandle          0000000180031220     kernel32:KERNEL32.dll
 0002:00000228       __imp_VirtualProtect       0000000180031228     kernel32:KERNEL32.dll
 0002:00000230       __imp_GetModuleHandleW     0000000180031230     kernel32:KERNEL32.dll
 0002:00000238       __imp_LoadLibraryW         0000000180031238     kernel32:KERNEL32.dll
 0002:00000240       __imp_GetLastError         0000000180031240     kernel32:KERNEL32.dll
 0002:00000248       __imp_GetCurrentProcessId  0000000180031248     kernel32:KERNEL32.dll
 0002:00000250       __imp_GetProcAddress       0000000180031250     kernel32:KERNEL32.dll
 0002:00000258       __imp_GetCurrentThreadId   0000000180031258     kernel32:KERNEL32.dll
 0002:00000260       __imp_GetEnvironmentStringsW 0000000180031260     kernel32:KERNEL32.dll
 0002:00000268       __imp_GetExitCodeProcess   0000000180031268     kernel32:KERNEL32.dll
 0002:00000270       __imp_TerminateProcess     0000000180031270     kernel32:KERNEL32.dll
 0002:00000278       __imp_GetCurrentProcess    0000000180031278     kernel32:KERNEL32.dll
 0002:00000280       __imp_WriteConsoleW        0000000180031280     kernel32:KERNEL32.dll
 0002:00000288       __imp_SetFilePointerEx     0000000180031288     kernel32:KERNEL32.dll
 0002:00000290       __imp_WideCharToMultiByte  0000000180031290     kernel32:KERNEL32.dll
 0002:00000298       __imp_MultiByteToWideChar  0000000180031298     kernel32:KERNEL32.dll
 0002:000002a0       __imp_lstrlenA             00000001800312a0     kernel32:KERNEL32.dll
 0002:000002a8       __imp_lstrcpyA             00000001800312a8     kernel32:KERNEL32.dll
 0002:000002b0       __imp_lstrcpynA            00000001800312b0     kernel32:KERNEL32.dll
 0002:000002b8       __imp_SetEnvironmentVariableW 00000001800312b8     kernel32:KERNEL32.dll
 0002:000002c0       __imp_lstrlenW             00000001800312c0     kernel32:KERNEL32.dll
 0002:000002c8       __imp_GetConsoleTitleW     00000001800312c8     kernel32:KERNEL32.dll
 0002:000002d0       __imp_lstrcpyW             00000001800312d0     kernel32:KERNEL32.dll
 0002:000002d8       __imp_GetNumberOfConsoleInputEvents 00000001800312d8     kernel32:KERNEL32.dll
 0002:000002e0       __imp_FreeLibrary          00000001800312e0     kernel32:KERNEL32.dll
 0002:000002e8       __imp_HeapCreate           00000001800312e8     kernel32:KERNEL32.dll
 0002:000002f0       __imp_HeapDestroy          00000001800312f0     kernel32:KERNEL32.dll
 0002:000002f8       __imp_HeapAlloc            00000001800312f8     kernel32:KERNEL32.dll
 0002:00000300       __imp_HeapReAlloc          0000000180031300     kernel32:KERNEL32.dll
 0002:00000308       __imp_HeapFree             0000000180031308     kernel32:KERNEL32.dll
 0002:00000310       __imp_HeapSize             0000000180031310     kernel32:KERNEL32.dll
 0002:00000318       __imp_SetNamedPipeHandleState 0000000180031318     kernel32:KERNEL32.dll
 0002:00000320       __imp_TransactNamedPipe    0000000180031320     kernel32:KERNEL32.dll
 0002:00000328       __imp_CreateFileW          0000000180031328     kernel32:KERNEL32.dll
 0002:00000330       __imp_WaitNamedPipeW       0000000180031330     kernel32:KERNEL32.dll
 0002:00000338       __imp_GetConsoleWindow     0000000180031338     kernel32:KERNEL32.dll
 0002:00000340       __imp_DebugBreak           0000000180031340     kernel32:KERNEL32.dll
 0002:00000348       __imp_RaiseException       0000000180031348     kernel32:KERNEL32.dll
 0002:00000350       __imp_CreateThread         0000000180031350     kernel32:KERNEL32.dll
 0002:00000358       __imp_TerminateThread      0000000180031358     kernel32:KERNEL32.dll
 0002:00000360       __imp_FreeEnvironmentStringsW 0000000180031360     kernel32:KERNEL32.dll
 0002:00000368       __imp_ExpandEnvironmentStringsW 0000000180031368     kernel32:KERNEL32.dll
 0002:00000370       __imp_VerSetConditionMask  0000000180031370     kernel32:KERNEL32.dll
 0002:00000378       __imp_GetConsoleCP         0000000180031378     kernel32:KERNEL32.dll
 0002:00000380       __imp_LocalAlloc           0000000180031380     kernel32:KERNEL32.dll
 0002:00000388       __imp_LocalFree            0000000180031388     kernel32:KERNEL32.dll
 0002:00000390       __imp_GetFileInformationByHandle 0000000180031390     kernel32:KERNEL32.dll
 0002:00000398       __imp_FindClose            0000000180031398     kernel32:KERNEL32.dll
 0002:000003a0       __imp_FindFirstFileW       00000001800313a0     kernel32:KERNEL32.dll
 0002:000003a8       __imp_FindNextFileW        00000001800313a8     kernel32:KERNEL32.dll
 0002:000003b0       __imp_VerifyVersionInfoW   00000001800313b0     kernel32:KERNEL32.dll
 0002:000003b8       __imp_Process32FirstW      00000001800313b8     kernel32:KERNEL32.dll
 0002:000003c0       __imp_Process32NextW       00000001800313c0     kernel32:KERNEL32.dll
 0002:000003c8       __imp_OpenThread           00000001800313c8     kernel32:KERNEL32.dll
 0002:000003d0       __imp_VirtualAlloc         00000001800313d0     kernel32:KERNEL32.dll
 0002:000003d8       __imp_VirtualFree          00000001800313d8     kernel32:KERNEL32.dll
 0002:000003e0       __imp_GetSystemInfo        00000001800313e0     kernel32:KERNEL32.dll
 0002:000003e8       __imp_IsBadReadPtr         00000001800313e8     kernel32:KERNEL32.dll
 0002:000003f0       __imp_InitializeCriticalSection 00000001800313f0     kernel32:KERNEL32.dll
 0002:000003f8       __imp_EnterCriticalSection 00000001800313f8     kernel32:KERNEL32.dll
 0002:00000400       __imp_LeaveCriticalSection 0000000180031400     kernel32:KERNEL32.dll
 0002:00000408       __imp_TryEnterCriticalSection 0000000180031408     kernel32:KERNEL32.dll
 0002:00000410       __imp_DeleteCriticalSection 0000000180031410     kernel32:KERNEL32.dll
 0002:00000418       __imp_ReleaseMutex         0000000180031418     kernel32:KERNEL32.dll
 0002:00000420       __imp_CreateMutexW         0000000180031420     kernel32:KERNEL32.dll
 0002:00000428       __imp_GetConsoleOutputCP   0000000180031428     kernel32:KERNEL32.dll
 0002:00000430       __imp_GetStartupInfoW      0000000180031430     kernel32:KERNEL32.dll
 0002:00000438       __imp_InitializeCriticalSectionAndSpinCount 0000000180031438     kernel32:KERNEL32.dll
 0002:00000440       __imp_WaitForSingleObjectEx 0000000180031440     kernel32:KERNEL32.dll
 0002:00000448       __imp_RtlCaptureContext    0000000180031448     kernel32:KERNEL32.dll
 0002:00000450       __imp_RtlLookupFunctionEntry 0000000180031450     kernel32:KERNEL32.dll
 0002:00000458       __imp_RtlVirtualUnwind     0000000180031458     kernel32:KERNEL32.dll
 0002:00000460       __imp_UnhandledExceptionFilter 0000000180031460     kernel32:KERNEL32.dll
 0002:00000468       __imp_SetUnhandledExceptionFilter 0000000180031468     kernel32:KERNEL32.dll
 0002:00000470       __imp_IsProcessorFeaturePresent 0000000180031470     kernel32:KERNEL32.dll
 0002:00000478       __imp_QueryPerformanceCounter 0000000180031478     kernel32:KERNEL32.dll
 0002:00000480       __imp_GetSystemTimeAsFileTime 0000000180031480     kernel32:KERNEL32.dll
 0002:00000488       __imp_InitializeSListHead  0000000180031488     kernel32:KERNEL32.dll
 0002:00000490       __imp_RtlUnwindEx          0000000180031490     kernel32:KERNEL32.dll
 0002:00000498       __imp_RtlPcToFileHeader    0000000180031498     kernel32:KERNEL32.dll
 0002:000004a0       __imp_InterlockedFlushSList 00000001800314a0     kernel32:KERNEL32.dll
 0002:000004a8       __imp_EncodePointer        00000001800314a8     kernel32:KERNEL32.dll
 0002:000004b0       __imp_TlsAlloc             00000001800314b0     kernel32:KERNEL32.dll
 0002:000004b8       __imp_TlsGetValue          00000001800314b8     kernel32:KERNEL32.dll
 0002:000004c0       __imp_TlsSetValue          00000001800314c0     kernel32:KERNEL32.dll
 0002:000004c8       __imp_TlsFree              00000001800314c8     kernel32:KERNEL32.dll
 0002:000004d0       __imp_LoadLibraryExW       00000001800314d0     kernel32:KERNEL32.dll
 0002:000004d8       __imp_ExitProcess          00000001800314d8     kernel32:KERNEL32.dll
 0002:000004e0       __imp_GetModuleHandleExW   00000001800314e0     kernel32:KERNEL32.dll
 0002:000004e8       __imp_GetModuleFileNameA   00000001800314e8     kernel32:KERNEL32.dll
 0002:000004f0       __imp_GetACP               00000001800314f0     kernel32:KERNEL32.dll
 0002:000004f8       __imp_GetFileType          00000001800314f8     kernel32:KERNEL32.dll
 0002:00000500       __imp_GetStringTypeW       0000000180031500     kernel32:KERNEL32.dll
 0002:00000508       __imp_LCMapStringW         0000000180031508     kernel32:KERNEL32.dll
 0002:00000510       __imp_FindFirstFileExA     0000000180031510     kernel32:KERNEL32.dll
 0002:00000518       __imp_FindNextFileA        0000000180031518     kernel32:KERNEL32.dll
 0002:00000520       __imp_IsValidCodePage      0000000180031520     kernel32:KERNEL32.dll
 0002:00000528       __imp_GetOEMCP             0000000180031528     kernel32:KERNEL32.dll
 0002:00000530       __imp_GetCPInfo            0000000180031530     kernel32:KERNEL32.dll
 0002:00000538       __imp_GetCommandLineA      0000000180031538     kernel32:KERNEL32.dll
 0002:00000540       __imp_GetCommandLineW      0000000180031540     kernel32:KERNEL32.dll
 0002:00000548       __imp_GetProcessHeap       0000000180031548     kernel32:KERNEL32.dll
 0002:00000550       __imp_SetStdHandle         0000000180031550     kernel32:KERNEL32.dll
 0002:00000558       \177KERNEL32_NULL_THUNK_DATA 0000000180031558     kernel32:KERNEL32.dll
 0002:00000560       __imp_FillRect             0000000180031560     user32:USER32.dll
 0002:00000568       __imp_ReleaseDC            0000000180031568     user32:USER32.dll
 0002:00000570       __imp_GetClassNameW        0000000180031570     user32:USER32.dll
 0002:00000578       __imp_GetSystemMetrics     0000000180031578     user32:USER32.dll
 0002:00000580       __imp_FindWindowW          0000000180031580     user32:USER32.dll
 0002:00000588       __imp_SetWindowPos         0000000180031588     user32:USER32.dll
 0002:00000590       __imp_EnableWindow         0000000180031590     user32:USER32.dll
 0002:00000598       __imp_IsWindowEnabled      0000000180031598     user32:USER32.dll
 0002:000005a0       __imp_GetWindowRect        00000001800315a0     user32:USER32.dll
 0002:000005a8       __imp_MonitorFromWindow    00000001800315a8     user32:USER32.dll
 0002:000005b0       __imp_GetMonitorInfoW      00000001800315b0     user32:USER32.dll
 0002:000005b8       __imp_SendMessageW         00000001800315b8     user32:USER32.dll
 0002:000005c0       __imp_ShowWindow           00000001800315c0     user32:USER32.dll
 0002:000005c8       __imp_ShowWindowAsync      00000001800315c8     user32:USER32.dll
 0002:000005d0       __imp_LoadKeyboardLayoutW  00000001800315d0     user32:USER32.dll
 0002:000005d8       __imp_IsRectEmpty          00000001800315d8     user32:USER32.dll
 0002:000005e0       __imp_EnumDisplayMonitors  00000001800315e0     user32:USER32.dll
 0002:000005e8       __imp_GetDC                00000001800315e8     user32:USER32.dll
 0002:000005f0       __imp_GetWindowThreadProcessId 00000001800315f0     user32:USER32.dll
 0002:000005f8       __imp_IsWindowVisible      00000001800315f8     user32:USER32.dll
 0002:00000600       __imp_PostMessageW         0000000180031600     user32:USER32.dll
 0002:00000608       __imp_RegisterWindowMessageW 0000000180031608     user32:USER32.dll
 0002:00000610       __imp_wsprintfW            0000000180031610     user32:USER32.dll
 0002:00000618       __imp_CharUpperBuffW       0000000180031618     user32:USER32.dll
 0002:00000620       __imp_GetParent            0000000180031620     user32:USER32.dll
 0002:00000628       __imp_GetWindowLongPtrW    0000000180031628     user32:USER32.dll
 0002:00000630       __imp_IsWindow             0000000180031630     user32:USER32.dll
 0002:00000638       __imp_MessageBoxW          0000000180031638     user32:USER32.dll
 0002:00000640       __imp_ActivateKeyboardLayout 0000000180031640     user32:USER32.dll
 0002:00000648       \177USER32_NULL_THUNK_DATA 0000000180031648     user32:USER32.dll
 0002:00000650       __imp_VerQueryValueW       0000000180031650     version:VERSION.dll
 0002:00000658       __imp_GetFileVersionInfoW  0000000180031658     version:VERSION.dll
 0002:00000660       __imp_GetFileVersionInfoSizeW 0000000180031660     version:VERSION.dll
 0002:00000668       \177VERSION_NULL_THUNK_DATA 0000000180031668     version:VERSION.dll
 0002:00000670       __guard_check_icall_fptr   0000000180031670     LIBCMT:guard_support.obj
 0002:00000678       __guard_dispatch_icall_fptr 0000000180031678     LIBCMT:guard_support.obj
 0002:00000680       __xc_a                     0000000180031680     LIBCMT:initializers.obj
 0002:00000690       __xc_z                     0000000180031690     LIBCMT:initializers.obj
 0002:00000698       __xi_a                     0000000180031698     LIBCMT:initializers.obj
 0002:000006a8       __acrt_stdio_initializer   00000001800316a8     libucrt:stdio_initializer.obj
 0002:000006b0       __acrt_multibyte_initializer 00000001800316b0     libucrt:multibyte_initializer.obj
 0002:000006b8       __acrt_tran_fma3_initializer 00000001800316b8     libucrt:fma3_initializer.obj
 0002:000006c0       __xi_z                     00000001800316c0     LIBCMT:initializers.obj
 0002:000006c8       __xl_a                     00000001800316c8     LIBCMT:tlssup.obj
 0002:000006d0       __xl_z                     00000001800316d0     LIBCMT:tlssup.obj
 0002:000006d8       __xp_a                     00000001800316d8     LIBCMT:initializers.obj
 0002:000006e0       __acrt_locale_terminator   00000001800316e0     libucrt:locale_initializer.obj
 0002:000006e8       __dcrt_console_output_terminator 00000001800316e8     libucrt:console_output_initializer.obj
 0002:000006f0       __acrt_stdio_terminator    00000001800316f0     libucrt:stdio_initializer.obj
 0002:000006f8       __xp_z                     00000001800316f8     LIBCMT:initializers.obj
 0002:00000700       __xt_a                     0000000180031700     LIBCMT:initializers.obj
 0002:00000708       __xt_z                     0000000180031708     LIBCMT:initializers.obj
 0002:00000710       ??_C@_1BO@MLCHEAGG@?$AAC?$AAo?$AAn?$AAE?$AAm?$AAu?$AAH?$AAk?$AA6?$AA4?$AA?4?$AAd?$AAl?$AAl@ 0000000180031710     ConEmuInjects.obj
 0002:00000730       ??_C@_1IM@IDJBHJMA@?$AAC?$AAo?$AAn?$AAE?$AAm?$AAu?$AAH?$AAk?$AA?5?$AAw?$AAa?$AAs?$AA?5?$AAn?$AAo@ 0000000180031730     ConEmuInjects.obj
 0002:000007c0       ??_C@_1BM@LHLFCECN@?$AAC?$AAo?$AAn?$AAE?$AAm?$AAu?$AA?5?$AAp?$AAl?$AAu?$AAg?$AAi?$AAn@ 00000001800317c0     ConEmuInjects.obj
 0002:000007e0       ??_C@_0BB@OPFPFOCM@SetHookCallbacks@ 00000001800317e0     ConEmuInjects.obj
 0002:000007f8       ??_C@_0BH@HLKHEPME@SetLoadLibraryCallback@ 00000001800317f8     ConEmuInjects.obj
 0002:00000810       ??_C@_0P@JOHNNMGG@SetFarHookMode@ 0000000180031810     ConEmuInjects.obj
 0002:00000820       ??_C@_1CM@DEPCLAGE@?$AAC?$AAo?$AAn?$AAE?$AAm?$AAu?$AA?5?$AAp?$AAl?$AAu?$AAg?$AAi?$AAn?$AA?0?$AA?5@ 0000000180031820     ConEmuInjects.obj
 0002:00000850       ??_C@_1CC@JNEFFKJH@?$AAS?$AAe?$AAt?$AAH?$AAo?$AAo?$AAk?$AAC?$AAa?$AAl?$AAl?$AAb?$AAa?$AAc?$AAk@ 0000000180031850     ConEmuInjects.obj
 0002:00000878       ??_C@_1CO@HHOFMBDD@?$AAS?$AAe?$AAt?$AAL?$AAo?$AAa?$AAd?$AAL?$AAi?$AAb?$AAr?$AAa?$AAr?$AAy?$AAC@ 0000000180031878     ConEmuInjects.obj
 0002:000008a8       ??_C@_1BO@OGOEDKED@?$AAS?$AAe?$AAt?$AAF?$AAa?$AAr?$AAH?$AAo?$AAo?$AAk?$AAM?$AAo?$AAd?$AAe@ 00000001800318a8     ConEmuInjects.obj
 0002:000008d0       ??_C@_1FG@GKBMDCCM@?$AAC?$AAo?$AAn?$AAE?$AAm?$AAu?$AAH?$AAk?$AA?5?$AAi?$AAs?$AA?5?$AAb?$AAr?$AAo@ 00000001800318d0     ConEmuInjects.obj
 0002:00000928       ??_C@_1BK@MGMFAEKH@?$AAk?$AAe?$AAr?$AAn?$AAe?$AAl?$AA3?$AA2?$AA?4?$AAd?$AAl?$AAl@ 0000000180031928     ConEmuInjects.obj
 0002:00000948       ??_C@_0M@LAGCIMKJ@FreeConsole@ 0000000180031948     ConEmuInjects.obj
 0002:00000958       ??_C@_0N@MOGGHBHN@AllocConsole@ 0000000180031958     ConEmuInjects.obj
 0002:00000968       ??_C@_0BC@BINPJBNK@PeekConsoleInputA@ 0000000180031968     ConEmuInjects.obj
 0002:00000980       ??_C@_0BC@EEHCEAN@PeekConsoleInputW@ 0000000180031980     ConEmuInjects.obj
 0002:00000998       ??_C@_0BC@JNLCHFED@ReadConsoleInputA@ 0000000180031998     ConEmuInjects.obj
 0002:000009b0       ??_C@_0BC@IBCKMAJE@ReadConsoleInputW@ 00000001800319b0     ConEmuInjects.obj
 0002:000009c8       ??_C@_0BE@PKLMIEOM@WriteConsoleOutputA@ 00000001800319c8     ConEmuInjects.obj
 0002:000009e0       ??_C@_0BE@OGCEDBDL@WriteConsoleOutputW@ 00000001800319e0     ConEmuInjects.obj
 0002:000009f8       ??_C@_0BO@HCPBIAL@GetNumberOfConsoleInputEvents@ 00000001800319f8     ConEmuInjects.obj
 0002:00000a18       ??_C@_1BI@BNFKGMFK@?$AAs?$AAh?$AAe?$AAl?$AAl?$AA3?$AA2?$AA?4?$AAd?$AAl?$AAl@ 0000000180031a18     ConEmuInjects.obj
 0002:00000a30       ??_C@_0BA@LIPPODFA@ShellExecuteExW@ 0000000180031a30     ConEmuInjects.obj
 0002:00000a40       ??_C@_1CM@NELFNPDE@?$AAE?$AAx?$AAt?$AAe?$AAn?$AAd?$AAe?$AAd?$AAC?$AAo?$AAn?$AAs?$AAo?$AAl?$AAe@ 0000000180031a40     ConEmuInjects.obj
 0002:00000a70       ??_C@_0BE@MFLNGBIK@SetConsoleCallbacks@ 0000000180031a70     ConEmuInjects.obj
 0002:00000a88       ??_C@_08BCACMCCB@ExitFARW@ 0000000180031a88     ConEmuPlugin.obj
 0002:00000a98       ??_C@_0BE@PJBDJPG@ProcessEditorEventW@ 0000000180031a98     ConEmuPlugin.obj
 0002:00000ab0       ??_C@_0BE@OMPAFBFG@ProcessViewerEventW@ 0000000180031ab0     ConEmuPlugin.obj
 0002:00000ac8       ??_C@_0BF@NLPJFAHE@ProcessSynchroEventW@ 0000000180031ac8     ConEmuPlugin.obj
 0002:00000b08       ??_C@_1BA@JOPOJEME@?$AAE?$AAx?$AAi?$AAt?$AAF?$AAA?$AAR@ 0000000180031b08     ConEmuPlugin.obj
 0002:00000b18       ??_C@_1BO@LDDOEOAL@?$AAE?$AAx?$AAi?$AAt?$AAF?$AAA?$AAR?$AA?5?$AA?9?$AA?5?$AAd?$AAo?$AAn?$AAe@ 0000000180031b18     ConEmuPlugin.obj
 0002:00000b38       ??_C@_1BC@OCOOMPC@?$AAE?$AAx?$AAi?$AAt?$AAF?$AAA?$AAR?$AAW@ 0000000180031b38     ConEmuPlugin.obj
 0002:00000b50       ??_C@_1CA@IFHGCKFI@?$AAE?$AAx?$AAi?$AAt?$AAF?$AAA?$AAR?$AAW?$AA?5?$AA?9?$AA?5?$AAd?$AAo?$AAn?$AAe@ 0000000180031b50     ConEmuPlugin.obj
 0002:00000b70       ??_C@_1BE@GNKIHEAN@?$AAE?$AAx?$AAi?$AAt?$AAF?$AAA?$AAR?$AAW?$AA3@ 0000000180031b70     ConEmuPlugin.obj
 0002:00000b88       ??_C@_1CC@LCFMKIJA@?$AAE?$AAx?$AAi?$AAt?$AAF?$AAA?$AAR?$AAW?$AA3?$AA?5?$AA?9?$AA?5?$AAd?$AAo?$AAn@ 0000000180031b88     ConEmuPlugin.obj
 0002:00000bac       ??_C@_11LOCGONAA@@         0000000180031bac     ConEmuPlugin1900.obj
 0002:00000bb8       ??_7CPluginW1900@@6B@      0000000180031bb8     ConEmuPlugin1900.obj
 0002:00000ce0       ??_C@_0DO@GILKNHCJ@e?3?2maks?2maximus5?2conemu?2src?2con@ 0000000180031ce0     ConEmuPlugin1900.obj
 0002:00000d20       ??_C@_1O@PICBDAL@?$AAC?$AAo?$AAn?$AAE?$AAm?$AAu@ 0000000180031d20     ConEmuPlugin1900.obj
 0002:00000d30       ??_C@_1BK@BCDKFLCP@?$AAE?$AAx?$AAi?$AAt?$AAF?$AAA?$AAR?$AAW?$AA1?$AA9?$AA0?$AA0@ 0000000180031d30     ConEmuPlugin1900.obj
 0002:00000d50       ??_C@_1CI@OHGGDAJD@?$AAE?$AAx?$AAi?$AAt?$AAF?$AAA?$AAR?$AAW?$AA1?$AA9?$AA0?$AA0?$AA?5?$AA?9?$AA?5@ 0000000180031d50     ConEmuPlugin1900.obj
 0002:00000d78       ??_C@_1M@OKCNCBMD@?$AA$?$AAT?$AAE?$AAX?$AAT@ 0000000180031d78     ConEmuPlugin1900.obj
 0002:00000d88       ??_C@_1O@BBPMHPCD@?$AAp?$AAr?$AAi?$AAn?$AAt?$AA?$CI@ 0000000180031d88     ConEmuPlugin1900.obj
 0002:00000d98       ??_C@_19JPEEHMMI@?$AA?5?$AA?7?$AA?$AN?$AA?6@ 0000000180031d98     ConEmuPlugin1900.obj
 0002:00000da8       ??_C@_1BC@OLJIBFPH@?$AA?0?$AA?5?$AAH?$AAi?$AAn?$AAt?$AA?3?$AA?5@ 0000000180031da8     ConEmuPlugin1900.obj
 0002:00000dc0       ??_C@_1BCK@MAAKAKN@?$AAE?$AAr?$AAr?$AAo?$AAr?$AA?5?$AAi?$AAn?$AA?5?$AAM?$AAa?$AAc?$AAr?$AAo?$AA?4@ 0000000180031dc0     ConEmuPlugin1900.obj
 0002:00000ef0       ??_C@_1OK@GOJADEAC@?$AAE?$AAr?$AAr?$AAo?$AAr?$AA?5?$AAi?$AAn?$AA?5?$AAM?$AAa?$AAc?$AAr?$AAo?$AA?4@ 0000000180031ef0     ConEmuPlugin1900.obj
 0002:00000fe0       ??_C@_0BF@MFOIGNA@BackgroundMacroError@ 0000000180031fe0     ConEmuPlugin1900.obj
 0002:00000ff8       ??_C@_1BI@EKLHEFDO@?$AAS?$AAh?$AAo?$AAw?$AAM?$AAe?$AAn?$AAu?$AAB?$AAa?$AAr@ 0000000180031ff8     ConEmuPlugin1900.obj
 0002:00001010       ??_C@_1O@PDEOIOBG@?$AAK?$AAe?$AAy?$AAB?$AAa?$AAr@ 0000000180032010     ConEmuPlugin1900.obj
 0002:00001020       ??_C@_1BK@MBFACEDG@?$AAC?$AAo?$AAl?$AAu?$AAm?$AAn?$AAT?$AAi?$AAt?$AAl?$AAe?$AAs@ 0000000180032020     ConEmuPlugin1900.obj
 0002:00001040       ??_C@_1BG@MHMKAABO@?$AAS?$AAt?$AAa?$AAt?$AAu?$AAs?$AAL?$AAi?$AAn?$AAe@ 0000000180032040     ConEmuPlugin1900.obj
 0002:00001058       ??_C@_1BC@IALIJCAM@?$AAS?$AAo?$AAr?$AAt?$AAM?$AAo?$AAd?$AAe@ 0000000180032058     ConEmuPlugin1900.obj
 0002:00001070       ??_C@_1BK@BKCACCAI@?$AAW?$AAT?$AAY?$AAP?$AAE?$AA_?$AAP?$AAA?$AAN?$AAE?$AAL?$AAS@ 0000000180032070     ConEmuPlugin1900.obj
 0002:00001090       ??_C@_1BK@LNCDOEEM@?$AAW?$AAT?$AAY?$AAP?$AAE?$AA_?$AAV?$AAI?$AAE?$AAW?$AAE?$AAR@ 0000000180032090     ConEmuPlugin1900.obj
 0002:000010b0       ??_C@_1BK@MHHDIBO@?$AAW?$AAT?$AAY?$AAP?$AAE?$AA_?$AAE?$AAD?$AAI?$AAT?$AAO?$AAR@ 00000001800320b0     ConEmuPlugin1900.obj
 0002:000010d0       ??_C@_1BK@NEJJBFEB@?$AAW?$AAT?$AAY?$AAP?$AAE?$AA_?$AAD?$AAI?$AAA?$AAL?$AAO?$AAG@ 00000001800320d0     ConEmuPlugin1900.obj
 0002:000010f0       ??_C@_1BI@IHGDMIGH@?$AAW?$AAT?$AAY?$AAP?$AAE?$AA_?$AAV?$AAM?$AAE?$AAN?$AAU@ 00000001800320f0     ConEmuPlugin1900.obj
 0002:00001108       ??_C@_1BG@LKGDBHML@?$AAW?$AAT?$AAY?$AAP?$AAE?$AA_?$AAH?$AAE?$AAL?$AAP@ 0000000180032108     ConEmuPlugin1900.obj
 0002:00001120       ??_C@_1BA@LEPJIIOK@?$AAU?$AAn?$AAk?$AAn?$AAo?$AAw?$AAn@ 0000000180032120     ConEmuPlugin1900.obj
 0002:00001130       ??_C@_1CE@PEOBLGJK@?$AAC?$AAo?$AAn?$AAE?$AAm?$AAu?$AAM?$AAa?$AAc?$AAr?$AAo?$AAR?$AAe?$AAs?$AAu@ 0000000180032130     ConEmuPlugin1900.obj
 0002:00001158       ??_C@_1BO@HNJMHBAE@?$AAC?$AAo?$AAn?$AAE?$AAm?$AAu?$AAG?$AAu?$AAi?$AAM?$AAa?$AAc?$AAr?$AAo@ 0000000180032158     ConEmuPlugin1900.obj
 0002:00001180       __xmm@00000000000000020000000500000000 0000000180032180     ConEmuPlugin1900.obj
 0002:00001190       __xmm@00000000000000040000000500000000 0000000180032190     ConEmuPlugin1900.obj
 0002:000011a0       __xmm@00000000000000070000000000000007 00000001800321a0     ConEmuPlugin1900.obj
 0002:000011b0       __xmm@00000046000000030000000500000004 00000001800321b0     ConEmuPlugin1900.obj
 0002:000011c0       __xmm@00000046000000050000000500000004 00000001800321c0     ConEmuPlugin1900.obj
 0002:000011d0       __xmm@00000048000000010000000300000003 00000001800321d0     ConEmuPlugin1900.obj
 0002:000012b0       ??_7exception@std@@6B@     00000001800322b0     ConEmuPlugin2800.obj
 0002:000012c0       ??_C@_0BC@EOODALEL@Unknown?5exception@ 00000001800322c0     ConEmuPlugin2800.obj
 0002:000012e0       ??_7bad_alloc@std@@6B@     00000001800322e0     ConEmuPlugin2800.obj
 0002:000012f0       ??_C@_0P@GHFPNOJB@bad?5allocation@ 00000001800322f0     ConEmuPlugin2800.obj
 0002:00001308       ??_7CPluginW2800@@6B@      0000000180032308     ConEmuPlugin2800.obj
 0002:00001430       ??_C@_1DO@JIOAOHCJ@?$AAC?$AAo?$AAn?$AAE?$AAm?$AAu?$AA?5?$AAs?$AAu?$AAp?$AAp?$AAo?$AAr?$AAt?$AA?5@ 0000000180032430     ConEmuPlugin2800.obj
 0002:00001470       ??_C@_1DE@DJEAMLPH@?$AAC?$AAo?$AAn?$AAE?$AAm?$AAu?$AA?4?$AAM?$AAa?$AAx?$AAi?$AAm?$AAu?$AAs?$AA5@ 0000000180032470     ConEmuPlugin2800.obj
 0002:000014a8       ??_C@_0DO@JNJNOLHC@e?3?2maks?2maximus5?2conemu?2src?2con@ 00000001800324a8     ConEmuPlugin2800.obj
 0002:000014e8       ??_C@_17IOMHDNEC@?$AAf?$AAa?$AAr@ 00000001800324e8     ConEmuPlugin2800.obj
 0002:000014f0       ??_C@_1BK@DFKHOALC@?$AAE?$AAx?$AAi?$AAt?$AAF?$AAA?$AAR?$AAW?$AA2?$AA8?$AA0?$AA0@ 00000001800324f0     ConEmuPlugin2800.obj
 0002:00001510       ??_C@_1CI@KIFAPNHL@?$AAE?$AAx?$AAi?$AAt?$AAF?$AAA?$AAR?$AAW?$AA2?$AA8?$AA0?$AA0?$AA?5?$AA?9?$AA?5@ 0000000180032510     ConEmuPlugin2800.obj
 0002:00001540       ??_C@_1BCK@KGGLGNDM@?$AAE?$AAr?$AAr?$AAo?$AAr?$AA?5?$AAi?$AAn?$AA?5?$AAM?$AAa?$AAc?$AAr?$AAo?$AA?4@ 0000000180032540     ConEmuPlugin2800.obj
 0002:00001670       ??_C@_1OK@MGLNOED@?$AAE?$AAr?$AAr?$AAo?$AAr?$AA?5?$AAi?$AAn?$AA?5?$AAM?$AAa?$AAc?$AAr?$AAo?$AA?4@ 0000000180032670     ConEmuPlugin2800.obj
 0002:00001760       ??_C@_0BD@OLBABOEK@vector?$DMT?$DO?5too?5long@ 0000000180032760     ConEmuPlugin2800.obj
 0002:00001778       ??_C@_0CM@PCOMLNAM@e?3?2maks?2maximus5?2conemu?2src?2com@ 0000000180032778     ConEmuPlugin2800.obj
 0002:000017b0       __xmm@00000000000000000000000000000002 00000001800327b0     ConEmuPlugin2800.obj
 0002:000017c0       __xmm@00000000000000000000000000000004 00000001800327c0     ConEmuPlugin2800.obj
 0002:000017d0       __xmm@00000000000000000000000000000007 00000001800327d0     ConEmuPlugin2800.obj
 0002:000017e0       __xmm@00000000000000460000000000000003 00000001800327e0     ConEmuPlugin2800.obj
 0002:000017f0       __xmm@00000000000000460000000000000005 00000001800327f0     ConEmuPlugin2800.obj
 0002:00001800       __xmm@00000000000000480000000000000001 0000000180032800     ConEmuPlugin2800.obj
 0002:00001840       ??_7CPluginW995@@6B@       0000000180032840     ConEmuPlugin995.obj
 0002:00001968       ??_C@_0DN@BMIHJOMC@e?3?2maks?2maximus5?2conemu?2src?2con@ 0000000180032968     ConEmuPlugin995.obj
 0002:000019a8       ??_C@_1BI@IBAPHBGL@?$AAE?$AAx?$AAi?$AAt?$AAF?$AAA?$AAR?$AAW?$AA9?$AA9?$AA5@ 00000001800329a8     ConEmuPlugin995.obj
 0002:000019c0       ??_C@_1CG@PKCNLDOL@?$AAE?$AAx?$AAi?$AAt?$AAF?$AAA?$AAR?$AAW?$AA9?$AA9?$AA5?$AA?5?$AA?9?$AA?5?$AAd@ 00000001800329c0     ConEmuPlugin995.obj
 0002:000019f0       __xmm@00000001000000000000000000000002 00000001800329f0     ConEmuPlugin995.obj
 0002:00001a00       __xmm@00000033000000010000000300000003 0000000180032a00     ConEmuPlugin995.obj
 0002:00001a38       ??_C@_00CNPNBAHC@@         0000000180032a38     ConEmuPluginA.obj
 0002:00001a48       ??_7CPluginAnsi@@6B@       0000000180032a48     ConEmuPluginA.obj
 0002:00001b70       ??_C@_1O@BKFLFFPA@?$AAP?$AAl?$AAu?$AAg?$AAi?$AAn@ 0000000180032b70     ConEmuPluginA.obj
 0002:00001b80       ??_C@_0DL@HKCFMMNH@e?3?2maks?2maximus5?2conemu?2src?2con@ 0000000180032b80     ConEmuPluginA.obj
 0002:00001bbc       ??_C@_06HGFNEGAJ@ConEmu@   0000000180032bbc     ConEmuPluginA.obj
 0002:00001bc8       ??_C@_0DD@PEIOLDAK@e?3?2maks?2maximus5?2conemu?2src?2con@ 0000000180032bc8     ConEmuPluginA.obj
 0002:00001c00       ??_C@_0P@DFGMHJNG@ConEmuGuiMacro@ 0000000180032c00     ConEmuPluginA.obj
 0002:00001e70       ??_7CPluginBase@@6B@       0000000180032e70     ConEmuPluginBase.obj
 0002:00001f98       ??_C@_0DA@BOLOBOJD@e?3?2maks?2maximus5?2conemu?2src?2com@ 0000000180032f98     ConEmuPluginBase.obj
 0002:00001fc8       ??_C@_13FPGAJAPJ@?$AA?2@   0000000180032fc8     ConEmuPluginBase.obj
 0002:00001fd0       ??_C@_1FG@DPPGENBC@?$AAL?$AAo?$AAa?$AAd?$AAA?$AAp?$AAp?$AAV?$AAe?$AAr?$AAs?$AAi?$AAo?$AAn?$AA?4@ 0000000180032fd0     ConEmuPluginBase.obj
 0002:00002030       ??_C@_1FK@HILEEFML@?$AAL?$AAo?$AAa?$AAd?$AAA?$AAp?$AAp?$AAV?$AAe?$AAr?$AAs?$AAi?$AAo?$AAn?$AA?4@ 0000000180033030     ConEmuPluginBase.obj
 0002:00002090       ??_C@_1GC@BINFLBDC@?$AAL?$AAo?$AAa?$AAd?$AAA?$AAp?$AAp?$AAV?$AAe?$AAr?$AAs?$AAi?$AAo?$AAn?$AA?5@ 0000000180033090     ConEmuPluginBase.obj
 0002:00002100       ??_C@_1GC@CPPHDKJK@?$AAL?$AAo?$AAa?$AAd?$AAA?$AAp?$AAp?$AAV?$AAe?$AAr?$AAs?$AAi?$AAo?$AAn?$AA?4@ 0000000180033100     ConEmuPluginBase.obj
 0002:00002170       ??_C@_1EG@IINOBDEG@?$AAI?$AAn?$AAv?$AAa?$AAl?$AAi?$AAd?$AA?5?$AAa?$AAs?$AAM?$AAo?$AAd?$AAu?$AAl@ 0000000180033170     ConEmuPluginBase.obj
 0002:000021b8       ??_C@_1CA@GGFPMHLH@?$AA?6?$AAE?$AAr?$AAr?$AAC?$AAo?$AAd?$AAe?$AA?$DN?$AA0?$AAx?$AA?$CF?$AA0?$AA8?$AAX@ 00000001800331b8     ConEmuPluginBase.obj
 0002:000021e0       ??_C@_1FG@LNADFPCE@?$AAL?$AAo?$AAa?$AAd?$AAF?$AAa?$AAr?$AAV?$AAe?$AAr?$AAs?$AAi?$AAo?$AAn?$AA?4@ 00000001800331e0     ConEmuPluginBase.obj
 0002:00002238       ??_C@_0BP@OODKCJPP@Wow64DisableWow64FsRedirection@ 0000000180033238     ConEmuPluginBase.obj
 0002:00002258       ??_C@_0BO@KOCOEJCM@Wow64RevertWow64FsRedirection@ 0000000180033258     ConEmuPluginBase.obj
 0002:00002278       ??_C@_1BO@ONHPLONP@?$AAC?$AAo?$AAn?$AAE?$AAm?$AAu?$AA?4?$AAx?$AA6?$AA4?$AA?4?$AAd?$AAl?$AAl@ 0000000180033278     ConEmuPluginBase.obj
 0002:000022a0       ??_C@_1IA@EGLJCBKE@?$AAS?$AAy?$AAn?$AAc?$AAh?$AAo?$AA?5?$AAe?$AAv?$AAe?$AAn?$AAt?$AAs?$AA?5?$AAa@ 00000001800332a0     ConEmuPluginBase.obj
 0002:00002320       ??_C@_1BG@NBIHKCLP@?$AAC?$AAo?$AAn?$AAE?$AAm?$AAu?$AA?4?$AAd?$AAl?$AAl@ 0000000180033320     ConEmuPluginBase.obj
 0002:00002338       ??_C@_13LBAGMAIH@?$AA?6@   0000000180033338     ConEmuPluginBase.obj
 0002:00002340       ??_C@_1PO@CKPDODMD@?$AAS?$AAe?$AAv?$AAe?$AAr?$AAa?$AAl?$AA?5?$AAi?$AAn?$AAs?$AAt?$AAa?$AAn?$AAc@ 0000000180033340     ConEmuPluginBase.obj
 0002:00002440       ??_C@_13IMODFHAA@?$AA?9@   0000000180033440     ConEmuPluginBase.obj
 0002:00002450       ??_C@_1FI@CBKBKFFI@?$AAC?$AAo?$AAn?$AAE?$AAm?$AAu?$AA?5?$AAp?$AAl?$AAu?$AAg?$AAi?$AAn?$AA?5?$AA?$CF@ 0000000180033450     ConEmuPluginBase.obj
 0002:000024a8       ??_C@_1BG@DILNIJHK@?$AA?$DM?$AAM?$AAs?$AAg?$AAI?$AAD?$AA?$DN?$AA?$CF?$AAi?$AA?$DO@ 00000001800334a8     ConEmuPluginBase.obj
 0002:000024c0       ??_C@_0DO@IMAGLEEJ@e?3?2maks?2maximus5?2conemu?2src?2con@ 00000001800334c0     ConEmuPluginBase.obj
 0002:00002500       ??_C@_1PO@DJAPICLP@?$AA$?$AAi?$AAf?$AA?5?$AA?$CI?$AA?$CB?$AAE?$AAd?$AAi?$AAt?$AAo?$AAr?$AA?5?$AA?$CG?$AA?$CG@ 0000000180033500     ConEmuPluginBase.obj
 0002:00002600       ??_C@_1EK@LJEKIKEG@?$AA4?$AAb?$AA6?$AA7?$AA5?$AAd?$AA8?$AA0?$AA?9?$AA1?$AAd?$AA4?$AAa?$AA?9?$AA4@ 0000000180033600     ConEmuPluginBase.obj
 0002:00002650       ??_C@_1BBO@FBOKPEBF@?$AA$?$AAi?$AAf?$AA?5?$AA?$CI?$AAA?$AAP?$AAa?$AAn?$AAe?$AAl?$AA?4?$AAP?$AAl?$AAu@ 0000000180033650     ConEmuPluginBase.obj
 0002:00002770       ??_C@_1LO@GJMEBJHL@?$AAP?$AAl?$AAu?$AAg?$AAi?$AAn?$AA?4?$AAC?$AAa?$AAl?$AAl?$AA?$CI?$AA?$CC?$AA?$CF?$AAs@ 0000000180033770     ConEmuPluginBase.obj
 0002:00002830       ??_C@_1BA@CMKDJLHG@?$AA?$HN?$AA?5?$AA?9?$AA?5?$AAF?$AAa?$AAr@ 0000000180033830     ConEmuPluginBase.obj
 0002:00002840       ??_C@_17MEJHPLBO@?$AAc?$AAm?$AAd@ 0000000180033840     ConEmuPluginBase.obj
 0002:00002848       ??_C@_1CK@KEKIDABI@?$AAC?$AAo?$AAn?$AAE?$AAm?$AAu?$AA?4?$AAC?$AAr?$AAe?$AAa?$AAt?$AAe?$AAP?$AAr@ 0000000180033848     ConEmuPluginBase.obj
 0002:00002878       ??_C@_1CM@MHCEHIEP@?$AAS?$AAt?$AAa?$AAr?$AAt?$AA?5?$AAc?$AAo?$AAn?$AAs?$AAo?$AAl?$AAe?$AA?5?$AAp@ 0000000180033878     ConEmuPluginBase.obj
 0002:000028a8       ??_C@_17BJPFHBEJ@?$AAC?$AA?3?$AA?2@ 00000001800338a8     ConEmuPluginBase.obj
 0002:000028b0       ??_C@_1BK@NEALEMPH@?$AA?9?$AAn?$AAe?$AAw?$AA_?$AAc?$AAo?$AAn?$AAs?$AAo?$AAl?$AAe@ 00000001800338b0     ConEmuPluginBase.obj
 0002:000028d0       ??_C@_19KHBBCLDH@?$AAr?$AAu?$AAn?$AA?3@ 00000001800338d0     ConEmuPluginBase.obj
 0002:000028dc       ??_C@_13DANNHAJN@?$AAV@    00000001800338dc     ConEmuPluginBase.obj
 0002:000028e0       ??_C@_13IABLFADB@?$AAH@    00000001800338e0     ConEmuPluginBase.obj
 0002:000028e8       ??_C@_17PBAHFJOA@?$AAY?$AAe?$AAs@ 00000001800338e8     ConEmuPluginBase.obj
 0002:000028f0       ??_C@_15BICKNCBF@?$AAN?$AAo@ 00000001800338f0     ConEmuPluginBase.obj
 0002:00002900       ??_C@_1BPK@LEDPNENO@?$AAC?$AAo?$AAn?$AAE?$AAm?$AAu?$AA?5?$AAC?$AAo?$AAn?$AAs?$AAo?$AAl?$AAe?$AA?5@ 0000000180033900     ConEmuPluginBase.obj
 0002:00002b00       ??_C@_1BM@MGPNCPCE@?$AAC?$AAo?$AAn?$AAE?$AAm?$AAu?$AAB?$AAa?$AAs?$AAe?$AAD?$AAi?$AAr@ 0000000180033b00     ConEmuPluginBase.obj
 0002:00002b20       ??_C@_1BK@PCAIPEAH@?$AA?2?$AAC?$AAo?$AAn?$AAE?$AAm?$AAu?$AAC?$AA?4?$AAe?$AAx?$AAe@ 0000000180033b20     ConEmuPluginBase.obj
 0002:00002b40       ??_C@_1CI@DIEJPMOK@?$AA?2?$AAC?$AAo?$AAn?$AAE?$AAm?$AAu?$AA?2?$AAC?$AAo?$AAn?$AAE?$AAm?$AAu?$AAC@ 0000000180033b40     ConEmuPluginBase.obj
 0002:00002b70       ??_C@_1HE@BLMGMKID@?$AA?$CC?$AA?$CF?$AAs?$AA?$CC?$AA?5?$AA?1?$AAA?$AAT?$AAT?$AAA?$AAC?$AAH?$AA?5?$AA?1?$AAR@ 0000000180033b70     ConEmuPluginBase.obj
 0002:00002bf0       ??_C@_1EO@CCMHHKOG@?$AA?$CC?$AA?$CF?$AAs?$AA?$CC?$AA?5?$AA?1?$AAD?$AAE?$AAB?$AAU?$AAG?$AAP?$AAI?$AAD?$AA?$DN@ 0000000180033bf0     ConEmuPluginBase.obj
 0002:00002c40       ??_C@_1CA@CIILNAEN@?$AA?2?$AAC?$AAo?$AAn?$AAE?$AAm?$AAu?$AAH?$AAk?$AA6?$AA4?$AA?4?$AAd?$AAl?$AAl@ 0000000180033c40     ConEmuPluginBase.obj
 0002:00002c60       ??_C@_1BM@DIGKKBBA@?$AAC?$AAo?$AAn?$AAE?$AAm?$AAu?$AAC?$AA6?$AA4?$AA?4?$AAe?$AAx?$AAe@ 0000000180033c60     ConEmuPluginBase.obj
 0002:00002c80       ??_C@_1BI@OPBAAHCM@?$AAC?$AAo?$AAn?$AAE?$AAm?$AAu?$AAC?$AA?4?$AAe?$AAx?$AAe@ 0000000180033c80     ConEmuPluginBase.obj
 0002:00002c98       ??_C@_1BE@FFPCKGKG@?$AA?1?$AAC?$AAO?$AAN?$AAF?$AAI?$AAR?$AAM?$AA?5@ 0000000180033c98     ConEmuPluginBase.obj
 0002:00002cb0       ??_C@_1DA@LLHOBAFM@?$AA?$CC?$AA?5?$AA?1?$AAA?$AAT?$AAT?$AAA?$AAC?$AAH?$AA?5?$AA?1?$AAF?$AAA?$AAR?$AAP@ 0000000180033cb0     ConEmuPluginBase.obj
 0002:00002ce0       ??_C@_1BA@JLPJLFMH@?$AA?1?$AAG?$AAI?$AAD?$AA?$DN?$AA?$CF?$AAi@ 0000000180033ce0     ConEmuPluginBase.obj
 0002:00002cf0       ??_C@_1CI@EIEAGHGL@?$AAC?$AAo?$AAn?$AAE?$AAm?$AAu?$AAS?$AAr?$AAv?$AAS?$AAt?$AAa?$AAr?$AAt?$AAe@ 0000000180033cf0     ConEmuPluginBase.obj
 0002:00002d18       ??_C@_0BD@DHBGKFD@RequestLocalServer@ 0000000180033d18     ConEmuPluginBase.obj
 0002:00002d30       ??_C@_17LCEPOKH@?$AAC?$AAE?$AAM@ 0000000180033d30     ConEmuPluginBase.obj
 0002:00002d38       ??_C@_19LKKOIHJI@?$AA?4?$AAt?$AAm?$AAp@ 0000000180033d38     ConEmuPluginBase.obj
 0002:00002d50       ??_C@_1BFI@CAKBMDAF@?$AAW?$AAr?$AAo?$AAn?$AAg?$AA?5?$AAp?$AAl?$AAu?$AAg?$AAi?$AAn?$AA?5?$AAv?$AAe@ 0000000180033d50     ConEmuPluginBase.obj
 0002:00002ea8       ??_C@_1BA@DAHNNHGF@?$AAF?$AAA?$AAR?$AAL?$AAA?$AAN?$AAG@ 0000000180033ea8     ConEmuPluginBase.obj
 0002:00002ec0       ??_C@_1EA@BFFHMENH@?$AAC?$AAo?$AAn?$AAE?$AAm?$AAu?$AAC?$AA?3?$AA?5?$AAC?$AAh?$AAe?$AAc?$AAk?$AAR@ 0000000180033ec0     ConEmuPluginBase.obj
 0002:00002f00       ??_C@_19LELMJPKF@?$AAe?$AAd?$AAi?$AAt@ 0000000180033f00     ConEmuPluginBase.obj
 0002:00002f10       ??_C@_19IGFHNPAK@?$AAv?$AAi?$AAe?$AAw@ 0000000180033f10     ConEmuPluginBase.obj
 0002:00002f20       ??_C@_1CC@IHNECLD@?$AA?$HL?$AAT?$AAe?$AAm?$AAp?$AAo?$AAr?$AAa?$AAr?$AAy?$AA?5?$AAp?$AAa?$AAn?$AAe@ 0000000180033f20     ConEmuPluginBase.obj
 0002:00002f48       ??_C@_1CO@ELKEEMPJ@?$AAC?$AAo?$AAn?$AAE?$AAm?$AAu?$AAF?$AAi?$AAl?$AAe?$AAM?$AAa?$AAp?$AAp?$AAi@ 0000000180033f48     ConEmuPluginBase.obj
 0002:00002f78       ??_C@_1BI@ENONIIIC@?$AAF?$AAa?$AAr?$AA?5?$AAM?$AAa?$AAn?$AAa?$AAg?$AAe?$AAr@ 0000000180033f78     ConEmuPluginBase.obj
 0002:00002f90       ??_C@_19HBICLLML@?$AAF?$AAA?$AAR?$AA2@ 0000000180033f90     ConEmuPluginBase.obj
 0002:00002fa0       ??_C@_17NACPPFBM@?$AAF?$AAA?$AAR@ 0000000180033fa0     ConEmuPluginBase.obj
 0002:00002fa8       ??_C@_1BA@NIFIBMHP@?$AAF?$AAA?$AAR?$AAU?$AAS?$AAE?$AAR@ 0000000180033fa8     ConEmuPluginBase.obj
 0002:00002fb8       ??_C@_1BA@FJJFMPFO@?$AA?2?$AAU?$AAs?$AAe?$AAr?$AAs?$AA?2@ 0000000180033fb8     ConEmuPluginBase.obj
 0002:00002fc8       ??_C@_1BE@FLHKCJKF@?$AAS?$AAo?$AAf?$AAt?$AAw?$AAa?$AAr?$AAe?$AA?2@ 0000000180033fc8     ConEmuPluginBase.obj
 0002:00002fe0       ??_C@_1CG@HOMCPCN@?$AA?2?$AAP?$AAl?$AAu?$AAg?$AAi?$AAn?$AAs?$AA?2?$AAP?$AAa?$AAn?$AAe?$AAl?$AAT@ 0000000180033fe0     ConEmuPluginBase.obj
 0002:00003008       ??_C@_1BK@NFAPLMGI@?$AAS?$AAe?$AAp?$AAa?$AAr?$AAa?$AAt?$AAe?$AAT?$AAa?$AAb?$AAs@ 0000000180034008     ConEmuPluginBase.obj
 0002:00003028       ??_C@_1BI@GILFJGEK@?$AAB?$AAu?$AAt?$AAt?$AAo?$AAn?$AAC?$AAo?$AAl?$AAo?$AAr@ 0000000180034028     ConEmuPluginBase.obj
 0002:00003040       ??_C@_1DE@DBNFJOHM@?$AAC?$AAo?$AAn?$AAs?$AAo?$AAl?$AAe?$AA2?$AA_?$AAc?$AAo?$AAn?$AAs?$AAo?$AAl@ 0000000180034040     ConEmuPluginBase.obj
 0002:00003078       ??_C@_1CK@EANOIBDN@?$AAC?$AAo?$AAn?$AAE?$AAm?$AAu?$AAC?$AAt?$AAr?$AAl?$AAP?$AAr?$AAe?$AAs?$AAs@ 0000000180034078     ConEmuPluginBase.obj
 0002:000030a8       ??_C@_1CM@JBFABNEO@?$AAC?$AAo?$AAn?$AAE?$AAm?$AAu?$AAS?$AAh?$AAi?$AAf?$AAt?$AAP?$AAr?$AAe?$AAs@ 00000001800340a8     ConEmuPluginBase.obj
 0002:000030d8       ??_C@_1CE@DLFCKCF@?$AAC?$AAo?$AAn?$AAE?$AAm?$AAu?$AAT?$AAa?$AAb?$AAs?$AAC?$AAh?$AAa?$AAn?$AAg@ 00000001800340d8     ConEmuPluginBase.obj
 0002:00003100       ??_C@_0BG@HFNJBNKJ@Plugin?3?3MonitorThread@ 0000000180034100     ConEmuPluginBase.obj
 0002:00003118       ??_C@_1BG@OILDLIOJ@?$AAu?$AAs?$AAe?$AAr?$AA3?$AA2?$AA?4?$AAd?$AAl?$AAl@ 0000000180034118     ConEmuPluginBase.obj
 0002:00003130       ??_C@_0BJ@GFJHAGKD@AllowSetForegroundWindow@ 0000000180034130     ConEmuPluginBase.obj
 0002:00003150       ??_C@_1BO@KPCFCPEP@?$AAC?$AAo?$AAn?$AAE?$AAm?$AAu?$AAC?$AAD?$AA6?$AA4?$AA?4?$AAd?$AAl?$AAl@ 0000000180034150     ConEmuPluginBase.obj
 0002:00003170       ??_C@_1HO@CHHOFADM@?$AAC?$AAo?$AAn?$AAs?$AAo?$AAl?$AAe?$AA?5?$AAw?$AAa?$AAs?$AA?5?$AAa?$AAb?$AAn@ 0000000180034170     ConEmuPluginBase.obj
 0002:000031f0       ??_C@_1NC@MNABBPPB@?$AA$?$AAi?$AAf?$AA?5?$AA?$CI?$AAS?$AAe?$AAa?$AAr?$AAc?$AAh?$AA?$CJ?$AA?5?$AAE?$AAs@ 00000001800341f0     ConEmuPluginBase.obj
 0002:000032d0       ??_C@_1MK@EDFFIGHJ@?$AA$?$AAi?$AAf?$AA?5?$AA?$CI?$AAS?$AAe?$AAa?$AAr?$AAc?$AAh?$AA?$CJ?$AA?5?$AAE?$AAs@ 00000001800342d0     ConEmuPluginBase.obj
 0002:000033a0       ??_C@_1BBA@LKLGFJB@?$AAi?$AAf?$AA?5?$AAA?$AAr?$AAe?$AAa?$AA?4?$AAS?$AAe?$AAa?$AAr?$AAc?$AAh?$AA?5@ 00000001800343a0     ConEmuPluginBase.obj
 0002:000034b0       ??_C@_0P@LNKHCDND@OnConEmuLoaded@ 00000001800344b0     ConEmuPluginBase.obj
 0002:000034c0       ??_C@_0BA@IDLLFCLM@SetStartupInfoW@ 00000001800344c0     ConEmuPluginBase.obj
 0002:000034d0       ??_C@_0P@JNNILPEA@SetStartupInfo@ 00000001800344d0     ConEmuPluginBase.obj
 0002:000034e0       ??_C@_1BC@GNOFNJJG@?$AAM?$AAs?$AAL?$AAC?$AAl?$AAi?$AAc?$AAk@ 00000001800344e0     ConEmuPluginBase.obj
 0002:000034f8       ??_C@_1CC@DFJIOIPL@?$AAK?$AAe?$AAy?$AAs?$AA?$CI?$AA?8?$AAM?$AAs?$AAL?$AAC?$AAl?$AAi?$AAc?$AAk?$AA?8@ 00000001800344f8     ConEmuPluginBase.obj
 0002:00003520       ??_C@_1CM@IICFOBPI@?$AA$?$AAi?$AAf?$AA?5?$AA?$CI?$AAS?$AAe?$AAa?$AAr?$AAc?$AAh?$AA?$CJ?$AA?5?$AAE?$AAs@ 0000000180034520     ConEmuPluginBase.obj
 0002:00003550       ??_C@_1DO@LEFBPADB@?$AAi?$AAf?$AA?5?$AAA?$AAr?$AAe?$AAa?$AA?4?$AAS?$AAe?$AAa?$AAr?$AAc?$AAh?$AA?5@ 0000000180034550     ConEmuPluginBase.obj
 0002:00003590       ??_C@_1CCO@OMFPMNEO@?$AA?$EA?$AAi?$AAf?$AA?5?$AAn?$AAo?$AAt?$AA?5?$AAC?$AAm?$AAd?$AAL?$AAi?$AAn?$AAe@ 0000000180034590     ConEmuPluginBase.obj
 0002:000037c0       ??_C@_1CAM@BBLMGMFK@?$AA?$EA?$AA$?$AAI?$AAf?$AA?5?$AA?$CI?$AA?$CB?$AAC?$AAm?$AAd?$AAL?$AAi?$AAn?$AAe?$AA?4@ 00000001800347c0     ConEmuPluginBase.obj
 0002:000039d0       ??_C@_1CG@OILEFJJN@?$AAC?$AAo?$AAn?$AAE?$AAm?$AAu?$AAT?$AAh?$AA?3?$AA?3?$AAS?$AAe?$AAt?$AAt?$AAi@ 00000001800349d0     ConEmuPluginBase.obj
 0002:000039f8       ??_C@_1CI@MBMLEGFG@?$AAC?$AAo?$AAn?$AAE?$AAm?$AAu?$AAF?$AAa?$AAr?$AAM?$AAa?$AAp?$AAp?$AAi?$AAn@ 00000001800349f8     ConEmuPluginBase.obj
 0002:00003a20       ??_C@_1CO@INAJPHBH@?$AAC?$AAo?$AAn?$AAE?$AAm?$AAu?$AAF?$AAa?$AAr?$AAA?$AAl?$AAi?$AAv?$AAe?$AAE@ 0000000180034a20     ConEmuPluginBase.obj
 0002:00003a50       ??_C@_1BE@GLIABAAK@?$AA?$EA?$AA?$FO?$AA$?$AAT?$AAE?$AAX?$AAT?$AA?5?$AA?$CC@ 0000000180034a50     ConEmuPluginBase.obj
 0002:00003a68       ??_C@_1BE@CPLNCDLK@?$AA?$EA?$AA?$FO?$AAp?$AAr?$AAi?$AAn?$AAt?$AA?$CI?$AA?$CC@ 0000000180034a68     ConEmuPluginBase.obj
 0002:00003a7c       ??_C@_13NEIAEHFG@?$AA?$CC@ 0000000180034a7c     ConEmuPluginBase.obj
 0002:00003a80       ??_C@_15NJGDBKNF@?$AA?$CC?$AA?$CJ@ 0000000180034a80     ConEmuPluginBase.obj
 0002:00003a90       ??_C@_1GK@OGACKIKJ@?$AAI?$AAn?$AAt?$AAe?$AAr?$AAn?$AAa?$AAl?$AA?5?$AAe?$AAr?$AAr?$AAo?$AAr?$AA?4@ 0000000180034a90     ConEmuPluginBase.obj
 0002:00003b00       ??_C@_1O@KBENBEFG@?$AAc?$AAr?$AAe?$AAa?$AAt?$AAe@ 0000000180034b00     ConEmuPluginBase.obj
 0002:00003b10       ??_C@_19BDAJEHDN@?$AAo?$AAp?$AAe?$AAn@ 0000000180034b10     ConEmuPluginBase.obj
 0002:00003b20       ??_C@_1GM@LGOLGABE@?$AAC?$AAa?$AAn?$AA?8?$AAt?$AA?5?$AA?$CF?$AAs?$AA?5?$AAc?$AAo?$AAn?$AAs?$AAo?$AAl@ 0000000180034b20     ConEmuPluginBase.obj
 0002:00003b90       ??_C@_1BE@HADLJAO@?$AAR?$AAe?$AAa?$AAd?$AAW?$AAr?$AAi?$AAt?$AAe@ 0000000180034b90     ConEmuPluginBase.obj
 0002:00003ba8       ??_C@_19EOHDNDII@?$AAR?$AAe?$AAa?$AAd@ 0000000180034ba8     ConEmuPluginBase.obj
 0002:00003bc0       ??_C@_1FO@BGAPBIGG@?$AAC?$AAa?$AAn?$AA?8?$AAt?$AA?5?$AAm?$AAa?$AAp?$AA?5?$AAc?$AAo?$AAn?$AAs?$AAo@ 0000000180034bc0     ConEmuPluginBase.obj
 0002:00003ce8       ??_C@_0DO@IBDJEGIL@e?3?2maks?2maximus5?2conemu?2src?2con@ 0000000180034ce8     PluginBackground.obj
 0002:00003d28       ??_C@_1DA@OEIAGFIH@?$AAC?$AAo?$AAn?$AAE?$AAm?$AAu?$AA?$AA?$AAF?$AAa?$AAr?$AA?5?$AAB?$AAa?$AAc?$AAk@ 0000000180034d28     PluginBackground.obj
 0002:00003d58       ??_C@_1DA@BMIFHIMF@?$AAC?$AAo?$AAn?$AAE?$AAm?$AAu?$AAV?$AAi?$AAe?$AAw?$AAS?$AAe?$AAt?$AAM?$AAa@ 0000000180034d58     PluginBackground.obj
 0002:00003db0       ??_C@_13JOFGPIOO@?$AA?4@   0000000180034db0     PluginSrv.obj
 0002:00003db8       ??_C@_1DC@PFNEMDKA@?$AA?2?$AA?2?$AA?$CF?$AAs?$AA?2?$AAp?$AAi?$AAp?$AAe?$AA?2?$AAC?$AAo?$AAn?$AAE?$AAm@ 0000000180034db8     PluginSrv.obj
 0002:00003df0       ??_C@_0DH@KJMDIMFE@e?3?2maks?2maximus5?2conemu?2src?2con@ 0000000180034df0     PluginSrv.obj
 0002:00003e28       ??_C@_19HGGOABND@?$AA?$CF?$AA0?$AA8?$AAx@ 0000000180034e28     PluginSrv.obj
 0002:00003e38       ??_C@_0DA@DFIJNKPF@e?3?2maks?2maximus5?2conemu?2src?2com@ 0000000180034e38     PluginSrv.obj
 0002:00003e70       ??_C@_1FM@LPOPCJG@?$AAS?$AAt?$AAa?$AAr?$AAt?$AAP?$AAi?$AAp?$AAe?$AAS?$AAe?$AAr?$AAv?$AAe?$AAr@ 0000000180034e70     PluginSrv.obj
 0002:00003ed0       ??_C@_1GC@MCEAIMAO@?$AAS?$AAt?$AAa?$AAr?$AAt?$AAP?$AAi?$AAp?$AAe?$AAI?$AAn?$AAs?$AAt?$AAa?$AAn@ 0000000180034ed0     PluginSrv.obj
 0002:00003f38       ??_C@_0BB@MDGFLNIP@PipeServerThread@ 0000000180034f38     PluginSrv.obj
 0002:00003f50       ??_C@_1GG@PAGGIEEF@?$AAS?$AAt?$AAa?$AAr?$AAt?$AAP?$AAi?$AAp?$AAe?$AAI?$AAn?$AAs?$AAt?$AAa?$AAn@ 0000000180034f50     PluginSrv.obj
 0002:00003fb8       ??_C@_1M@KGONCMNM@?$AA?$CF?$AAs?$AA?6?$AA?$CF?$AAs@ 0000000180034fb8     PluginSrv.obj
 0002:00003fd0       ??_C@_1EA@JFONKNJK@?$AAP?$AAi?$AAp?$AAe?$AAS?$AAe?$AAr?$AAv?$AAe?$AAr?$AAE?$AAr?$AAr?$AAo?$AAr@ 0000000180034fd0     PluginSrv.obj
 0002:00004010       ??_C@_1FG@DJFPBHJF@?$AAP?$AAi?$AAp?$AAe?$AAS?$AAe?$AAr?$AAv?$AAe?$AAr?$AAE?$AAr?$AAr?$AAo?$AAr@ 0000000180035010     PluginSrv.obj
 0002:00004070       ??_C@_1GK@OLPCHMBE@?$AAP?$AAi?$AAp?$AAe?$AAS?$AAe?$AAr?$AAv?$AAe?$AAr?$AAT?$AAh?$AAr?$AAe?$AAa@ 0000000180035070     PluginSrv.obj
 0002:000040e0       ??_C@_1HA@EGHGJDPG@?$AAP?$AAi?$AAp?$AAe?$AAS?$AAe?$AAr?$AAv?$AAe?$AAr?$AAT?$AAh?$AAr?$AAe?$AAa@ 00000001800350e0     PluginSrv.obj
 0002:00004150       ??_C@_1HG@LHMKOAMG@?$AAP?$AAi?$AAp?$AAe?$AAS?$AAe?$AAr?$AAv?$AAe?$AAr?$AAT?$AAh?$AAr?$AAe?$AAa@ 0000000180035150     PluginSrv.obj
 0002:000041c8       ??_C@_0CO@HOLAGLAF@e?3?2maks?2maximus5?2conemu?2src?2com@ 00000001800351c8     common-kernel64:Memory.obj
 0002:00004200       ??_C@_1EM@INHGIPLC@?$AA?$CF?$AAs?$AA?4?$AA?$CF?$AAu?$AA?3?$AA?5?$AAC?$AAr?$AAe?$AAa?$AAt?$AAe?$AAF?$AAi@ 0000000180035200     common-kernel64:ConEmuCheck.obj
 0002:00004250       ??_C@_0DD@OAODPBHG@e?3?2maks?2maximus5?2conemu?2src?2com@ 0000000180035250     common-kernel64:ConEmuCheck.obj
 0002:00004288       ??_C@_1DA@LCPELGGN@?$AAC?$AAo?$AAn?$AAE?$AAm?$AAu?$AAG?$AAu?$AAi?$AAI?$AAn?$AAf?$AAo?$AAM?$AAa@ 0000000180035288     common-kernel64:ConEmuCheck.obj
 0002:000042b8       ??_C@_1DC@MJLCOFMA@?$AA?2?$AA?2?$AA?$CF?$AAs?$AA?2?$AAp?$AAi?$AAp?$AAe?$AA?2?$AAC?$AAo?$AAn?$AAE?$AAm@ 00000001800352b8     common-kernel64:ConEmuCheck.obj
 0002:000042f0       ??_C@_1CM@OPJKOFLA@?$AA?2?$AA?2?$AA?$CF?$AAs?$AA?2?$AAp?$AAi?$AAp?$AAe?$AA?2?$AAC?$AAo?$AAn?$AAE?$AAm@ 00000001800352f0     common-kernel64:ConEmuCheck.obj
 0002:00004320       ??_C@_1CG@FFFCCLIF@?$AAC?$AAo?$AAn?$AAs?$AAo?$AAl?$AAe?$AAW?$AAi?$AAn?$AAd?$AAo?$AAw?$AAC?$AAl@ 0000000180035320     common-kernel64:ConEmuCheck.obj
 0002:00004348       ??_C@_1CC@LMJBOHFL@?$AAW?$AAi?$AAn?$AAe?$AAC?$AAo?$AAn?$AAs?$AAo?$AAl?$AAe?$AAC?$AAl?$AAa?$AAs@ 0000000180035348     common-kernel64:ConEmuCheck.obj
 0002:00004370       ??_C@_1BC@LMIJMNIA@?$AA0?$AA0?$AA0?$AA0?$AA0?$AA0?$AA0?$AA0@ 0000000180035370     common-kernel64:MStrSafe.obj
 0002:00004390       ??_C@_1EHK@JMHPNAMN@?$AAA?$AAC?$AAT?$AAI?$AAV?$AAA?$AAT?$AAE?$AA?$AA?$AAA?$AAL?$AAI?$AAA?$AAS?$AA?$AA@ 0000000180035390     common-kernel64:CmdLine.obj
 0002:00004810       ??_C@_19DOGDICKI@?$AA?4?$AAe?$AAx?$AAe@ 0000000180035810     common-kernel64:CmdLine.obj
 0002:00004820       ??_C@_1BG@PIGCKNCG@?$AAC?$AAo?$AAn?$AAE?$AAm?$AAu?$AA?4?$AAe?$AAx?$AAe@ 0000000180035820     common-kernel64:CmdLine.obj
 0002:00004838       ??_C@_1BK@BNOCAHHB@?$AAC?$AAo?$AAn?$AAE?$AAm?$AAu?$AA6?$AA4?$AA?4?$AAe?$AAx?$AAe@ 0000000180035838     common-kernel64:CmdLine.obj
 0002:00004854       ??_C@_05LCABBMOG@?$CFs?3?$CFi@ 0000000180035854     common-kernel64:WThreads.obj
 0002:00004860       ??_C@_0CP@DGGDGDEI@e?3?2maks?2maximus5?2conemu?2src?2com@ 0000000180035860     common-kernel64:MStrDup.obj
 0002:00004890       ??_C@_0CO@ENADPBIL@e?3?2maks?2maximus5?2conemu?2src?2com@ 0000000180035890     common-kernel64:EnvVar.obj
 0002:000048c0       ??_C@_19IJOJOJIB@?$AAP?$AAA?$AAT?$AAH@ 00000001800358c0     common-kernel64:EnvVar.obj
 0002:000048d0       ??_C@_1BO@HJHEFHMO@?$AAK?$AAe?$AAr?$AAn?$AAe?$AAl?$AAB?$AAa?$AAs?$AAe?$AA?4?$AAd?$AAl?$AAl@ 00000001800358d0     common-kernel64:MSecurity.obj
 0002:000048f0       ??_C@_1BK@BIGILECK@?$AAA?$AAd?$AAv?$AAa?$AAp?$AAi?$AA3?$AA2?$AA?4?$AAd?$AAl?$AAl@ 00000001800358f0     common-kernel64:MSecurity.obj
 0002:00004910       ??_C@_0BE@IPKPLIM@AddAccessAllowedAce@ 0000000180035910     common-kernel64:MSecurity.obj
 0002:00004928       ??_C@_0BD@EIGAJLOG@AddAccessDeniedAce@ 0000000180035928     common-kernel64:MSecurity.obj
 0002:00004940       ??_C@_0BJ@ECIKFEOL@AllocateAndInitializeSid@ 0000000180035940     common-kernel64:MSecurity.obj
 0002:00004960       ??_C@_0N@HBKDHKNL@GetLengthSid@ 0000000180035960     common-kernel64:MSecurity.obj
 0002:00004970       ??_C@_0O@GKCEJBAA@InitializeAcl@ 0000000180035970     common-kernel64:MSecurity.obj
 0002:00004980       ??_C@_0BN@FNLANPJJ@InitializeSecurityDescriptor@ 0000000180035980     common-kernel64:MSecurity.obj
 0002:000049a0       ??_C@_0BK@DNNLOFO@SetSecurityDescriptorDacl@ 00000001800359a0     common-kernel64:MSecurity.obj
 0002:000049c8       ??_7exception@stdext@@6B@  00000001800359c8     common-kernel64:CEStr.obj
 0002:000049e0       ??_C@_0BC@BDKFLDHL@unknown?5exception@ 00000001800359e0     common-kernel64:CEStr.obj
 0002:00004a00       ??_7bad_alloc@stdext@@6B@  0000000180035a00     common-kernel64:CEStr.obj
 0002:00004a18       ??_C@_0CN@LOBOJMLN@e?3?2maks?2maximus5?2conemu?2src?2com@ 0000000180035a18     common-kernel64:CEStr.obj
 0002:00004a48       ??_C@_1BE@GJOFHIHD@?$AAn?$AAt?$AAd?$AAl?$AAl?$AA?4?$AAd?$AAl?$AAl@ 0000000180035a48     common-kernel64:WObjects.obj
 0002:00004a60       ??_C@_0BF@LOGLPPDD@RtlVerifyVersionInfo@ 0000000180035a60     common-kernel64:WObjects.obj
 0002:00004a78       ??_C@_1BA@PHJPMKEE@?$AAC?$AAo?$AAm?$AAS?$AAp?$AAe?$AAc@ 0000000180035a78     common-kernel64:WObjects.obj
 0002:00004a88       ??_C@_0BD@HGJIAJJM@RequestTrampolines@ 0000000180035a88     common-kernel64:HkFunc.obj
 0002:00004aa8       ??_7?$MToolHelp@UtagPROCESSENTRY32W@@$1?Process32FirstW@@YAHPEAXPEAU1@@Z$1?Process32NextW@@YAH01@Z@@6B@ 0000000180035aa8     common-kernel64:MProcess.obj
 0002:00004ac0       ??_7MToolHelpProcess@@6B@  0000000180035ac0     common-kernel64:MProcess.obj
 0002:00004ad0       ??_C@_1BK@HHKNEJDC@?$AAt?$AAl?$AAn?$AAt?$AAs?$AAe?$AAs?$AAs?$AA?4?$AAe?$AAx?$AAe@ 0000000180035ad0     common-kernel64:MProcess.obj
 0002:00004af0       ??_C@_1BI@MPDCNJBA@?$AAt?$AAl?$AAn?$AAt?$AAs?$AAv?$AAr?$AA?4?$AAe?$AAx?$AAe@ 0000000180035af0     common-kernel64:MProcess.obj
 0002:00004b08       ??_C@_1O@GNPNAMOC@?$AA0?$AAx?$AA?$CF?$AA0?$AA8?$AAX@ 0000000180035b08     common-user64:SetEnvVar.obj
 0002:00004b18       ??_C@_1BG@CJNOKBPK@?$AAC?$AAo?$AAn?$AAE?$AAm?$AAu?$AAH?$AAW?$AAN?$AAD@ 0000000180035b18     common-user64:SetEnvVar.obj
 0002:00004b30       ??_C@_15EFLNJKHH@?$AA?$CF?$AAu@ 0000000180035b30     common-user64:SetEnvVar.obj
 0002:00004b38       ??_C@_1BE@GIIMEDBE@?$AAC?$AAo?$AAn?$AAE?$AAm?$AAu?$AAP?$AAI?$AAD@ 0000000180035b38     common-user64:SetEnvVar.obj
 0002:00004b50       ??_C@_1BO@BBOAAODE@?$AAC?$AAo?$AAn?$AAE?$AAm?$AAu?$AAD?$AAr?$AAa?$AAw?$AAH?$AAW?$AAN?$AAD@ 0000000180035b50     common-user64:SetEnvVar.obj
 0002:00004b70       ??_C@_1BO@DIAPFMAN@?$AAC?$AAo?$AAn?$AAE?$AAm?$AAu?$AAB?$AAa?$AAc?$AAk?$AAH?$AAW?$AAN?$AAD@ 0000000180035b70     common-user64:SetEnvVar.obj
 0002:00004bb8       ??_C@_1CI@PDOPFPLH@?$AAV?$AAi?$AAr?$AAt?$AAu?$AAa?$AAl?$AAC?$AAo?$AAn?$AAs?$AAo?$AAl?$AAe?$AAC@ 0000000180035bb8     common-user64:ConEmuCheckEx.obj
 0002:00004be0       ??_C@_1CC@PDEDDOGK@?$AA?2?$AAP?$AAl?$AAu?$AAg?$AAi?$AAn?$AAs?$AA?2?$AAC?$AAo?$AAn?$AAE?$AAm?$AAu@ 0000000180035be0     common-user64:ConEmuCheckEx.obj
 0002:00004c08       ??_C@_1CA@CNCOCNJD@?$AAS?$AAo?$AAf?$AAt?$AAw?$AAa?$AAr?$AAe?$AA?2?$AAC?$AAo?$AAn?$AAE?$AAm?$AAu@ 0000000180035c08     common-user64:ConEmuCheckEx.obj
 0002:00004c28       ??_C@_1CK@KBHIPEEC@?$AAC?$AAo?$AAn?$AAE?$AAm?$AAu?$AA?2?$AAC?$AAo?$AAn?$AAE?$AAm?$AAu?$AAC?$AA6@ 0000000180035c28     common-user64:ConEmuCheckEx.obj
 0002:00004c58       ??_C@_1CG@HCDHJIEM@?$AAC?$AAo?$AAn?$AAE?$AAm?$AAu?$AA?2?$AAC?$AAo?$AAn?$AAE?$AAm?$AAu?$AAC?$AA?4@ 0000000180035c58     common-user64:ConEmuCheckEx.obj
 0002:00004c80       __xmm@ffffffff800000010000000000000000 0000000180035c80     common-user64:ConEmuCheckEx.obj
 0002:00004c90       __xmm@ffffffff80000002ffffffff80000002 0000000180035c90     common-user64:ConEmuCheckEx.obj
 0002:00004ca0       ??_C@_1BO@CJPKCNHF@?$AAL?$AAu?$AAc?$AAi?$AAd?$AAa?$AA?5?$AAC?$AAo?$AAn?$AAs?$AAo?$AAl?$AAe@ 0000000180035ca0     common-user64:EmergencyShow.obj
 0002:00004cc0       ??_C@_1BA@GIKDDGPH@?$AAC?$AAo?$AAn?$AAs?$AAo?$AAl?$AAe@ 0000000180035cc0     common-user64:EmergencyShow.obj
 0002:00004cd0       ??_C@_1BC@MAHCNJIF@?$AAF?$AAo?$AAn?$AAt?$AAS?$AAi?$AAz?$AAe@ 0000000180035cd0     common-user64:EmergencyShow.obj
 0002:00004cf0       ??_C@_1EM@OAOIIPGN@?$AAC?$AAo?$AAn?$AAs?$AAo?$AAl?$AAe?$AA?2?$AA?$CF?$AAS?$AAy?$AAs?$AAt?$AAe?$AAm@ 0000000180035cf0     common-user64:EmergencyShow.obj
 0002:00004d40       ??_C@_1DC@GKBPJPHN@?$AAC?$AAo?$AAn?$AAE?$AAm?$AAu?$AAE?$AAm?$AAe?$AAr?$AAg?$AAe?$AAn?$AAc?$AAy@ 0000000180035d40     common-user64:EmergencyShow.obj
 0002:00004da0       ??_C@_1GK@PPEHOOAL@?$AAS?$AAO?$AAF?$AAT?$AAW?$AAA?$AAR?$AAE?$AA?2?$AAM?$AAi?$AAc?$AAr?$AAo?$AAs@ 0000000180035da0     common-user64:WFiles.obj
 0002:00004e10       ??_C@_0CO@JFPJLIA@e?3?2maks?2maximus5?2conemu?2src?2com@ 0000000180035e10     common-user64:WFiles.obj
 0002:00004e40       ??_C@_13PJJBFPED@?$AA?$DL@ 0000000180035e40     common-user64:WFiles.obj
 0002:00004e50       ??_C@_1FM@HGFGNGE@?$AAC?$AAa?$AAn?$AA?8?$AAt?$AA?5?$AAC?$AAr?$AAe?$AAa?$AAt?$AAe?$AAF?$AAi?$AAl@ 0000000180035e50     common-user64:WConsoleEx.obj
 0002:00004eb0       ??_C@_1EA@DNEBDKPD@?$AAC?$AAa?$AAn?$AA?8?$AAt?$AA?5?$AAM?$AAa?$AAp?$AAV?$AAi?$AAe?$AAw?$AAO?$AAf@ 0000000180035eb0     common-user64:WConsoleEx.obj
 0002:00004ef0       ??_C@_1BO@IPFLJP@?$AAC?$AAo?$AAn?$AAs?$AAo?$AAl?$AAe?$AA?2?$AAC?$AAo?$AAn?$AAE?$AAm?$AAu@ 0000000180035ef0     common-user64:WConsoleEx.obj
 0002:00004f10       ??_C@_1CE@BJHMHGLF@?$AAH?$AAi?$AAs?$AAt?$AAo?$AAr?$AAy?$AAB?$AAu?$AAf?$AAf?$AAe?$AAr?$AAS?$AAi@ 0000000180035f10     common-user64:WConsoleEx.obj
 0002:00004f38       ??_C@_1CO@DAOCNAIJ@?$AAN?$AAu?$AAm?$AAb?$AAe?$AAr?$AAO?$AAf?$AAH?$AAi?$AAs?$AAt?$AAo?$AAr?$AAy@ 0000000180035f38     common-user64:WConsoleEx.obj
 0002:00004f68       ??_C@_0CN@PNDCGICE@e?3?2maks?2maximus5?2conemu?2src?2com@ 0000000180035f68     common-user64:WUser.obj
 0002:00004fa0       ??_7logic_error@std@@6B@   0000000180035fa0     libcpmt:xthrow.obj
 0002:00004fb8       ??_7length_error@std@@6B@  0000000180035fb8     libcpmt:xthrow.obj
 0002:00004fd0       ??_7type_info@@6B@         0000000180035fd0     LIBCMT:std_type_info_static.obj
 0002:00005000       ??_C@_1EC@JIJBPKFM@?$AAa?$AAp?$AAi?$AA?9?$AAm?$AAs?$AA?9?$AAw?$AAi?$AAn?$AA?9?$AAc?$AAo?$AAr?$AAe@ 0000000180036000     LIBCMT:thread_safe_statics.obj
 0002:00005048       ??_C@_0BM@HLJJNPAH@InitializeConditionVariable@ 0000000180036048     LIBCMT:thread_safe_statics.obj
 0002:00005068       ??_C@_0BJ@JEBJOJFJ@SleepConditionVariableCS@ 0000000180036068     LIBCMT:thread_safe_statics.obj
 0002:00005088       ??_C@_0BJ@PGPPEPCC@WakeAllConditionVariable@ 0000000180036088     LIBCMT:thread_safe_statics.obj
 0002:000050a8       _pRawDllMain               00000001800360a8     LIBCMT:dll_dllmain.obj
 0002:000050a8       _pDefaultRawDllMain        00000001800360a8     LIBCMT:dll_dllmain.obj
 0002:00005158       _pDestructExceptionObject  0000000180036158     libvcruntime:ehhelpers.obj
 0002:000051a8       ??_7bad_exception@std@@6B@ 00000001800361a8     libvcruntime:frame.obj
 0002:000051b8       ??_C@_0O@DPKOEFFH@bad?5exception@ 00000001800361b8     libvcruntime:frame.obj
 0002:000051e0       ??_C@_1DM@KHCHBNEB@?$AAa?$AAp?$AAi?$AA?9?$AAm?$AAs?$AA?9?$AAw?$AAi?$AAn?$AA?9?$AAc?$AAo?$AAr?$AAe@ 00000001800361e0     libvcruntime:winapi_downlevel.obj
 0002:00005220       ??_C@_1DK@LPPGFMPP@?$AAa?$AAp?$AAi?$AA?9?$AAm?$AAs?$AA?9?$AAw?$AAi?$AAn?$AA?9?$AAc?$AAo?$AAr?$AAe@ 0000000180036220     libvcruntime:winapi_downlevel.obj
 0002:00005260       ??_C@_1BC@GDMECMAK@?$AAk?$AAe?$AAr?$AAn?$AAe?$AAl?$AA3?$AA2@ 0000000180036260     libvcruntime:winapi_downlevel.obj
 0002:00005278       ??_C@_1BA@PFFKHIOG@?$AAa?$AAp?$AAi?$AA?9?$AAm?$AAs?$AA?9@ 0000000180036278     libvcruntime:winapi_downlevel.obj
 0002:00005288       ??_C@_1BA@IAIFMGEF@?$AAe?$AAx?$AAt?$AA?9?$AAm?$AAs?$AA?9@ 0000000180036288     libvcruntime:winapi_downlevel.obj
 0002:000052a0       ??_C@_08KNHFBNJ@FlsAlloc@  00000001800362a0     libvcruntime:winapi_downlevel.obj
 0002:000052b8       ??_C@_07PEJMOBNF@FlsFree@  00000001800362b8     libvcruntime:winapi_downlevel.obj
 0002:000052c8       ??_C@_0M@GDNOONDI@FlsGetValue@ 00000001800362c8     libvcruntime:winapi_downlevel.obj
 0002:000052e0       ??_C@_0M@JCPCPOEF@FlsSetValue@ 00000001800362e0     libvcruntime:winapi_downlevel.obj
 0002:000052f8       ??_C@_0BM@HCFOFFN@InitializeCriticalSectionEx@ 00000001800362f8     libvcruntime:winapi_downlevel.obj
 0002:00005658       ??_C@_08EHJDFFNH@__based?$CI@ 0000000180036658     libvcruntime:undname.obj
 0002:00005668       ??_C@_07KOLFKCDI@__cdecl@  0000000180036668     libvcruntime:undname.obj
 0002:00005670       ??_C@_08GHMPAG@__pascal@   0000000180036670     libvcruntime:undname.obj
 0002:00005680       ??_C@_09IFJBGAPI@__stdcall@ 0000000180036680     libvcruntime:undname.obj
 0002:00005690       ??_C@_0L@NPHFGOKO@__thiscall@ 0000000180036690     libvcruntime:undname.obj
 0002:000056a0       ??_C@_0L@JMKHOMEK@__fastcall@ 00000001800366a0     libvcruntime:undname.obj
 0002:000056b0       ??_C@_0N@BCKKPABJ@__vectorcall@ 00000001800366b0     libvcruntime:undname.obj
 0002:000056c0       ??_C@_09HIJEGCPM@__clrcall@ 00000001800366c0     libvcruntime:undname.obj
 0002:000056cc       ??_C@_06GHPCKEAG@__eabi@   00000001800366cc     libvcruntime:undname.obj
 0002:000056d8       ??_C@_09IOPIDJLG@__swift_1@ 00000001800366d8     libvcruntime:undname.obj
 0002:000056e8       ??_C@_09KFNFGKHF@__swift_2@ 00000001800366e8     libvcruntime:undname.obj
 0002:000056f8       ??_C@_07JOMMBBKO@__ptr64@  00000001800366f8     libvcruntime:undname.obj
 0002:00005700       ??_C@_0L@PILCLIHE@__restrict@ 0000000180036700     libvcruntime:undname.obj
 0002:00005710       ??_C@_0M@GFIIJFMG@__unaligned@ 0000000180036710     libvcruntime:undname.obj
 0002:00005720       ??_C@_09DHDLOLLB@restrict?$CI@ 0000000180036720     libvcruntime:undname.obj
 0002:0000572c       ??_C@_04NIHEBCM@?5new@     000000018003672c     libvcruntime:undname.obj
 0002:00005738       ??_C@_07FPCDHGMM@?5delete@ 0000000180036738     libvcruntime:undname.obj
 0002:00005740       ??_C@_01NEMOKFLO@?$DN@     0000000180036740     libvcruntime:undname.obj
 0002:00005744       ??_C@_02GPIOPFAK@?$DO?$DO@ 0000000180036744     libvcruntime:undname.obj
 0002:00005748       ??_C@_02FODMEDOG@?$DM?$DM@ 0000000180036748     libvcruntime:undname.obj
 0002:0000574c       ??_C@_01DCLJPIOD@?$CB@     000000018003674c     libvcruntime:undname.obj
 0002:00005750       ??_C@_02EGOFBIJA@?$DN?$DN@ 0000000180036750     libvcruntime:undname.obj
 0002:00005754       ??_C@_02FDNJECIE@?$CB?$DN@ 0000000180036754     libvcruntime:undname.obj
 0002:00005758       ??_C@_02GPECMEKF@?$FL?$FN@ 0000000180036758     libvcruntime:undname.obj
 0002:00005760       ??_C@_08LHJFAFGD@operator@ 0000000180036760     libvcruntime:undname.obj
 0002:0000576c       ??_C@_02HBOOOICD@?9?$DO@   000000018003676c     libvcruntime:undname.obj
 0002:00005770       ??_C@_01NBENCBCI@?$CK@     0000000180036770     libvcruntime:undname.obj
 0002:00005774       ??_C@_02ECNGHCIF@?$CL?$CL@ 0000000180036774     libvcruntime:undname.obj
 0002:00005778       ??_C@_02BAABKJLB@?9?9@     0000000180036778     libvcruntime:undname.obj
 0002:0000577c       ??_C@_01JOAMLHOP@?9@       000000018003677c     libvcruntime:undname.obj
 0002:00005780       ??_C@_01MIFGBAGJ@?$CL@     0000000180036780     libvcruntime:undname.obj
 0002:00005784       ??_C@_01HNPIGOCE@?$CG@     0000000180036784     libvcruntime:undname.obj
 0002:00005788       ??_C@_03MNHNFDLC@?9?$DO?$CK@ 0000000180036788     libvcruntime:undname.obj
 0002:0000578c       ??_C@_01KMDKNFGN@?1@       000000018003678c     libvcruntime:undname.obj
 0002:00005790       ??_C@_01FGNFDNOH@?$CF@     0000000180036790     libvcruntime:undname.obj
 0002:00005794       ??_C@_01MNNFJEPP@?$DM@     0000000180036794     libvcruntime:undname.obj
 0002:00005798       ??_C@_02EHCHHCKH@?$DM?$DN@ 0000000180036798     libvcruntime:undname.obj
 0002:0000579c       ??_C@_01PPODPGHN@?$DO@     000000018003679c     libvcruntime:undname.obj
 0002:000057a0       ??_C@_02EEKDKGMJ@?$DO?$DN@ 00000001800367a0     libvcruntime:undname.obj
 0002:000057a4       ??_C@_01IHBHIGKO@?0@       00000001800367a4     libvcruntime:undname.obj
 0002:000057a8       ??_C@_02HCKGKOFO@?$CI?$CJ@ 00000001800367a8     libvcruntime:undname.obj
 0002:000057ac       ??_C@_01PJKLJHI@?$HO@      00000001800367ac     libvcruntime:undname.obj
 0002:000057b0       ??_C@_01JKBOJNNK@?$FO@     00000001800367b0     libvcruntime:undname.obj
 0002:000057b4       ??_C@_01DNKMNLPK@?$HM@     00000001800367b4     libvcruntime:undname.obj
 0002:000057b8       ??_C@_02PPKAJPJL@?$CG?$CG@ 00000001800367b8     libvcruntime:undname.obj
 0002:000057bc       ??_C@_02NONPIBCD@?$HM?$HM@ 00000001800367bc     libvcruntime:undname.obj
 0002:000057c0       ??_C@_02FPIMKNGF@?$CK?$DN@ 00000001800367c0     libvcruntime:undname.obj
 0002:000057c4       ??_C@_02FOEOMHFC@?$CL?$DN@ 00000001800367c4     libvcruntime:undname.obj
 0002:000057c8       ??_C@_02FKMDLLOA@?9?$DN@   00000001800367c8     libvcruntime:undname.obj
 0002:000057cc       ??_C@_02FJEHGPIO@?1?$DN@   00000001800367cc     libvcruntime:undname.obj
 0002:000057d0       ??_C@_02FENAOKFI@?$CF?$DN@ 00000001800367d0     libvcruntime:undname.obj
 0002:000057d4       ??_C@_03IKFCCPFF@?$DO?$DO?$DN@ 00000001800367d4     libvcruntime:undname.obj
 0002:000057d8       ??_C@_03CDNPDDLA@?$DM?$DM?$DN@ 00000001800367d8     libvcruntime:undname.obj
 0002:000057dc       ??_C@_02FGJGFEAB@?$CG?$DN@ 00000001800367dc     libvcruntime:undname.obj
 0002:000057e0       ??_C@_02DHLNPPGH@?$HM?$DN@ 00000001800367e0     libvcruntime:undname.obj
 0002:000057e4       ??_C@_02MHEGNOJ@?$FO?$DN@  00000001800367e4     libvcruntime:undname.obj
 0002:000057e8       ??_C@_09IFPLHPGF@?$GAvftable?8@ 00000001800367e8     libvcruntime:undname.obj
 0002:000057f8       ??_C@_09BLBHBJP@?$GAvbtable?8@ 00000001800367f8     libvcruntime:undname.obj
 0002:00005808       ??_C@_07FEEIOKP@?$GAvcall?8@ 0000000180036808     libvcruntime:undname.obj
 0002:00005810       ??_C@_08LLFFHHDJ@?$GAtypeof?8@ 0000000180036810     libvcruntime:undname.obj
 0002:00005820       ??_C@_0BF@KDPPACIK@?$GAlocal?5static?5guard?8@ 0000000180036820     libvcruntime:undname.obj
 0002:00005838       ??_C@_08OBABFOLI@?$GAstring?8@ 0000000180036838     libvcruntime:undname.obj
 0002:00005848       ??_C@_0BD@JDLKDPAB@?$GAvbase?5destructor?8@ 0000000180036848     libvcruntime:undname.obj
 0002:00005860       ??_C@_0BN@DEGPLNFK@?$GAvector?5deleting?5destructor?8@ 0000000180036860     libvcruntime:undname.obj
 0002:00005880       ??_C@_0BO@OBMKPJIG@?$GAdefault?5constructor?5closure?8@ 0000000180036880     libvcruntime:undname.obj
 0002:000058a0       ??_C@_0BN@IMDCHIKM@?$GAscalar?5deleting?5destructor?8@ 00000001800368a0     libvcruntime:undname.obj
 0002:000058c0       ??_C@_0BO@PFGOCPJJ@?$GAvector?5constructor?5iterator?8@ 00000001800368c0     libvcruntime:undname.obj
 0002:000058e0       ??_C@_0BN@LFPFMEDL@?$GAvector?5destructor?5iterator?8@ 00000001800368e0     libvcruntime:undname.obj
 0002:00005900       ??_C@_0CE@IKBNEHA@?$GAvector?5vbase?5constructor?5itera@ 0000000180036900     libvcruntime:undname.obj
 0002:00005928       ??_C@_0BL@NILFHHPC@?$GAvirtual?5displacement?5map?8@ 0000000180036928     libvcruntime:undname.obj
 0002:00005948       ??_C@_0CB@JONCMFFK@?$GAeh?5vector?5constructor?5iterator@ 0000000180036948     libvcruntime:undname.obj
 0002:00005970       ??_C@_0CA@GCEOPDGL@?$GAeh?5vector?5destructor?5iterator?8@ 0000000180036970     libvcruntime:undname.obj
 0002:00005990       ??_C@_0CH@OOJPLCPH@?$GAeh?5vector?5vbase?5constructor?5it@ 0000000180036990     libvcruntime:undname.obj
 0002:000059b8       ??_C@_0BL@LLKPOHJI@?$GAcopy?5constructor?5closure?8@ 00000001800369b8     libvcruntime:undname.obj
 0002:000059d8       ??_C@_0BA@KBCDOMBN@?$GAudt?5returning?8@ 00000001800369d8     libvcruntime:undname.obj
 0002:000059e8       ??_C@_03KLGMFNMG@?$GAEH@   00000001800369e8     libvcruntime:undname.obj
 0002:000059ec       ??_C@_05KHLCHHI@?$GARTTI@  00000001800369ec     libvcruntime:undname.obj
 0002:000059f8       ??_C@_0BA@KKLDJDLB@?$GAlocal?5vftable?8@ 00000001800369f8     libvcruntime:undname.obj
 0002:00005a08       ??_C@_0CE@IIHCMGGL@?$GAlocal?5vftable?5constructor?5clos@ 0000000180036a08     libvcruntime:undname.obj
 0002:00005a2c       ??_C@_06FHBGPFGH@?5new?$FL?$FN@ 0000000180036a2c     libvcruntime:undname.obj
 0002:00005a38       ??_C@_09LBNFPBCA@?5delete?$FL?$FN@ 0000000180036a38     libvcruntime:undname.obj
 0002:00005a48       ??_C@_0P@HJKNJFNN@?$GAomni?5callsig?8@ 0000000180036a48     libvcruntime:undname.obj
 0002:00005a58       ??_C@_0BL@CNOONJFP@?$GAplacement?5delete?5closure?8@ 0000000180036a58     libvcruntime:undname.obj
 0002:00005a78       ??_C@_0BN@CKNJLHMB@?$GAplacement?5delete?$FL?$FN?5closure?8@ 0000000180036a78     libvcruntime:undname.obj
 0002:00005a98       ??_C@_0CG@CFDHKGGD@?$GAmanaged?5vector?5constructor?5ite@ 0000000180036a98     libvcruntime:undname.obj
 0002:00005ac0       ??_C@_0CF@IMGKMJNO@?$GAmanaged?5vector?5destructor?5iter@ 0000000180036ac0     libvcruntime:undname.obj
 0002:00005ae8       ??_C@_0CG@HLDDJMAG@?$GAeh?5vector?5copy?5constructor?5ite@ 0000000180036ae8     libvcruntime:undname.obj
 0002:00005b10       ??_C@_0CM@FCBBDIGB@?$GAeh?5vector?5vbase?5copy?5construct@ 0000000180036b10     libvcruntime:undname.obj
 0002:00005b40       ??_C@_0BL@CLIPGLGB@?$GAdynamic?5initializer?5for?5?8@ 0000000180036b40     libvcruntime:undname.obj
 0002:00005b60       ??_C@_0CB@PDBIFEP@?$GAdynamic?5atexit?5destructor?5for?5@ 0000000180036b60     libvcruntime:undname.obj
 0002:00005b88       ??_C@_0CD@CGAJBKEJ@?$GAvector?5copy?5constructor?5iterat@ 0000000180036b88     libvcruntime:undname.obj
 0002:00005bb0       ??_C@_0CJ@GJELGAMM@?$GAvector?5vbase?5copy?5constructor?5@ 0000000180036bb0     libvcruntime:undname.obj
 0002:00005be0       ??_C@_0CL@FGIJHLCE@?$GAmanaged?5vector?5copy?5constructo@ 0000000180036be0     libvcruntime:undname.obj
 0002:00005c10       ??_C@_0BM@PMGGMLDN@?$GAlocal?5static?5thread?5guard?8@ 0000000180036c10     libvcruntime:undname.obj
 0002:00005c30       ??_C@_0N@BDNMDMOL@operator?5?$CC?$CC?5@ 0000000180036c30     libvcruntime:undname.obj
 0002:00005c40       ??_C@_0BC@GGEBGALA@operator?5co_await@ 0000000180036c40     libvcruntime:undname.obj
 0002:00005c58       ??_C@_0BC@DAFEJGAK@?5Type?5Descriptor?8@ 0000000180036c58     libvcruntime:undname.obj
 0002:00005c70       ??_C@_0BM@LDKODKLH@?5Base?5Class?5Descriptor?5at?5?$CI@ 0000000180036c70     libvcruntime:undname.obj
 0002:00005c90       ??_C@_0BD@LGICGFMM@?5Base?5Class?5Array?8@ 0000000180036c90     libvcruntime:undname.obj
 0002:00005ca8       ??_C@_0BN@MECKDCOJ@?5Class?5Hierarchy?5Descriptor?8@ 0000000180036ca8     libvcruntime:undname.obj
 0002:00005cc8       ??_C@_0BK@CFCOFLF@?5Complete?5Object?5Locator?8@ 0000000180036cc8     libvcruntime:undname.obj
 0002:00005cf0       standard_lookup_table      0000000180036cf0     libucrt:output.obj
 0002:00005d4c       ??_C@_06OJHGLDPL@?$CInull?$CJ?$AA@ 0000000180036d4c     libucrt:output.obj
 0002:00005d58       ??_C@_1O@CEDCILHN@?$AA?$CI?$AAn?$AAu?$AAl?$AAl?$AA?$CJ?$AA?$AA@ 0000000180036d58     libucrt:output.obj
 0002:00005ee0       __acrt_exception_action_table 0000000180036ee0     libucrt:exception_filter.obj
 0002:00005fa0       __acrt_signal_action_table_count 0000000180036fa0     libucrt:exception_filter.obj
 0002:00005fa8       __acrt_signal_action_first_fpe_index 0000000180036fa8     libucrt:exception_filter.obj
 0002:00005fb0       __acrt_signal_action_fpe_count 0000000180036fb0     libucrt:exception_filter.obj
 0002:00005fb8       ??_C@_1BI@BGOHAHKC@?$AAm?$AAs?$AAc?$AAo?$AAr?$AAe?$AAe?$AA?4?$AAd?$AAl?$AAl?$AA?$AA@ 0000000180036fb8     libucrt:exit.obj
 0002:00005fd0       ??_C@_0P@MIGLKIOC@CorExitProcess?$AA@ 0000000180036fd0     libucrt:exit.obj
 0002:000060d0       ??_C@_03OEIAHPBN@INF?$AA@  00000001800370d0     libucrt:cvt.obj
 0002:000060d4       ??_C@_03OJHLLCGB@inf?$AA@  00000001800370d4     libucrt:cvt.obj
 0002:000060d8       ??_C@_03LKNCIKJB@NAN?$AA@  00000001800370d8     libucrt:cvt.obj
 0002:000060dc       ??_C@_03LHCJEHON@nan?$AA@  00000001800370dc     libucrt:cvt.obj
 0002:000060e0       ??_C@_09OFJJIMPC@NAN?$CISNAN?$CJ?$AA@ 00000001800370e0     libucrt:cvt.obj
 0002:000060f0       ??_C@_09IPFBKMDL@nan?$CIsnan?$CJ?$AA@ 00000001800370f0     libucrt:cvt.obj
 0002:00006100       ??_C@_08IKHNHAJ@NAN?$CIIND?$CJ?$AA@ 0000000180037100     libucrt:cvt.obj
 0002:00006110       ??_C@_08OFCDMILK@nan?$CIind?$CJ?$AA@ 0000000180037110     libucrt:cvt.obj
 0002:0000611c       ??_C@_05KLBDPFGC@e?$CL000?$AA@ 000000018003711c     libucrt:cvt.obj
 0002:00006130       __lc_time_c                0000000180037130     libucrt:nlsdata.obj
 0002:000063f0       ??_C@_03KOEHGMDN@Sun?$AA@  00000001800373f0     libucrt:nlsdata.obj
 0002:000063f4       ??_C@_03PDAGKDH@Mon?$AA@   00000001800373f4     libucrt:nlsdata.obj
 0002:000063f8       ??_C@_03NAGEINEP@Tue?$AA@  00000001800373f8     libucrt:nlsdata.obj
 0002:000063fc       ??_C@_03MHOMLAJA@Wed?$AA@  00000001800373fc     libucrt:nlsdata.obj
 0002:00006400       ??_C@_03IOFIKPDN@Thu?$AA@  0000000180037400     libucrt:nlsdata.obj
 0002:00006404       ??_C@_03IDIOELNC@Fri?$AA@  0000000180037404     libucrt:nlsdata.obj
 0002:00006408       ??_C@_03FEFJNEK@Sat?$AA@   0000000180037408     libucrt:nlsdata.obj
 0002:0000640c       ??_C@_06OOPIFAJ@Sunday?$AA@ 000000018003740c     libucrt:nlsdata.obj
 0002:00006414       ??_C@_06JLEDEDGH@Monday?$AA@ 0000000180037414     libucrt:nlsdata.obj
 0002:00006420       ??_C@_07BAAGCFCM@Tuesday?$AA@ 0000000180037420     libucrt:nlsdata.obj
 0002:00006428       ??_C@_09DLIGFAKA@Wednesday?$AA@ 0000000180037428     libucrt:nlsdata.obj
 0002:00006438       ??_C@_08HACCIKIA@Thursday?$AA@ 0000000180037438     libucrt:nlsdata.obj
 0002:00006444       ??_C@_06JECMNKMI@Friday?$AA@ 0000000180037444     libucrt:nlsdata.obj
 0002:00006450       ??_C@_08INBOOONO@Saturday?$AA@ 0000000180037450     libucrt:nlsdata.obj
 0002:0000645c       ??_C@_03JIHJHPIE@Jan?$AA@  000000018003745c     libucrt:nlsdata.obj
 0002:00006460       ??_C@_03HJBDCHOM@Feb?$AA@  0000000180037460     libucrt:nlsdata.obj
 0002:00006464       ??_C@_03ODNJBKGA@Mar?$AA@  0000000180037464     libucrt:nlsdata.obj
 0002:00006468       ??_C@_03LEOLGMJP@Apr?$AA@  0000000180037468     libucrt:nlsdata.obj
 0002:0000646c       ??_C@_03CNMDKL@May?$AA@    000000018003746c     libucrt:nlsdata.obj
 0002:00006470       ??_C@_03IDFGHECI@Jun?$AA@  0000000180037470     libucrt:nlsdata.obj
 0002:00006474       ??_C@_03LBGABGKK@Jul?$AA@  0000000180037474     libucrt:nlsdata.obj
 0002:00006478       ??_C@_03IFJFEIGA@Aug?$AA@  0000000180037478     libucrt:nlsdata.obj
 0002:0000647c       ??_C@_03GGCAPAJC@Sep?$AA@  000000018003747c     libucrt:nlsdata.obj
 0002:00006480       ??_C@_03BMAOKBAD@Oct?$AA@  0000000180037480     libucrt:nlsdata.obj
 0002:00006484       ??_C@_03JPJOFNIA@Nov?$AA@  0000000180037484     libucrt:nlsdata.obj
 0002:00006488       ??_C@_03MKABNOCG@Dec?$AA@  0000000180037488     libucrt:nlsdata.obj
 0002:00006490       ??_C@_07CGJPFGJA@January?$AA@ 0000000180037490     libucrt:nlsdata.obj
 0002:00006498       ??_C@_08GNJGEPFN@February?$AA@ 0000000180037498     libucrt:nlsdata.obj
 0002:000064a4       ??_C@_05HPCKOFNC@March?$AA@ 00000001800374a4     libucrt:nlsdata.obj
 0002:000064ac       ??_C@_05DMJDNLEJ@April?$AA@ 00000001800374ac     libucrt:nlsdata.obj
 0002:000064b4       ??_C@_04CNLMGBGM@June?$AA@ 00000001800374b4     libucrt:nlsdata.obj
 0002:000064bc       ??_C@_04MIEPOIFP@July?$AA@ 00000001800374bc     libucrt:nlsdata.obj
 0002:000064c4       ??_C@_06LBBHFDDG@August?$AA@ 00000001800374c4     libucrt:nlsdata.obj
 0002:000064d0       ??_C@_09BHHEALKD@September?$AA@ 00000001800374d0     libucrt:nlsdata.obj
 0002:000064e0       ??_C@_07JJNFCEND@October?$AA@ 00000001800374e0     libucrt:nlsdata.obj
 0002:000064e8       ??_C@_08HCHEGEOA@November?$AA@ 00000001800374e8     libucrt:nlsdata.obj
 0002:000064f8       ??_C@_08EDHMEBNP@December?$AA@ 00000001800374f8     libucrt:nlsdata.obj
 0002:00006504       ??_C@_02DEDBPAFC@AM?$AA@   0000000180037504     libucrt:nlsdata.obj
 0002:00006508       ??_C@_02CJNFDJBF@PM?$AA@   0000000180037508     libucrt:nlsdata.obj
 0002:00006510       ??_C@_08BPBNCDIB@MM?1dd?1yy?$AA@ 0000000180037510     libucrt:nlsdata.obj
 0002:00006520       ??_C@_0BE@CKGJFCPC@dddd?0?5MMMM?5dd?0?5yyyy?$AA@ 0000000180037520     libucrt:nlsdata.obj
 0002:00006538       ??_C@_08JCCMCCIL@HH?3mm?3ss?$AA@ 0000000180037538     libucrt:nlsdata.obj
 0002:00006548       ??_C@_17MBGCMIPB@?$AAS?$AAu?$AAn?$AA?$AA@ 0000000180037548     libucrt:nlsdata.obj
 0002:00006550       ??_C@_17KBOMKBF@?$AAM?$AAo?$AAn?$AA?$AA@ 0000000180037550     libucrt:nlsdata.obj
 0002:00006558       ??_C@_17BMKGEGOJ@?$AAT?$AAu?$AAe?$AA?$AA@ 0000000180037558     libucrt:nlsdata.obj
 0002:00006560       ??_C@_17CJEDCEPE@?$AAW?$AAe?$AAd?$AA?$AA@ 0000000180037560     libucrt:nlsdata.obj
 0002:00006568       ??_C@_17PDPHAADD@?$AAT?$AAh?$AAu?$AA?$AA@ 0000000180037568     libucrt:nlsdata.obj
 0002:00006570       ??_C@_17HFOLPPLP@?$AAF?$AAr?$AAi?$AA?$AA@ 0000000180037570     libucrt:nlsdata.obj
 0002:00006578       ??_C@_17GGIBDPIH@?$AAS?$AAa?$AAt?$AA?$AA@ 0000000180037578     libucrt:nlsdata.obj
 0002:00006580       ??_C@_1O@IHNHDHPB@?$AAS?$AAu?$AAn?$AAd?$AAa?$AAy?$AA?$AA@ 0000000180037580     libucrt:nlsdata.obj
 0002:00006590       ??_C@_1O@MMNBFLIA@?$AAM?$AAo?$AAn?$AAd?$AAa?$AAy?$AA?$AA@ 0000000180037590     libucrt:nlsdata.obj
 0002:000065a0       ??_C@_1BA@ENFBFFEK@?$AAT?$AAu?$AAe?$AAs?$AAd?$AAa?$AAy?$AA?$AA@ 00000001800375a0     libucrt:nlsdata.obj
 0002:000065b0       ??_C@_1BE@EBOGMDOH@?$AAW?$AAe?$AAd?$AAn?$AAe?$AAs?$AAd?$AAa?$AAy?$AA?$AA@ 00000001800375b0     libucrt:nlsdata.obj
 0002:000065c8       ??_C@_1BC@HHMNLIHE@?$AAT?$AAh?$AAu?$AAr?$AAs?$AAd?$AAa?$AAy?$AA?$AA@ 00000001800375c8     libucrt:nlsdata.obj
 0002:000065e0       ??_C@_1O@PDICJHAG@?$AAF?$AAr?$AAi?$AAd?$AAa?$AAy?$AA?$AA@ 00000001800375e0     libucrt:nlsdata.obj
 0002:000065f0       ??_C@_1BC@ENMNNPAJ@?$AAS?$AAa?$AAt?$AAu?$AAr?$AAd?$AAa?$AAy?$AA?$AA@ 00000001800375f0     libucrt:nlsdata.obj
 0002:00006608       ??_C@_17DKNBKCHM@?$AAJ?$AAa?$AAn?$AA?$AA@ 0000000180037608     libucrt:nlsdata.obj
 0002:00006610       ??_C@_17LMDJEKJN@?$AAF?$AAe?$AAb?$AA?$AA@ 0000000180037610     libucrt:nlsdata.obj
 0002:00006618       ??_C@_17CKNLEDEC@?$AAM?$AAa?$AAr?$AA?$AA@ 0000000180037618     libucrt:nlsdata.obj
 0002:00006620       ??_C@_17LFPOIHDD@?$AAA?$AAp?$AAr?$AA?$AA@ 0000000180037620     libucrt:nlsdata.obj
 0002:00006628       ??_C@_17PNNKMEED@?$AAM?$AAa?$AAy?$AA?$AA@ 0000000180037628     libucrt:nlsdata.obj
 0002:00006630       ??_C@_17KCJGOCPB@?$AAJ?$AAu?$AAn?$AA?$AA@ 0000000180037630     libucrt:nlsdata.obj
 0002:00006638       ??_C@_17IJPCKHK@?$AAJ?$AAu?$AAl?$AA?$AA@ 0000000180037638     libucrt:nlsdata.obj
 0002:00006640       ??_C@_17ICPELBCN@?$AAA?$AAu?$AAg?$AA?$AA@ 0000000180037640     libucrt:nlsdata.obj
 0002:00006648       ??_C@_17HCHCOKMG@?$AAS?$AAe?$AAp?$AA?$AA@ 0000000180037648     libucrt:nlsdata.obj
 0002:00006650       ??_C@_17FNLKOI@?$AAO?$AAc?$AAt?$AA?$AA@ 0000000180037650     libucrt:nlsdata.obj
 0002:00006658       ??_C@_17BBDMLCIG@?$AAN?$AAo?$AAv?$AA?$AA@ 0000000180037658     libucrt:nlsdata.obj
 0002:00006660       ??_C@_17EGKACKIF@?$AAD?$AAe?$AAc?$AA?$AA@ 0000000180037660     libucrt:nlsdata.obj
 0002:00006668       ??_C@_1BA@EFMEIEBA@?$AAJ?$AAa?$AAn?$AAu?$AAa?$AAr?$AAy?$AA?$AA@ 0000000180037668     libucrt:nlsdata.obj
 0002:00006678       ??_C@_1BC@JGDDFFAM@?$AAF?$AAe?$AAb?$AAr?$AAu?$AAa?$AAr?$AAy?$AA?$AA@ 0000000180037678     libucrt:nlsdata.obj
 0002:00006690       ??_C@_1M@IKEENEDF@?$AAM?$AAa?$AAr?$AAc?$AAh?$AA?$AA@ 0000000180037690     libucrt:nlsdata.obj
 0002:000066a0       ??_C@_1M@GJNLMHFD@?$AAA?$AAp?$AAr?$AAi?$AAl?$AA?$AA@ 00000001800376a0     libucrt:nlsdata.obj
 0002:000066b0       ??_C@_19EPFLPGAP@?$AAJ?$AAu?$AAn?$AAe?$AA?$AA@ 00000001800376b0     libucrt:nlsdata.obj
 0002:000066c0       ??_C@_19BIFMLPCD@?$AAJ?$AAu?$AAl?$AAy?$AA?$AA@ 00000001800376c0     libucrt:nlsdata.obj
 0002:000066d0       ??_C@_1O@PAHLKOAC@?$AAA?$AAu?$AAg?$AAu?$AAs?$AAt?$AA?$AA@ 00000001800376d0     libucrt:nlsdata.obj
 0002:000066e0       ??_C@_1BE@DKAAMBJL@?$AAS?$AAe?$AAp?$AAt?$AAe?$AAm?$AAb?$AAe?$AAr?$AA?$AA@ 00000001800376e0     libucrt:nlsdata.obj
 0002:000066f8       ??_C@_1BA@EPANDLNG@?$AAO?$AAc?$AAt?$AAo?$AAb?$AAe?$AAr?$AA?$AA@ 00000001800376f8     libucrt:nlsdata.obj
 0002:00006708       ??_C@_1BC@BGLIFPF@?$AAN?$AAo?$AAv?$AAe?$AAm?$AAb?$AAe?$AAr?$AA?$AA@ 0000000180037708     libucrt:nlsdata.obj
 0002:00006720       ??_C@_1BC@FEMKIFH@?$AAD?$AAe?$AAc?$AAe?$AAm?$AAb?$AAe?$AAr?$AA?$AA@ 0000000180037720     libucrt:nlsdata.obj
 0002:00006734       ??_C@_15ODEHAHHF@?$AAA?$AAM?$AA?$AA@ 0000000180037734     libucrt:nlsdata.obj
 0002:0000673c       ??_C@_15CLMNNGEL@?$AAP?$AAM?$AA?$AA@ 000000018003773c     libucrt:nlsdata.obj
 0002:00006748       ??_C@_1BC@IEBCMHCM@?$AAM?$AAM?$AA?1?$AAd?$AAd?$AA?1?$AAy?$AAy?$AA?$AA@ 0000000180037748     libucrt:nlsdata.obj
 0002:00006760       ??_C@_1CI@KNAKOEBC@?$AAd?$AAd?$AAd?$AAd?$AA?0?$AA?5?$AAM?$AAM?$AAM?$AAM?$AA?5?$AAd?$AAd?$AA?0?$AA?5?$AAy?$AAy?$AAy?$AAy?$AA?$AA@ 0000000180037760     libucrt:nlsdata.obj
 0002:00006788       ??_C@_1BC@GDGBMEMK@?$AAH?$AAH?$AA?3?$AAm?$AAm?$AA?3?$AAs?$AAs?$AA?$AA@ 0000000180037788     libucrt:nlsdata.obj
 0002:000067a0       ??_C@_1M@BMHNFIME@?$AAe?$AAn?$AA?9?$AAU?$AAS?$AA?$AA@ 00000001800377a0     libucrt:nlsdata.obj
 0002:000067b0       __newctype                 00000001800377b0     libucrt:ctype.obj
 0002:00006ab0       __newclmap                 0000000180037ab0     libucrt:ctype.obj
 0002:00006c30       __newcumap                 0000000180037c30     libucrt:ctype.obj
 0002:00006db0       _wctype                    0000000180037db0     libucrt:ctype.obj
 0002:00007060       ??_C@_1EG@CNNIPFIM@?$AAa?$AAp?$AAi?$AA?9?$AAm?$AAs?$AA?9?$AAw?$AAi?$AAn?$AA?9?$AAa?$AAp?$AAp?$AAm?$AAo?$AAd?$AAe?$AAl?$AA?9?$AAr?$AAu?$AAn?$AAt?$AAi?$AAm?$AAe?$AA?9?$AAl?$AA1?$AA?9?$AA1@ 0000000180038060     libucrt:winapi_thunks.obj
 0002:000070b0       ??_C@_1EA@JGEFHKEI@?$AAa?$AAp?$AAi?$AA?9?$AAm?$AAs?$AA?9?$AAw?$AAi?$AAn?$AA?9?$AAc?$AAo?$AAr?$AAe?$AA?9?$AAd?$AAa?$AAt?$AAe?$AAt?$AAi?$AAm?$AAe?$AA?9?$AAl?$AA1?$AA?9?$AA1?$AA?9?$AA1?$AA?$AA@ 00000001800380b0     libucrt:winapi_thunks.obj
 0002:000070f0       ??_C@_1DM@KHCHBNEB@?$AAa?$AAp?$AAi?$AA?9?$AAm?$AAs?$AA?9?$AAw?$AAi?$AAn?$AA?9?$AAc?$AAo?$AAr?$AAe?$AA?9?$AAf?$AAi?$AAb?$AAe?$AAr?$AAs?$AA?9?$AAl?$AA1?$AA?9?$AA1?$AA?9?$AA1?$AA?$AA@ 00000001800380f0     libucrt:winapi_thunks.obj
 0002:00007130       ??_C@_1DI@GCIAAENM@?$AAa?$AAp?$AAi?$AA?9?$AAm?$AAs?$AA?9?$AAw?$AAi?$AAn?$AA?9?$AAc?$AAo?$AAr?$AAe?$AA?9?$AAf?$AAi?$AAl?$AAe?$AA?9?$AAl?$AA2?$AA?9?$AA1?$AA?9?$AA1?$AA?$AA@ 0000000180038130     libucrt:winapi_thunks.obj
 0002:00007170       ??_C@_1EI@MPIAOHOC@?$AAa?$AAp?$AAi?$AA?9?$AAm?$AAs?$AA?9?$AAw?$AAi?$AAn?$AA?9?$AAc?$AAo?$AAr?$AAe?$AA?9?$AAl?$AAo?$AAc?$AAa?$AAl?$AAi?$AAz?$AAa?$AAt?$AAi?$AAo?$AAn?$AA?9?$AAl?$AA1?$AA?9@ 0000000180038170     libucrt:winapi_thunks.obj
 0002:000071c0       ??_C@_1FK@FPHCKFIE@?$AAa?$AAp?$AAi?$AA?9?$AAm?$AAs?$AA?9?$AAw?$AAi?$AAn?$AA?9?$AAc?$AAo?$AAr?$AAe?$AA?9?$AAl?$AAo?$AAc?$AAa?$AAl?$AAi?$AAz?$AAa?$AAt?$AAi?$AAo?$AAn?$AA?9?$AAo?$AAb?$AAs@ 00000001800381c0     libucrt:winapi_thunks.obj
 0002:00007220       ??_C@_1EM@DILCGIIO@?$AAa?$AAp?$AAi?$AA?9?$AAm?$AAs?$AA?9?$AAw?$AAi?$AAn?$AA?9?$AAc?$AAo?$AAr?$AAe?$AA?9?$AAp?$AAr?$AAo?$AAc?$AAe?$AAs?$AAs?$AAt?$AAh?$AAr?$AAe?$AAa?$AAd?$AAs?$AA?9?$AAl@ 0000000180038220     libucrt:winapi_thunks.obj
 0002:00007270       ??_C@_1DM@LNCGDDPN@?$AAa?$AAp?$AAi?$AA?9?$AAm?$AAs?$AA?9?$AAw?$AAi?$AAn?$AA?9?$AAc?$AAo?$AAr?$AAe?$AA?9?$AAs?$AAt?$AAr?$AAi?$AAn?$AAg?$AA?9?$AAl?$AA1?$AA?9?$AA1?$AA?9?$AA0?$AA?$AA@ 0000000180038270     libucrt:winapi_thunks.obj
 0002:000072b0       ??_C@_1DK@LPPGFMPP@?$AAa?$AAp?$AAi?$AA?9?$AAm?$AAs?$AA?9?$AAw?$AAi?$AAn?$AA?9?$AAc?$AAo?$AAr?$AAe?$AA?9?$AAs?$AAy?$AAn?$AAc?$AAh?$AA?9?$AAl?$AA1?$AA?9?$AA2?$AA?9?$AA0?$AA?$AA@ 00000001800382b0     libucrt:winapi_thunks.obj
 0002:000072f0       ??_C@_1DO@FPAPJEMD@?$AAa?$AAp?$AAi?$AA?9?$AAm?$AAs?$AA?9?$AAw?$AAi?$AAn?$AA?9?$AAc?$AAo?$AAr?$AAe?$AA?9?$AAs?$AAy?$AAs?$AAi?$AAn?$AAf?$AAo?$AA?9?$AAl?$AA1?$AA?9?$AA2?$AA?9?$AA1?$AA?$AA@ 00000001800382f0     libucrt:winapi_thunks.obj
 0002:00007330       ??_C@_1DK@NDHNAHIO@?$AAa?$AAp?$AAi?$AA?9?$AAm?$AAs?$AA?9?$AAw?$AAi?$AAn?$AA?9?$AAc?$AAo?$AAr?$AAe?$AA?9?$AAw?$AAi?$AAn?$AAr?$AAt?$AA?9?$AAl?$AA1?$AA?9?$AA1?$AA?9?$AA0?$AA?$AA@ 0000000180038330     libucrt:winapi_thunks.obj
 0002:00007370       ??_C@_1DM@KGHDGBCM@?$AAa?$AAp?$AAi?$AA?9?$AAm?$AAs?$AA?9?$AAw?$AAi?$AAn?$AA?9?$AAc?$AAo?$AAr?$AAe?$AA?9?$AAx?$AAs?$AAt?$AAa?$AAt?$AAe?$AA?9?$AAl?$AA2?$AA?9?$AA1?$AA?9?$AA0?$AA?$AA@ 0000000180038370     libucrt:winapi_thunks.obj
 0002:000073b0       ??_C@_1EO@IJIOEFOH@?$AAa?$AAp?$AAi?$AA?9?$AAm?$AAs?$AA?9?$AAw?$AAi?$AAn?$AA?9?$AAr?$AAt?$AAc?$AAo?$AAr?$AAe?$AA?9?$AAn?$AAt?$AAu?$AAs?$AAe?$AAr?$AA?9?$AAw?$AAi?$AAn?$AAd?$AAo?$AAw?$AA?9@ 00000001800383b0     libucrt:winapi_thunks.obj
 0002:00007400       ??_C@_1FG@HHGEKANL@?$AAa?$AAp?$AAi?$AA?9?$AAm?$AAs?$AA?9?$AAw?$AAi?$AAn?$AA?9?$AAs?$AAe?$AAc?$AAu?$AAr?$AAi?$AAt?$AAy?$AA?9?$AAs?$AAy?$AAs?$AAt?$AAe?$AAm?$AAf?$AAu?$AAn?$AAc?$AAt?$AAi@ 0000000180038400     libucrt:winapi_thunks.obj
 0002:00007460       ??_C@_1FG@NCKKOLKO@?$AAe?$AAx?$AAt?$AA?9?$AAm?$AAs?$AA?9?$AAw?$AAi?$AAn?$AA?9?$AAk?$AAe?$AAr?$AAn?$AAe?$AAl?$AA3?$AA2?$AA?9?$AAp?$AAa?$AAc?$AAk?$AAa?$AAg?$AAe?$AA?9?$AAc?$AAu?$AAr?$AAr@ 0000000180038460     libucrt:winapi_thunks.obj
 0002:000074c0       ??_C@_1EG@DBIOJECG@?$AAe?$AAx?$AAt?$AA?9?$AAm?$AAs?$AA?9?$AAw?$AAi?$AAn?$AA?9?$AAn?$AAt?$AAu?$AAs?$AAe?$AAr?$AA?9?$AAd?$AAi?$AAa?$AAl?$AAo?$AAg?$AAb?$AAo?$AAx?$AA?9?$AAl?$AA1?$AA?9?$AA1@ 00000001800384c0     libucrt:winapi_thunks.obj
 0002:00007510       ??_C@_1EO@FIHMJCLF@?$AAe?$AAx?$AAt?$AA?9?$AAm?$AAs?$AA?9?$AAw?$AAi?$AAn?$AA?9?$AAn?$AAt?$AAu?$AAs?$AAe?$AAr?$AA?9?$AAw?$AAi?$AAn?$AAd?$AAo?$AAw?$AAs?$AAt?$AAa?$AAt?$AAi?$AAo?$AAn?$AA?9@ 0000000180038510     libucrt:winapi_thunks.obj
 0002:00007560       ??_C@_1BC@DNHGCMLG@?$AAa?$AAd?$AAv?$AAa?$AAp?$AAi?$AA3?$AA2?$AA?$AA@ 0000000180038560     libucrt:winapi_thunks.obj
 0002:00007578       ??_C@_1BC@GDMECMAK@?$AAk?$AAe?$AAr?$AAn?$AAe?$AAl?$AA3?$AA2?$AA?$AA@ 0000000180038578     libucrt:winapi_thunks.obj
 0002:00007590       ??_C@_1O@BCCLBEOE@?$AAu?$AAs?$AAe?$AAr?$AA3?$AA2?$AA?$AA@ 0000000180038590     libucrt:winapi_thunks.obj
 0002:000075a8       ??_C@_08KNHFBNJ@FlsAlloc?$AA@ 00000001800385a8     libucrt:winapi_thunks.obj
 0002:000075c0       ??_C@_07PEJMOBNF@FlsFree?$AA@ 00000001800385c0     libucrt:winapi_thunks.obj
 0002:000075d0       ??_C@_0M@GDNOONDI@FlsGetValue?$AA@ 00000001800385d0     libucrt:winapi_thunks.obj
 0002:000075e8       ??_C@_0M@JCPCPOEF@FlsSetValue?$AA@ 00000001800385e8     libucrt:winapi_thunks.obj
 0002:00007600       ??_C@_0BE@JOGNEJCI@GetCurrentPackageId?$AA@ 0000000180038600     libucrt:winapi_thunks.obj
 0002:00007620       ??_C@_0BM@HCFOFFN@InitializeCriticalSectionEx?$AA@ 0000000180038620     libucrt:winapi_thunks.obj
 0002:00007648       ??_C@_0O@KKBNKAPF@LCMapStringEx?$AA@ 0000000180038648     libucrt:winapi_thunks.obj
 0002:00007660       ??_C@_0BB@HBDEELFH@LocaleNameToLCID?$AA@ 0000000180038660     libucrt:winapi_thunks.obj
 0002:00007698       ??_C@_1M@HPNHIDJI@?$AAj?$AAa?$AA?9?$AAJ?$AAP?$AA?$AA@ 0000000180038698     libucrt:mbctype.obj
 0002:000076a8       ??_C@_1M@BIBDDEMK@?$AAz?$AAh?$AA?9?$AAC?$AAN?$AA?$AA@ 00000001800386a8     libucrt:mbctype.obj
 0002:000076b8       ??_C@_1M@JLOOOEGK@?$AAk?$AAo?$AA?9?$AAK?$AAR?$AA?$AA@ 00000001800386b8     libucrt:mbctype.obj
 0002:000076c8       ??_C@_1M@CLNBBOPM@?$AAz?$AAh?$AA?9?$AAT?$AAW?$AA?$AA@ 00000001800386c8     libucrt:mbctype.obj
 0002:000076e0       ?large_power_data@?1??multiply_by_power_of_ten@__crt_strtox@@YA_NAEAUbig_integer@2@I@Z@4QBIB 00000001800386e0     libucrt:cfout.obj
 0002:00007ff0       ?large_power_indices@?1??multiply_by_power_of_ten@__crt_strtox@@YA_NAEAUbig_integer@2@I@Z@4QBUunpack_index@?1??12@YA_N0I@Z@B 0000000180038ff0     libucrt:cfout.obj
 0002:00008088       ?small_powers_of_ten@?6??multiply_by_power_of_ten@__crt_strtox@@YA_NAEAUbig_integer@2@I@Z@4QBIB 0000000180039088     libucrt:cfout.obj
 0002:000080ac       ??_C@_01GBGANLPD@0?$AA@    00000001800390ac     libucrt:cfout.obj
 0002:000080b0       ??_C@_05DNEBIAHO@1?$CDINF?$AA@ 00000001800390b0     libucrt:cfout.obj
 0002:000080b8       ??_C@_06IMKFLFPG@1?$CDQNAN?$AA@ 00000001800390b8     libucrt:cfout.obj
 0002:000080c0       ??_C@_06PGGFOGJG@1?$CDSNAN?$AA@ 00000001800390c0     libucrt:cfout.obj
 0002:000080c8       ??_C@_05PHHOCPM@1?$CDIND?$AA@ 00000001800390c8     libucrt:cfout.obj
 0002:000080d0       ??_C@_15PJPFLCCM@?$AAu?$AAk?$AA?$AA@ 00000001800390d0     libucrt:get_qualified_locale.obj
 0002:00008f20       ??_C@_15EMKDOKLE@?$AAa?$AAr?$AA?$AA@ 0000000180039f20     libucrt:lcidtoname_downlevel.obj
 0002:00008f28       ??_C@_15KNPADPLH@?$AAb?$AAg?$AA?$AA@ 0000000180039f28     libucrt:lcidtoname_downlevel.obj
 0002:00008f30       ??_C@_15EDMHLDMO@?$AAc?$AAa?$AA?$AA@ 0000000180039f30     libucrt:lcidtoname_downlevel.obj
 0002:00008f38       ??_C@_1O@BPEAJADD@?$AAz?$AAh?$AA?9?$AAC?$AAH?$AAS?$AA?$AA@ 0000000180039f38     libucrt:lcidtoname_downlevel.obj
 0002:00008f48       ??_C@_15LJNHCMNK@?$AAc?$AAs?$AA?$AA@ 0000000180039f48     libucrt:lcidtoname_downlevel.obj
 0002:00008f50       ??_C@_15FOMCIDHG@?$AAd?$AAa?$AA?$AA@ 0000000180039f50     libucrt:lcidtoname_downlevel.obj
 0002:00008f58       ??_C@_15NBKABECB@?$AAd?$AAe?$AA?$AA@ 0000000180039f58     libucrt:lcidtoname_downlevel.obj
 0002:00008f60       ??_C@_15GHPEIIAO@?$AAe?$AAl?$AA?$AA@ 0000000180039f60     libucrt:lcidtoname_downlevel.obj
 0002:00008f68       ??_C@_15MNPNEAIF@?$AAe?$AAn?$AA?$AA@ 0000000180039f68     libucrt:lcidtoname_downlevel.obj
 0002:00008f70       ??_C@_15GPIOMPMH@?$AAe?$AAs?$AA?$AA@ 0000000180039f70     libucrt:lcidtoname_downlevel.obj
 0002:00008f78       ??_C@_15NGLOAKJC@?$AAf?$AAi?$AA?$AA@ 0000000180039f78     libucrt:lcidtoname_downlevel.obj
 0002:00008f80       ??_C@_15FBKGNKAM@?$AAf?$AAr?$AA?$AA@ 0000000180039f80     libucrt:lcidtoname_downlevel.obj
 0002:00008f88       ??_C@_15KGGCNEFK@?$AAh?$AAe?$AA?$AA@ 0000000180039f88     libucrt:lcidtoname_downlevel.obj
 0002:00008f90       ??_C@_15PGHLIDMF@?$AAh?$AAu?$AA?$AA@ 0000000180039f90     libucrt:lcidtoname_downlevel.obj
 0002:00008f98       ??_C@_15BIEMAPLM@?$AAi?$AAs?$AA?$AA@ 0000000180039f98     libucrt:lcidtoname_downlevel.obj
 0002:00008fa0       ??_C@_15IFJLDHAF@?$AAi?$AAt?$AA?$AA@ 0000000180039fa0     libucrt:lcidtoname_downlevel.obj
 0002:00008fa8       ??_C@_15GEMIOCAG@?$AAj?$AAa?$AA?$AA@ 0000000180039fa8     libucrt:lcidtoname_downlevel.obj
 0002:00008fb0       ??_C@_15EPELEGJA@?$AAk?$AAo?$AA?$AA@ 0000000180039fb0     libucrt:lcidtoname_downlevel.obj
 0002:00008fb8       ??_C@_15NDDHIMN@?$AAn?$AAl?$AA?$AA@ 0000000180039fb8     libucrt:lcidtoname_downlevel.obj
 0002:00008fc0       ??_C@_15BPIGNHCD@?$AAn?$AAo?$AA?$AA@ 0000000180039fc0     libucrt:lcidtoname_downlevel.obj
 0002:00008fc8       ??_C@_15DEOPBLCG@?$AAp?$AAl?$AA?$AA@ 0000000180039fc8     libucrt:lcidtoname_downlevel.obj
 0002:00008fd0       ??_C@_15KBECGEFG@?$AAp?$AAt?$AA?$AA@ 0000000180039fd0     libucrt:lcidtoname_downlevel.obj
 0002:00008fd8       ??_C@_15GLJCBFMD@?$AAr?$AAo?$AA?$AA@ 0000000180039fd8     libucrt:lcidtoname_downlevel.obj
 0002:00008fe0       ??_C@_15FEDGKCDI@?$AAr?$AAu?$AA?$AA@ 0000000180039fe0     libucrt:lcidtoname_downlevel.obj
 0002:00008fe8       ??_C@_15GLKMLLHM@?$AAh?$AAr?$AA?$AA@ 0000000180039fe8     libucrt:lcidtoname_downlevel.obj
 0002:00008ff0       ??_C@_15CPKMFBDB@?$AAs?$AAk?$AA?$AA@ 0000000180039ff0     libucrt:lcidtoname_downlevel.obj
 0002:00008ff8       ??_C@_15BAAIOGMK@?$AAs?$AAq?$AA?$AA@ 0000000180039ff8     libucrt:lcidtoname_downlevel.obj
 0002:00009000       ??_C@_15INNPNOHD@?$AAs?$AAv?$AA?$AA@ 000000018003a000     libucrt:lcidtoname_downlevel.obj
 0002:00009008       ??_C@_15CABMMOGH@?$AAt?$AAh?$AA?$AA@ 000000018003a008     libucrt:lcidtoname_downlevel.obj
 0002:00009010       ??_C@_15BPLIHJJM@?$AAt?$AAr?$AA?$AA@ 000000018003a010     libucrt:lcidtoname_downlevel.obj
 0002:00009018       ??_C@_15NEOEKKDJ@?$AAu?$AAr?$AA?$AA@ 000000018003a018     libucrt:lcidtoname_downlevel.obj
 0002:00009020       ??_C@_15NFICGAJK@?$AAi?$AAd?$AA?$AA@ 000000018003a020     libucrt:lcidtoname_downlevel.obj
 0002:00009028       ??_C@_15HPJPHDM@?$AAb?$AAe?$AA?$AA@ 000000018003a028     libucrt:lcidtoname_downlevel.obj
 0002:00009030       ??_C@_15LCHLGJII@?$AAs?$AAl?$AA?$AA@ 000000018003a030     libucrt:lcidtoname_downlevel.obj
 0002:00009038       ??_C@_15PCFJPHHO@?$AAe?$AAt?$AA?$AA@ 000000018003a038     libucrt:lcidtoname_downlevel.obj
 0002:00009040       ??_C@_15HPFPGODN@?$AAl?$AAv?$AA?$AA@ 000000018003a040     libucrt:lcidtoname_downlevel.obj
 0002:00009048       ??_C@_15NFFGKGLG@?$AAl?$AAt?$AA?$AA@ 000000018003a048     libucrt:lcidtoname_downlevel.obj
 0002:00009050       ??_C@_15BDAKCCHN@?$AAf?$AAa?$AA?$AA@ 000000018003a050     libucrt:lcidtoname_downlevel.obj
 0002:00009058       ??_C@_15NFGIAIAJ@?$AAv?$AAi?$AA?$AA@ 000000018003a058     libucrt:lcidtoname_downlevel.obj
 0002:00009060       ??_C@_15LMKNDMHN@?$AAh?$AAy?$AA?$AA@ 000000018003a060     libucrt:lcidtoname_downlevel.obj
 0002:00009068       ??_C@_15IJBHMCFL@?$AAa?$AAz?$AA?$AA@ 000000018003a068     libucrt:lcidtoname_downlevel.obj
 0002:00009070       ??_C@_15EKOFJABL@?$AAe?$AAu?$AA?$AA@ 000000018003a070     libucrt:lcidtoname_downlevel.obj
 0002:00009078       ??_C@_15BGHADCNK@?$AAm?$AAk?$AA?$AA@ 000000018003a078     libucrt:lcidtoname_downlevel.obj
 0002:00009080       ??_C@_15JDNICKHM@?$AAa?$AAf?$AA?$AA@ 000000018003a080     libucrt:lcidtoname_downlevel.obj
 0002:00009088       ??_C@_15KPJEDBKD@?$AAk?$AAa?$AA?$AA@ 000000018003a088     libucrt:lcidtoname_downlevel.obj
 0002:00009090       ??_C@_15PDNFFFEO@?$AAf?$AAo?$AA?$AA@ 000000018003a090     libucrt:lcidtoname_downlevel.obj
 0002:00009098       ??_C@_15OMLEGLOC@?$AAh?$AAi?$AA?$AA@ 000000018003a098     libucrt:lcidtoname_downlevel.obj
 0002:000090a0       ??_C@_15IDNNENKK@?$AAm?$AAs?$AA?$AA@ 000000018003a0a0     libucrt:lcidtoname_downlevel.obj
 0002:000090a8       ??_C@_15MACJNBMH@?$AAk?$AAk?$AA?$AA@ 000000018003a0a8     libucrt:lcidtoname_downlevel.obj
 0002:000090b0       ??_C@_15DKDJEOND@?$AAk?$AAy?$AA?$AA@ 000000018003a0b0     libucrt:lcidtoname_downlevel.obj
 0002:000090b8       ??_C@_15DFGDLJBG@?$AAs?$AAw?$AA?$AA@ 000000018003a0b8     libucrt:lcidtoname_downlevel.obj
 0002:000090c0       ??_C@_15BBFAICNG@?$AAu?$AAz?$AA?$AA@ 000000018003a0c0     libucrt:lcidtoname_downlevel.obj
 0002:000090c8       ??_C@_15DKNDCGEA@?$AAt?$AAt?$AA?$AA@ 000000018003a0c8     libucrt:lcidtoname_downlevel.obj
 0002:000090d0       ??_C@_15MGIFMDPL@?$AAp?$AAa?$AA?$AA@ 000000018003a0d0     libucrt:lcidtoname_downlevel.obj
 0002:000090d8       ??_C@_15HCNDBBA@?$AAg?$AAu?$AA?$AA@ 000000018003a0d8     libucrt:lcidtoname_downlevel.obj
 0002:000090e0       ??_C@_15FNBEIBON@?$AAt?$AAa?$AA?$AA@ 000000018003a0e0     libucrt:lcidtoname_downlevel.obj
 0002:000090e8       ??_C@_15NCHGBGLK@?$AAt?$AAe?$AA?$AA@ 000000018003a0e8     libucrt:lcidtoname_downlevel.obj
 0002:000090f0       ??_C@_15PHPHCBPF@?$AAk?$AAn?$AA?$AA@ 000000018003a0f0     libucrt:lcidtoname_downlevel.obj
 0002:000090f8       ??_C@_15DLGBCKMP@?$AAm?$AAr?$AA?$AA@ 000000018003a0f8     libucrt:lcidtoname_downlevel.obj
 0002:00009100       ??_C@_15EABBLBFF@?$AAs?$AAa?$AA?$AA@ 000000018003a100     libucrt:lcidtoname_downlevel.obj
 0002:00009108       ??_C@_15CBKOMCOI@?$AAm?$AAn?$AA?$AA@ 000000018003a108     libucrt:lcidtoname_downlevel.obj
 0002:00009110       ??_C@_15CKDMCJAF@?$AAg?$AAl?$AA?$AA@ 000000018003a110     libucrt:lcidtoname_downlevel.obj
 0002:00009118       ??_C@_17CNJFBPG@?$AAk?$AAo?$AAk?$AA?$AA@ 000000018003a118     libucrt:lcidtoname_downlevel.obj
 0002:00009120       ??_C@_17FFBJICPL@?$AAs?$AAy?$AAr?$AA?$AA@ 000000018003a120     libucrt:lcidtoname_downlevel.obj
 0002:00009128       ??_C@_17KPNDCPAF@?$AAd?$AAi?$AAv?$AA?$AA@ 000000018003a128     libucrt:lcidtoname_downlevel.obj
 0002:00009130       ??_C@_11LOCGONAA@?$AA?$AA@ 000000018003a130     libucrt:lcidtoname_downlevel.obj
 0002:00009138       ??_C@_1M@OKAHONE@?$AAa?$AAr?$AA?9?$AAS?$AAA?$AA?$AA@ 000000018003a138     libucrt:lcidtoname_downlevel.obj
 0002:00009148       ??_C@_1M@FFFIGIGK@?$AAb?$AAg?$AA?9?$AAB?$AAG?$AA?$AA@ 000000018003a148     libucrt:lcidtoname_downlevel.obj
 0002:00009158       ??_C@_1M@BJNKEDC@?$AAc?$AAa?$AA?9?$AAE?$AAS?$AA?$AA@ 000000018003a158     libucrt:lcidtoname_downlevel.obj
 0002:00009168       ??_C@_1M@IJJHFJHA@?$AAc?$AAs?$AA?9?$AAC?$AAZ?$AA?$AA@ 000000018003a168     libucrt:lcidtoname_downlevel.obj
 0002:00009178       ??_C@_1M@CLPEOBGI@?$AAd?$AAa?$AA?9?$AAD?$AAK?$AA?$AA@ 000000018003a178     libucrt:lcidtoname_downlevel.obj
 0002:00009188       ??_C@_1M@MCMADGCB@?$AAd?$AAe?$AA?9?$AAD?$AAE?$AA?$AA@ 000000018003a188     libucrt:lcidtoname_downlevel.obj
 0002:00009198       ??_C@_1M@OOCKEMAM@?$AAe?$AAl?$AA?9?$AAG?$AAR?$AA?$AA@ 000000018003a198     libucrt:lcidtoname_downlevel.obj
 0002:000091a8       ??_C@_1M@DDNJFGID@?$AAf?$AAi?$AA?9?$AAF?$AAI?$AA?$AA@ 000000018003a1a8     libucrt:lcidtoname_downlevel.obj
 0002:000091b8       ??_C@_1M@GLIPPMAC@?$AAf?$AAr?$AA?9?$AAF?$AAR?$AA?$AA@ 000000018003a1b8     libucrt:lcidtoname_downlevel.obj
 0002:000091c8       ??_C@_1M@GFMCHPE@?$AAh?$AAe?$AA?9?$AAI?$AAL?$AA?$AA@ 000000018003a1c8     libucrt:lcidtoname_downlevel.obj
 0002:000091d8       ??_C@_1M@MHLPGNKM@?$AAh?$AAu?$AA?9?$AAH?$AAU?$AA?$AA@ 000000018003a1d8     libucrt:lcidtoname_downlevel.obj
 0002:000091e8       ??_C@_1M@LPDDNNPN@?$AAi?$AAs?$AA?9?$AAI?$AAS?$AA?$AA@ 000000018003a1e8     libucrt:lcidtoname_downlevel.obj
 0002:000091f8       ??_C@_1M@MADIPODN@?$AAi?$AAt?$AA?9?$AAI?$AAT?$AA?$AA@ 000000018003a1f8     libucrt:lcidtoname_downlevel.obj
 0002:00009208       ??_C@_1M@IHBJJGG@?$AAn?$AAl?$AA?9?$AAN?$AAL?$AA?$AA@ 000000018003a208     libucrt:lcidtoname_downlevel.obj
 0002:00009218       ??_C@_1M@EANAGDL@?$AAn?$AAb?$AA?9?$AAN?$AAO?$AA?$AA@ 000000018003a218     libucrt:lcidtoname_downlevel.obj
 0002:00009228       ??_C@_1M@NEIEMEGP@?$AAp?$AAl?$AA?9?$AAP?$AAL?$AA?$AA@ 000000018003a228     libucrt:lcidtoname_downlevel.obj
 0002:00009238       ??_C@_1M@BOCFIGEP@?$AAp?$AAt?$AA?9?$AAB?$AAR?$AA?$AA@ 000000018003a238     libucrt:lcidtoname_downlevel.obj
 0002:00009248       ??_C@_1M@IMPFOPBG@?$AAr?$AAo?$AA?9?$AAR?$AAO?$AA?$AA@ 000000018003a248     libucrt:lcidtoname_downlevel.obj
 0002:00009258       ??_C@_1M@IDNNEJMM@?$AAr?$AAu?$AA?9?$AAR?$AAU?$AA?$AA@ 000000018003a258     libucrt:lcidtoname_downlevel.obj
 0002:00009268       ??_C@_1M@LILEEOGM@?$AAh?$AAr?$AA?9?$AAH?$AAR?$AA?$AA@ 000000018003a268     libucrt:lcidtoname_downlevel.obj
 0002:00009278       ??_C@_1M@FKIFEHPB@?$AAs?$AAk?$AA?9?$AAS?$AAK?$AA?$AA@ 000000018003a278     libucrt:lcidtoname_downlevel.obj
 0002:00009288       ??_C@_1M@LJMAMNPJ@?$AAs?$AAq?$AA?9?$AAA?$AAL?$AA?$AA@ 000000018003a288     libucrt:lcidtoname_downlevel.obj
 0002:00009298       ??_C@_1M@GIAKDKJK@?$AAs?$AAv?$AA?9?$AAS?$AAE?$AA?$AA@ 000000018003a298     libucrt:lcidtoname_downlevel.obj
 0002:000092a8       ??_C@_1M@MKJKIKCL@?$AAt?$AAh?$AA?9?$AAT?$AAH?$AA?$AA@ 000000018003a2a8     libucrt:lcidtoname_downlevel.obj
 0002:000092b8       ??_C@_1M@MFLCCMPB@?$AAt?$AAr?$AA?9?$AAT?$AAR?$AA?$AA@ 000000018003a2b8     libucrt:lcidtoname_downlevel.obj
 0002:000092c8       ??_C@_1M@OIJHDKJN@?$AAu?$AAr?$AA?9?$AAP?$AAK?$AA?$AA@ 000000018003a2c8     libucrt:lcidtoname_downlevel.obj
 0002:000092d8       ??_C@_1M@LHIPCIEK@?$AAi?$AAd?$AA?9?$AAI?$AAD?$AA?$AA@ 000000018003a2d8     libucrt:lcidtoname_downlevel.obj
 0002:000092e8       ??_C@_1M@MFMOBGI@?$AAu?$AAk?$AA?9?$AAU?$AAA?$AA?$AA@ 000000018003a2e8     libucrt:lcidtoname_downlevel.obj
 0002:000092f8       ??_C@_1M@OBGLJIPL@?$AAb?$AAe?$AA?9?$AAB?$AAY?$AA?$AA@ 000000018003a2f8     libucrt:lcidtoname_downlevel.obj
 0002:00009308       ??_C@_1M@BCFAJEAD@?$AAs?$AAl?$AA?9?$AAS?$AAI?$AA?$AA@ 000000018003a308     libucrt:lcidtoname_downlevel.obj
 0002:00009318       ??_C@_1M@FKFFEDDN@?$AAe?$AAt?$AA?9?$AAE?$AAE?$AA?$AA@ 000000018003a318     libucrt:lcidtoname_downlevel.obj
 0002:00009328       ??_C@_1M@KGKKAACI@?$AAl?$AAv?$AA?9?$AAL?$AAV?$AA?$AA@ 000000018003a328     libucrt:lcidtoname_downlevel.obj
 0002:00009338       ??_C@_1M@IFGBIJO@?$AAl?$AAt?$AA?9?$AAL?$AAT?$AA?$AA@ 000000018003a338     libucrt:lcidtoname_downlevel.obj
 0002:00009348       ??_C@_1M@FGEAHEDM@?$AAf?$AAa?$AA?9?$AAI?$AAR?$AA?$AA@ 000000018003a348     libucrt:lcidtoname_downlevel.obj
 0002:00009358       ??_C@_1M@KBMAIBFN@?$AAv?$AAi?$AA?9?$AAV?$AAN?$AA?$AA@ 000000018003a358     libucrt:lcidtoname_downlevel.obj
 0002:00009368       ??_C@_1M@GPCBKDJK@?$AAh?$AAy?$AA?9?$AAA?$AAM?$AA?$AA@ 000000018003a368     libucrt:lcidtoname_downlevel.obj
 0002:00009378       ??_C@_1BG@BECMDDJB@?$AAa?$AAz?$AA?9?$AAA?$AAZ?$AA?9?$AAL?$AAa?$AAt?$AAn?$AA?$AA@ 000000018003a378     libucrt:lcidtoname_downlevel.obj
 0002:00009390       ??_C@_1M@MAOFCAEA@?$AAe?$AAu?$AA?9?$AAE?$AAS?$AA?$AA@ 000000018003a390     libucrt:lcidtoname_downlevel.obj
 0002:000093a0       ??_C@_1M@IGHABKPI@?$AAm?$AAk?$AA?9?$AAM?$AAK?$AA?$AA@ 000000018003a3a0     libucrt:lcidtoname_downlevel.obj
 0002:000093b0       ??_C@_1M@IAIGNEJG@?$AAt?$AAn?$AA?9?$AAZ?$AAA?$AA?$AA@ 000000018003a3b0     libucrt:lcidtoname_downlevel.obj
 0002:000093c0       ??_C@_1M@IIJCOJFA@?$AAx?$AAh?$AA?9?$AAZ?$AAA?$AA?$AA@ 000000018003a3c0     libucrt:lcidtoname_downlevel.obj
 0002:000093d0       ??_C@_1M@LGPJHNJH@?$AAz?$AAu?$AA?9?$AAZ?$AAA?$AA?$AA@ 000000018003a3d0     libucrt:lcidtoname_downlevel.obj
 0002:000093e0       ??_C@_1M@HOKAOIO@?$AAa?$AAf?$AA?9?$AAZ?$AAA?$AA?$AA@ 000000018003a3e0     libucrt:lcidtoname_downlevel.obj
 0002:000093f0       ??_C@_1M@DPCLHLIE@?$AAk?$AAa?$AA?9?$AAG?$AAE?$AA?$AA@ 000000018003a3f0     libucrt:lcidtoname_downlevel.obj
 0002:00009400       ??_C@_1M@BLKMHJBI@?$AAf?$AAo?$AA?9?$AAF?$AAO?$AA?$AA@ 000000018003a400     libucrt:lcidtoname_downlevel.obj
 0002:00009410       ??_C@_1M@LGGJAPPB@?$AAh?$AAi?$AA?9?$AAI?$AAN?$AA?$AA@ 000000018003a410     libucrt:lcidtoname_downlevel.obj
 0002:00009420       ??_C@_1M@FIKPIHFE@?$AAm?$AAt?$AA?9?$AAM?$AAT?$AA?$AA@ 000000018003a420     libucrt:lcidtoname_downlevel.obj
 0002:00009430       ??_C@_1M@HEGGPBFA@?$AAs?$AAe?$AA?9?$AAN?$AAO?$AA?$AA@ 000000018003a430     libucrt:lcidtoname_downlevel.obj
 0002:00009440       ??_C@_1M@EIBJEEPA@?$AAm?$AAs?$AA?9?$AAM?$AAY?$AA?$AA@ 000000018003a440     libucrt:lcidtoname_downlevel.obj
 0002:00009450       ??_C@_1M@FHLBGMPP@?$AAk?$AAk?$AA?9?$AAK?$AAZ?$AA?$AA@ 000000018003a450     libucrt:lcidtoname_downlevel.obj
 0002:00009460       ??_C@_1M@NGJJLCGI@?$AAk?$AAy?$AA?9?$AAK?$AAG?$AA?$AA@ 000000018003a460     libucrt:lcidtoname_downlevel.obj
 0002:00009470       ??_C@_1M@GIENNBFC@?$AAs?$AAw?$AA?9?$AAK?$AAE?$AA?$AA@ 000000018003a470     libucrt:lcidtoname_downlevel.obj
 0002:00009480       ??_C@_1BG@NDGMJIMJ@?$AAu?$AAz?$AA?9?$AAU?$AAZ?$AA?9?$AAL?$AAa?$AAt?$AAn?$AA?$AA@ 000000018003a480     libucrt:lcidtoname_downlevel.obj
 0002:00009498       ??_C@_1M@IDCCIHBC@?$AAt?$AAt?$AA?9?$AAR?$AAU?$AA?$AA@ 000000018003a498     libucrt:lcidtoname_downlevel.obj
 0002:000094a8       ??_C@_1M@LOICPMOJ@?$AAb?$AAn?$AA?9?$AAI?$AAN?$AA?$AA@ 000000018003a4a8     libucrt:lcidtoname_downlevel.obj
 0002:000094b8       ??_C@_1M@KPKKNEAH@?$AAp?$AAa?$AA?9?$AAI?$AAN?$AA?$AA@ 000000018003a4b8     libucrt:lcidtoname_downlevel.obj
 0002:000094c8       ??_C@_1M@PJGPPBOG@?$AAg?$AAu?$AA?9?$AAI?$AAN?$AA?$AA@ 000000018003a4c8     libucrt:lcidtoname_downlevel.obj
 0002:000094d8       ??_C@_1M@KMKMOPHI@?$AAt?$AAa?$AA?9?$AAI?$AAN?$AA?$AA@ 000000018003a4d8     libucrt:lcidtoname_downlevel.obj
 0002:000094e8       ??_C@_1M@KFEHEPAC@?$AAt?$AAe?$AA?9?$AAI?$AAN?$AA?$AA@ 000000018003a4e8     libucrt:lcidtoname_downlevel.obj
 0002:000094f8       ??_C@_1M@CDCLMGHI@?$AAk?$AAn?$AA?9?$AAI?$AAN?$AA?$AA@ 000000018003a4f8     libucrt:lcidtoname_downlevel.obj
 0002:00009508       ??_C@_1M@MIODLDKF@?$AAm?$AAl?$AA?9?$AAI?$AAN?$AA?$AA@ 000000018003a508     libucrt:lcidtoname_downlevel.obj
 0002:00009518       ??_C@_1M@PBIEACPO@?$AAm?$AAr?$AA?9?$AAI?$AAN?$AA?$AA@ 000000018003a518     libucrt:lcidtoname_downlevel.obj
 0002:00009528       ??_C@_1M@NIDEAGPH@?$AAs?$AAa?$AA?9?$AAI?$AAN?$AA?$AA@ 000000018003a528     libucrt:lcidtoname_downlevel.obj
 0002:00009538       ??_C@_1M@FHIHCBIO@?$AAm?$AAn?$AA?9?$AAM?$AAN?$AA?$AA@ 000000018003a538     libucrt:lcidtoname_downlevel.obj
 0002:00009548       ??_C@_1M@JAIJPENP@?$AAc?$AAy?$AA?9?$AAG?$AAB?$AA?$AA@ 000000018003a548     libucrt:lcidtoname_downlevel.obj
 0002:00009558       ??_C@_1M@PHGFBEPN@?$AAg?$AAl?$AA?9?$AAE?$AAS?$AA?$AA@ 000000018003a558     libucrt:lcidtoname_downlevel.obj
 0002:00009568       ??_C@_1O@KPIPDNCP@?$AAk?$AAo?$AAk?$AA?9?$AAI?$AAN?$AA?$AA@ 000000018003a568     libucrt:lcidtoname_downlevel.obj
 0002:00009578       ??_C@_1O@KNHJLDJA@?$AAs?$AAy?$AAr?$AA?9?$AAS?$AAY?$AA?$AA@ 000000018003a578     libucrt:lcidtoname_downlevel.obj
 0002:00009588       ??_C@_1O@MKEKBLAH@?$AAd?$AAi?$AAv?$AA?9?$AAM?$AAV?$AA?$AA@ 000000018003a588     libucrt:lcidtoname_downlevel.obj
 0002:00009598       ??_C@_1O@OHDCKDDF@?$AAq?$AAu?$AAz?$AA?9?$AAB?$AAO?$AA?$AA@ 000000018003a598     libucrt:lcidtoname_downlevel.obj
 0002:000095a8       ??_C@_1M@LEPJNLFD@?$AAn?$AAs?$AA?9?$AAZ?$AAA?$AA?$AA@ 000000018003a5a8     libucrt:lcidtoname_downlevel.obj
 0002:000095b8       ??_C@_1M@OMLEIIJB@?$AAm?$AAi?$AA?9?$AAN?$AAZ?$AA?$AA@ 000000018003a5b8     libucrt:lcidtoname_downlevel.obj
 0002:000095c8       ??_C@_1M@PMPEAILG@?$AAa?$AAr?$AA?9?$AAI?$AAQ?$AA?$AA@ 000000018003a5c8     libucrt:lcidtoname_downlevel.obj
 0002:000095d8       ??_C@_1M@CNKPNOEE@?$AAd?$AAe?$AA?9?$AAC?$AAH?$AA?$AA@ 000000018003a5d8     libucrt:lcidtoname_downlevel.obj
 0002:000095e8       ??_C@_1M@LKMGMLKO@?$AAe?$AAn?$AA?9?$AAG?$AAB?$AA?$AA@ 000000018003a5e8     libucrt:lcidtoname_downlevel.obj
 0002:000095f8       ??_C@_1M@PGKJFFGL@?$AAe?$AAs?$AA?9?$AAM?$AAX?$AA?$AA@ 000000018003a5f8     libucrt:lcidtoname_downlevel.obj
 0002:00009608       ??_C@_1M@DNNANBDC@?$AAf?$AAr?$AA?9?$AAB?$AAE?$AA?$AA@ 000000018003a608     libucrt:lcidtoname_downlevel.obj
 0002:00009618       ??_C@_1M@HLGMDFHM@?$AAi?$AAt?$AA?9?$AAC?$AAH?$AA?$AA@ 000000018003a618     libucrt:lcidtoname_downlevel.obj
 0002:00009628       ??_C@_1M@CLLBGJH@?$AAn?$AAl?$AA?9?$AAB?$AAE?$AA?$AA@ 000000018003a628     libucrt:lcidtoname_downlevel.obj
 0002:00009638       ??_C@_1M@BODBOGLF@?$AAn?$AAn?$AA?9?$AAN?$AAO?$AA?$AA@ 000000018003a638     libucrt:lcidtoname_downlevel.obj
 0002:00009648       ??_C@_1M@HFFAHKAD@?$AAp?$AAt?$AA?9?$AAP?$AAT?$AA?$AA@ 000000018003a648     libucrt:lcidtoname_downlevel.obj
 0002:00009658       ??_C@_1BG@LNOAKHIE@?$AAs?$AAr?$AA?9?$AAS?$AAP?$AA?9?$AAL?$AAa?$AAt?$AAn?$AA?$AA@ 000000018003a658     libucrt:lcidtoname_downlevel.obj
 0002:00009670       ??_C@_1M@HBMHBGAK@?$AAs?$AAv?$AA?9?$AAF?$AAI?$AA?$AA@ 000000018003a670     libucrt:lcidtoname_downlevel.obj
 0002:00009680       ??_C@_1BG@DGCJGJBE@?$AAa?$AAz?$AA?9?$AAA?$AAZ?$AA?9?$AAC?$AAy?$AAr?$AAl?$AA?$AA@ 000000018003a680     libucrt:lcidtoname_downlevel.obj
 0002:00009698       ??_C@_1M@KEJDAAHB@?$AAs?$AAe?$AA?9?$AAS?$AAE?$AA?$AA@ 000000018003a698     libucrt:lcidtoname_downlevel.obj
 0002:000096a8       ??_C@_1M@HEIBJJAD@?$AAm?$AAs?$AA?9?$AAB?$AAN?$AA?$AA@ 000000018003a6a8     libucrt:lcidtoname_downlevel.obj
 0002:000096b8       ??_C@_1BG@PBGJMCEM@?$AAu?$AAz?$AA?9?$AAU?$AAZ?$AA?9?$AAC?$AAy?$AAr?$AAl?$AA?$AA@ 000000018003a6b8     libucrt:lcidtoname_downlevel.obj
 0002:000096d0       ??_C@_1O@LAOBCMDF@?$AAq?$AAu?$AAz?$AA?9?$AAE?$AAC?$AA?$AA@ 000000018003a6d0     libucrt:lcidtoname_downlevel.obj
 0002:000096e0       ??_C@_1M@POEEMAIO@?$AAa?$AAr?$AA?9?$AAE?$AAG?$AA?$AA@ 000000018003a6e0     libucrt:lcidtoname_downlevel.obj
 0002:000096f0       ??_C@_1M@EFAKDEDL@?$AAz?$AAh?$AA?9?$AAH?$AAK?$AA?$AA@ 000000018003a6f0     libucrt:lcidtoname_downlevel.obj
 0002:00009700       ??_C@_1M@HKKIJHGI@?$AAd?$AAe?$AA?9?$AAA?$AAT?$AA?$AA@ 000000018003a700     libucrt:lcidtoname_downlevel.obj
 0002:00009710       ??_C@_1M@KBFBEHJF@?$AAe?$AAn?$AA?9?$AAA?$AAU?$AA?$AA@ 000000018003a710     libucrt:lcidtoname_downlevel.obj
 0002:00009720       ??_C@_1M@MNPLFAAH@?$AAe?$AAs?$AA?9?$AAE?$AAS?$AA?$AA@ 000000018003a720     libucrt:lcidtoname_downlevel.obj
 0002:00009730       ??_C@_1M@HJOOJFMA@?$AAf?$AAr?$AA?9?$AAC?$AAA?$AA?$AA@ 000000018003a730     libucrt:lcidtoname_downlevel.obj
 0002:00009740       ??_C@_1BG@JPOFPNAB@?$AAs?$AAr?$AA?9?$AAS?$AAP?$AA?9?$AAC?$AAy?$AAr?$AAl?$AA?$AA@ 000000018003a740     libucrt:lcidtoname_downlevel.obj
 0002:00009758       ??_C@_1M@LNFOCMOB@?$AAs?$AAe?$AA?9?$AAF?$AAI?$AA?$AA@ 000000018003a758     libucrt:lcidtoname_downlevel.obj
 0002:00009768       ??_C@_1O@MGJBOAMB@?$AAq?$AAu?$AAz?$AA?9?$AAP?$AAE?$AA?$AA@ 000000018003a768     libucrt:lcidtoname_downlevel.obj
 0002:00009778       ??_C@_1M@GJINLBOK@?$AAa?$AAr?$AA?9?$AAL?$AAY?$AA?$AA@ 000000018003a778     libucrt:lcidtoname_downlevel.obj
 0002:00009788       ??_C@_1M@GGMNHJNL@?$AAz?$AAh?$AA?9?$AAS?$AAG?$AA?$AA@ 000000018003a788     libucrt:lcidtoname_downlevel.obj
 0002:00009798       ??_C@_1M@HOIKODND@?$AAd?$AAe?$AA?9?$AAL?$AAU?$AA?$AA@ 000000018003a798     libucrt:lcidtoname_downlevel.obj
 0002:000097a8       ??_C@_1M@DDOCCGFG@?$AAe?$AAn?$AA?9?$AAC?$AAA?$AA?$AA@ 000000018003a7a8     libucrt:lcidtoname_downlevel.obj
 0002:000097b8       ??_C@_1M@BNOEMJLF@?$AAe?$AAs?$AA?9?$AAG?$AAT?$AA?$AA@ 000000018003a7b8     libucrt:lcidtoname_downlevel.obj
 0002:000097c8       ??_C@_1M@EOGNKEK@?$AAf?$AAr?$AA?9?$AAC?$AAH?$AA?$AA@ 000000018003a7c8     libucrt:lcidtoname_downlevel.obj
 0002:000097d8       ??_C@_1M@FLIDJFHL@?$AAh?$AAr?$AA?9?$AAB?$AAA?$AA?$AA@ 000000018003a7d8     libucrt:lcidtoname_downlevel.obj
 0002:000097e8       ??_C@_1O@FMCELNAJ@?$AAs?$AAm?$AAj?$AA?9?$AAN?$AAO?$AA?$AA@ 000000018003a7e8     libucrt:lcidtoname_downlevel.obj
 0002:000097f8       ??_C@_1M@JHGLJMGJ@?$AAa?$AAr?$AA?9?$AAD?$AAZ?$AA?$AA@ 000000018003a7f8     libucrt:lcidtoname_downlevel.obj
 0002:00009808       ??_C@_1M@JKKFDCNP@?$AAz?$AAh?$AA?9?$AAM?$AAO?$AA?$AA@ 000000018003a808     libucrt:lcidtoname_downlevel.obj
 0002:00009818       ??_C@_1M@GEEFALPE@?$AAd?$AAe?$AA?9?$AAL?$AAI?$AA?$AA@ 000000018003a818     libucrt:lcidtoname_downlevel.obj
 0002:00009828       ??_C@_1M@IGEOFBG@?$AAe?$AAn?$AA?9?$AAN?$AAZ?$AA?$AA@ 000000018003a828     libucrt:lcidtoname_downlevel.obj
 0002:00009838       ??_C@_1M@KDBONEHP@?$AAe?$AAs?$AA?9?$AAC?$AAR?$AA?$AA@ 000000018003a838     libucrt:lcidtoname_downlevel.obj
 0002:00009848       ??_C@_1M@FHMDOHNN@?$AAf?$AAr?$AA?9?$AAL?$AAU?$AA?$AA@ 000000018003a848     libucrt:lcidtoname_downlevel.obj
 0002:00009858       ??_C@_1BG@NFKKMAFG@?$AAb?$AAs?$AA?9?$AAB?$AAA?$AA?9?$AAL?$AAa?$AAt?$AAn?$AA?$AA@ 000000018003a858     libucrt:lcidtoname_downlevel.obj
 0002:00009870       ??_C@_1O@IMNBEMCI@?$AAs?$AAm?$AAj?$AA?9?$AAS?$AAE?$AA?$AA@ 000000018003a870     libucrt:lcidtoname_downlevel.obj
 0002:00009880       ??_C@_1M@DHHMBNDP@?$AAa?$AAr?$AA?9?$AAM?$AAA?$AA?$AA@ 000000018003a880     libucrt:lcidtoname_downlevel.obj
 0002:00009890       ??_C@_1M@BNBLJCGH@?$AAe?$AAn?$AA?9?$AAI?$AAE?$AA?$AA@ 000000018003a890     libucrt:lcidtoname_downlevel.obj
 0002:000098a0       ??_C@_1M@GEPAFMDL@?$AAe?$AAs?$AA?9?$AAP?$AAA?$AA?$AA@ 000000018003a8a0     libucrt:lcidtoname_downlevel.obj
 0002:000098b0       ??_C@_1M@OJONDMDL@?$AAf?$AAr?$AA?9?$AAM?$AAC?$AA?$AA@ 000000018003a8b0     libucrt:lcidtoname_downlevel.obj
 0002:000098c0       ??_C@_1BG@OBCNFJB@?$AAs?$AAr?$AA?9?$AAB?$AAA?$AA?9?$AAL?$AAa?$AAt?$AAn?$AA?$AA@ 000000018003a8c0     libucrt:lcidtoname_downlevel.obj
 0002:000098d8       ??_C@_1O@KEMEEGPO@?$AAs?$AAm?$AAa?$AA?9?$AAN?$AAO?$AA?$AA@ 000000018003a8d8     libucrt:lcidtoname_downlevel.obj
 0002:000098e8       ??_C@_1M@ELMGFODK@?$AAa?$AAr?$AA?9?$AAT?$AAN?$AA?$AA@ 000000018003a8e8     libucrt:lcidtoname_downlevel.obj
 0002:000098f8       ??_C@_1M@BHDLHFAF@?$AAe?$AAn?$AA?9?$AAZ?$AAA?$AA?$AA@ 000000018003a8f8     libucrt:lcidtoname_downlevel.obj
 0002:00009908       ??_C@_1M@BMGIGLIF@?$AAe?$AAs?$AA?9?$AAD?$AAO?$AA?$AA@ 000000018003a908     libucrt:lcidtoname_downlevel.obj
 0002:00009918       ??_C@_1BG@CMBHIPBE@?$AAs?$AAr?$AA?9?$AAB?$AAA?$AA?9?$AAC?$AAy?$AAr?$AAl?$AA?$AA@ 000000018003a918     libucrt:lcidtoname_downlevel.obj
 0002:00009930       ??_C@_1O@HEDBLHNP@?$AAs?$AAm?$AAa?$AA?9?$AAS?$AAE?$AA?$AA@ 000000018003a930     libucrt:lcidtoname_downlevel.obj
 0002:00009940       ??_C@_1M@DAGCADIM@?$AAa?$AAr?$AA?9?$AAO?$AAM?$AA?$AA@ 000000018003a940     libucrt:lcidtoname_downlevel.obj
 0002:00009950       ??_C@_1M@FODLMICG@?$AAe?$AAn?$AA?9?$AAJ?$AAM?$AA?$AA@ 000000018003a950     libucrt:lcidtoname_downlevel.obj
 0002:00009960       ??_C@_1M@DNMLCIHB@?$AAe?$AAs?$AA?9?$AAV?$AAE?$AA?$AA@ 000000018003a960     libucrt:lcidtoname_downlevel.obj
 0002:00009970       ??_C@_1O@EOKHMKJK@?$AAs?$AAm?$AAs?$AA?9?$AAF?$AAI?$AA?$AA@ 000000018003a970     libucrt:lcidtoname_downlevel.obj
 0002:00009980       ??_C@_1M@CAFJMKOF@?$AAa?$AAr?$AA?9?$AAY?$AAE?$AA?$AA@ 000000018003a980     libucrt:lcidtoname_downlevel.obj
 0002:00009990       ??_C@_1M@CBFHIJLI@?$AAe?$AAn?$AA?9?$AAC?$AAB?$AA?$AA@ 000000018003a990     libucrt:lcidtoname_downlevel.obj
 0002:000099a0       ??_C@_1M@BGNFLDN@?$AAe?$AAs?$AA?9?$AAC?$AAO?$AA?$AA@ 000000018003a9a0     libucrt:lcidtoname_downlevel.obj
 0002:000099b0       ??_C@_1O@JMPHMAMC@?$AAs?$AAm?$AAn?$AA?9?$AAF?$AAI?$AA?$AA@ 000000018003a9b0     libucrt:lcidtoname_downlevel.obj
 0002:000099c0       ??_C@_1M@JLANABKE@?$AAa?$AAr?$AA?9?$AAS?$AAY?$AA?$AA@ 000000018003a9c0     libucrt:lcidtoname_downlevel.obj
 0002:000099d0       ??_C@_1M@HPKGCFGN@?$AAe?$AAn?$AA?9?$AAB?$AAZ?$AA?$AA@ 000000018003a9d0     libucrt:lcidtoname_downlevel.obj
 0002:000099e0       ??_C@_1M@OLJCMLGM@?$AAe?$AAs?$AA?9?$AAP?$AAE?$AA?$AA@ 000000018003a9e0     libucrt:lcidtoname_downlevel.obj
 0002:000099f0       ??_C@_1M@MKKGFKLE@?$AAa?$AAr?$AA?9?$AAJ?$AAO?$AA?$AA@ 000000018003a9f0     libucrt:lcidtoname_downlevel.obj
 0002:00009a00       ??_C@_1M@EKPGLDNI@?$AAe?$AAn?$AA?9?$AAT?$AAT?$AA?$AA@ 000000018003aa00     libucrt:lcidtoname_downlevel.obj
 0002:00009a10       ??_C@_1M@OONGHFHE@?$AAe?$AAs?$AA?9?$AAA?$AAR?$AA?$AA@ 000000018003aa10     libucrt:lcidtoname_downlevel.obj
 0002:00009a20       ??_C@_1M@OOJFGBHE@?$AAa?$AAr?$AA?9?$AAL?$AAB?$AA?$AA@ 000000018003aa20     libucrt:lcidtoname_downlevel.obj
 0002:00009a30       ??_C@_1M@GCEJHNEG@?$AAe?$AAn?$AA?9?$AAZ?$AAW?$AA?$AA@ 000000018003aa30     libucrt:lcidtoname_downlevel.obj
 0002:00009a40       ??_C@_1M@JNOCAHJI@?$AAe?$AAs?$AA?9?$AAE?$AAC?$AA?$AA@ 000000018003aa40     libucrt:lcidtoname_downlevel.obj
 0002:00009a50       ??_C@_1M@JEFHPGGB@?$AAa?$AAr?$AA?9?$AAK?$AAW?$AA?$AA@ 000000018003aa50     libucrt:lcidtoname_downlevel.obj
 0002:00009a60       ??_C@_1M@MLKIBJOJ@?$AAe?$AAn?$AA?9?$AAP?$AAH?$AA?$AA@ 000000018003aa60     libucrt:lcidtoname_downlevel.obj
 0002:00009a70       ??_C@_1M@BDNIPEND@?$AAe?$AAs?$AA?9?$AAC?$AAL?$AA?$AA@ 000000018003aa70     libucrt:lcidtoname_downlevel.obj
 0002:00009a80       ??_C@_1M@MPNMEKBD@?$AAa?$AAr?$AA?9?$AAA?$AAE?$AA?$AA@ 000000018003aa80     libucrt:lcidtoname_downlevel.obj
 0002:00009a90       ??_C@_1M@KBJALCPI@?$AAe?$AAs?$AA?9?$AAU?$AAY?$AA?$AA@ 000000018003aa90     libucrt:lcidtoname_downlevel.obj
 0002:00009aa0       ??_C@_1M@LLCCOAGA@?$AAa?$AAr?$AA?9?$AAB?$AAH?$AA?$AA@ 000000018003aaa0     libucrt:lcidtoname_downlevel.obj
 0002:00009ab0       ??_C@_1M@PBFNCDEL@?$AAe?$AAs?$AA?9?$AAP?$AAY?$AA?$AA@ 000000018003aab0     libucrt:lcidtoname_downlevel.obj
 0002:00009ac0       ??_C@_1M@EDGINPNP@?$AAa?$AAr?$AA?9?$AAQ?$AAA?$AA?$AA@ 000000018003aac0     libucrt:lcidtoname_downlevel.obj
 0002:00009ad0       ??_C@_1M@MKDBIIJI@?$AAe?$AAs?$AA?9?$AAB?$AAO?$AA?$AA@ 000000018003aad0     libucrt:lcidtoname_downlevel.obj
 0002:00009ae0       ??_C@_1M@CPKKEBLD@?$AAe?$AAs?$AA?9?$AAS?$AAV?$AA?$AA@ 000000018003aae0     libucrt:lcidtoname_downlevel.obj
 0002:00009af0       ??_C@_1M@NDBGMMJL@?$AAe?$AAs?$AA?9?$AAH?$AAN?$AA?$AA@ 000000018003aaf0     libucrt:lcidtoname_downlevel.obj
 0002:00009b00       ??_C@_1M@JIJIBHDP@?$AAe?$AAs?$AA?9?$AAN?$AAI?$AA?$AA@ 000000018003ab00     libucrt:lcidtoname_downlevel.obj
 0002:00009b10       ??_C@_1M@CGFMKEEK@?$AAe?$AAs?$AA?9?$AAP?$AAR?$AA?$AA@ 000000018003ab10     libucrt:lcidtoname_downlevel.obj
 0002:00009b20       ??_C@_1O@ICJHKIIK@?$AAz?$AAh?$AA?9?$AAC?$AAH?$AAT?$AA?$AA@ 000000018003ab20     libucrt:lcidtoname_downlevel.obj
 0002:00009b30       ??_C@_15CLNEJCE@?$AAs?$AAr?$AA?$AA@ 000000018003ab30     libucrt:lcidtoname_downlevel.obj
 0002:0000a980       ??_C@_1M@KAHEKEIG@?$AAa?$AAf?$AA?9?$AAz?$AAa?$AA?$AA@ 000000018003b980     libucrt:lcidtoname_downlevel.obj
 0002:0000a990       ??_C@_1M@GIECOABL@?$AAa?$AAr?$AA?9?$AAa?$AAe?$AA?$AA@ 000000018003b990     libucrt:lcidtoname_downlevel.obj
 0002:0000a9a0       ??_C@_1M@BMLMEKGI@?$AAa?$AAr?$AA?9?$AAb?$AAh?$AA?$AA@ 000000018003b9a0     libucrt:lcidtoname_downlevel.obj
 0002:0000a9b0       ??_C@_1M@DAPFDGGB@?$AAa?$AAr?$AA?9?$AAd?$AAz?$AA?$AA@ 000000018003b9b0     libucrt:lcidtoname_downlevel.obj
 0002:0000a9c0       ??_C@_1M@FJNKGKIG@?$AAa?$AAr?$AA?9?$AAe?$AAg?$AA?$AA@ 000000018003b9c0     libucrt:lcidtoname_downlevel.obj
 0002:0000a9d0       ??_C@_1M@FLGKKCLO@?$AAa?$AAr?$AA?9?$AAi?$AAq?$AA?$AA@ 000000018003b9d0     libucrt:lcidtoname_downlevel.obj
 0002:0000a9e0       ??_C@_1M@GNDIPALM@?$AAa?$AAr?$AA?9?$AAj?$AAo?$AA?$AA@ 000000018003b9e0     libucrt:lcidtoname_downlevel.obj
 0002:0000a9f0       ??_C@_1M@DDMJFMGJ@?$AAa?$AAr?$AA?9?$AAk?$AAw?$AA?$AA@ 000000018003b9f0     libucrt:lcidtoname_downlevel.obj
 0002:0000aa00       ??_C@_1M@EJALMLHM@?$AAa?$AAr?$AA?9?$AAl?$AAb?$AA?$AA@ 000000018003ba00     libucrt:lcidtoname_downlevel.obj
 0002:0000aa10       ??_C@_1M@MOBDBLOC@?$AAa?$AAr?$AA?9?$AAl?$AAy?$AA?$AA@ 000000018003ba10     libucrt:lcidtoname_downlevel.obj
 0002:0000aa20       ??_C@_1M@JAOCLHDH@?$AAa?$AAr?$AA?9?$AAm?$AAa?$AA?$AA@ 000000018003ba20     libucrt:lcidtoname_downlevel.obj
 0002:0000aa30       ??_C@_1M@JHPMKJIE@?$AAa?$AAr?$AA?9?$AAo?$AAm?$AA?$AA@ 000000018003ba30     libucrt:lcidtoname_downlevel.obj
 0002:0000aa40       ??_C@_1M@OEPGHFNH@?$AAa?$AAr?$AA?9?$AAq?$AAa?$AA?$AA@ 000000018003ba40     libucrt:lcidtoname_downlevel.obj
 0002:0000aa50       ??_C@_1M@KJDONENM@?$AAa?$AAr?$AA?9?$AAs?$AAa?$AA?$AA@ 000000018003ba50     libucrt:lcidtoname_downlevel.obj
 0002:0000aa60       ??_C@_1M@DMJDKLKM@?$AAa?$AAr?$AA?9?$AAs?$AAy?$AA?$AA@ 000000018003ba60     libucrt:lcidtoname_downlevel.obj
 0002:0000aa70       ??_C@_1M@OMFIPEDC@?$AAa?$AAr?$AA?9?$AAt?$AAn?$AA?$AA@ 000000018003ba70     libucrt:lcidtoname_downlevel.obj
 0002:0000aa80       ??_C@_1M@IHMHGAON@?$AAa?$AAr?$AA?9?$AAy?$AAe?$AA?$AA@ 000000018003ba80     libucrt:lcidtoname_downlevel.obj
 0002:0000aa90       ??_C@_1BG@KDCPGJGB@?$AAa?$AAz?$AA?9?$AAa?$AAz?$AA?9?$AAc?$AAy?$AAr?$AAl?$AA?$AA@ 000000018003ba90     libucrt:lcidtoname_downlevel.obj
 0002:0000aaa8       ??_C@_1BG@IBCKDDOE@?$AAa?$AAz?$AA?9?$AAa?$AAz?$AA?9?$AAl?$AAa?$AAt?$AAn?$AA?$AA@ 000000018003baa8     libucrt:lcidtoname_downlevel.obj
 0002:0000aac0       ??_C@_1M@EGPFDCPD@?$AAb?$AAe?$AA?9?$AAb?$AAy?$AA?$AA@ 000000018003bac0     libucrt:lcidtoname_downlevel.obj
 0002:0000aad0       ??_C@_1M@PCMGMCGC@?$AAb?$AAg?$AA?9?$AAb?$AAg?$AA?$AA@ 000000018003bad0     libucrt:lcidtoname_downlevel.obj
 0002:0000aae0       ??_C@_1M@BJBMFGOB@?$AAb?$AAn?$AA?9?$AAi?$AAn?$AA?$AA@ 000000018003bae0     libucrt:lcidtoname_downlevel.obj
 0002:0000aaf0       ??_C@_1BG@EAKMMACD@?$AAb?$AAs?$AA?9?$AAb?$AAa?$AA?9?$AAl?$AAa?$AAt?$AAn?$AA?$AA@ 000000018003baf0     libucrt:lcidtoname_downlevel.obj
 0002:0000ab08       ??_C@_1M@KGADAODK@?$AAc?$AAa?$AA?9?$AAe?$AAs?$AA?$AA@ 000000018003bb08     libucrt:lcidtoname_downlevel.obj
 0002:0000ab18       ??_C@_1M@COAJPDHI@?$AAc?$AAs?$AA?9?$AAc?$AAz?$AA?$AA@ 000000018003bb18     libucrt:lcidtoname_downlevel.obj
 0002:0000ab28       ??_C@_1M@DHBHFONH@?$AAc?$AAy?$AA?9?$AAg?$AAb?$AA?$AA@ 000000018003bb28     libucrt:lcidtoname_downlevel.obj
 0002:0000ab38       ??_C@_1M@IMGKELGA@?$AAd?$AAa?$AA?9?$AAd?$AAk?$AA?$AA@ 000000018003bb38     libucrt:lcidtoname_downlevel.obj
 0002:0000ab48       ??_C@_1M@NNDGDNGA@?$AAd?$AAe?$AA?9?$AAa?$AAt?$AA?$AA@ 000000018003bb48     libucrt:lcidtoname_downlevel.obj
 0002:0000ab58       ??_C@_1M@IKDBHEEM@?$AAd?$AAe?$AA?9?$AAc?$AAh?$AA?$AA@ 000000018003bb58     libucrt:lcidtoname_downlevel.obj
 0002:0000ab68       ??_C@_1M@GFFOJMCJ@?$AAd?$AAe?$AA?9?$AAd?$AAe?$AA?$AA@ 000000018003bb68     libucrt:lcidtoname_downlevel.obj
 0002:0000ab78       ??_C@_1M@MDNLKBPM@?$AAd?$AAe?$AA?9?$AAl?$AAi?$AA?$AA@ 000000018003bb78     libucrt:lcidtoname_downlevel.obj
 0002:0000ab88       ??_C@_1M@NJBEEJNL@?$AAd?$AAe?$AA?9?$AAl?$AAu?$AA?$AA@ 000000018003bb88     libucrt:lcidtoname_downlevel.obj
 0002:0000ab98       ??_C@_1O@GNNELBAP@?$AAd?$AAi?$AAv?$AA?9?$AAm?$AAv?$AA?$AA@ 000000018003bb98     libucrt:lcidtoname_downlevel.obj
 0002:0000aba8       ??_C@_1M@EJLEOGAE@?$AAe?$AAl?$AA?9?$AAg?$AAr?$AA?$AA@ 000000018003bba8     libucrt:lcidtoname_downlevel.obj
 0002:0000abb8       ??_C@_1M@GMPONJN@?$AAe?$AAn?$AA?9?$AAa?$AAu?$AA?$AA@ 000000018003bbb8     libucrt:lcidtoname_downlevel.obj
 0002:0000abc8       ??_C@_1M@NIDIIPGF@?$AAe?$AAn?$AA?9?$AAb?$AAz?$AA?$AA@ 000000018003bbc8     libucrt:lcidtoname_downlevel.obj
 0002:0000abd8       ??_C@_1M@JEHMIMFO@?$AAe?$AAn?$AA?9?$AAc?$AAa?$AA?$AA@ 000000018003bbd8     libucrt:lcidtoname_downlevel.obj
 0002:0000abe8       ??_C@_1M@IGMJCDLA@?$AAe?$AAn?$AA?9?$AAc?$AAb?$AA?$AA@ 000000018003bbe8     libucrt:lcidtoname_downlevel.obj
 0002:0000abf8       ??_C@_1M@BNFIGBKG@?$AAe?$AAn?$AA?9?$AAg?$AAb?$AA?$AA@ 000000018003bbf8     libucrt:lcidtoname_downlevel.obj
 0002:0000ac08       ??_C@_1M@LKIFDIGP@?$AAe?$AAn?$AA?9?$AAi?$AAe?$AA?$AA@ 000000018003bc08     libucrt:lcidtoname_downlevel.obj
 0002:0000ac18       ??_C@_1M@PJKFGCCO@?$AAe?$AAn?$AA?9?$AAj?$AAm?$AA?$AA@ 000000018003bc18     libucrt:lcidtoname_downlevel.obj
 0002:0000ac28       ??_C@_1M@KPPKEPBO@?$AAe?$AAn?$AA?9?$AAn?$AAz?$AA?$AA@ 000000018003bc28     libucrt:lcidtoname_downlevel.obj
 0002:0000ac38       ??_C@_1M@GMDGLDOB@?$AAe?$AAn?$AA?9?$AAp?$AAh?$AA?$AA@ 000000018003bc38     libucrt:lcidtoname_downlevel.obj
 0002:0000ac48       ??_C@_1M@ONGIBJNA@?$AAe?$AAn?$AA?9?$AAt?$AAt?$AA?$AA@ 000000018003bc48     libucrt:lcidtoname_downlevel.obj
 0002:0000ac58       ??_C@_1M@LLODPCMM@?$AAe?$AAn?$AA?9?$AAu?$AAs?$AA?$AA@ 000000018003bc58     libucrt:lcidtoname_downlevel.obj
 0002:0000ac68       ??_C@_1M@LAKFNPAN@?$AAe?$AAn?$AA?9?$AAz?$AAa?$AA?$AA@ 000000018003bc68     libucrt:lcidtoname_downlevel.obj
 0002:0000ac78       ??_C@_1M@MFNHNHEO@?$AAe?$AAn?$AA?9?$AAz?$AAw?$AA?$AA@ 000000018003bc78     libucrt:lcidtoname_downlevel.obj
 0002:0000ac88       ??_C@_1M@EJEINPHM@?$AAe?$AAs?$AA?9?$AAa?$AAr?$AA?$AA@ 000000018003bc88     libucrt:lcidtoname_downlevel.obj
 0002:0000ac98       ??_C@_1M@GNKPCCJA@?$AAe?$AAs?$AA?9?$AAb?$AAo?$AA?$AA@ 000000018003bc98     libucrt:lcidtoname_downlevel.obj
 0002:0000aca8       ??_C@_1M@LEEGFONL@?$AAe?$AAs?$AA?9?$AAc?$AAl?$AA?$AA@ 000000018003bca8     libucrt:lcidtoname_downlevel.obj
 0002:0000acb8       ??_C@_1M@KGPDPBDF@?$AAe?$AAs?$AA?9?$AAc?$AAo?$AA?$AA@ 000000018003bcb8     libucrt:lcidtoname_downlevel.obj
 0002:0000acc8       ??_C@_1M@EIAHOHH@?$AAe?$AAs?$AA?9?$AAc?$AAr?$AA?$AA@ 000000018003bcc8     libucrt:lcidtoname_downlevel.obj
 0002:0000acd8       ??_C@_1M@LLPGMBIN@?$AAe?$AAs?$AA?9?$AAd?$AAo?$AA?$AA@ 000000018003bcd8     libucrt:lcidtoname_downlevel.obj
 0002:0000ace8       ??_C@_1M@DKHMKNJA@?$AAe?$AAs?$AA?9?$AAe?$AAc?$AA?$AA@ 000000018003bce8     libucrt:lcidtoname_downlevel.obj
 0002:0000acf8       ??_C@_1M@GKGFPKAP@?$AAe?$AAs?$AA?9?$AAe?$AAs?$AA?$AA@ 000000018003bcf8     libucrt:lcidtoname_downlevel.obj
 0002:0000ad08       ??_C@_1M@LKHKGDLN@?$AAe?$AAs?$AA?9?$AAg?$AAt?$AA?$AA@ 000000018003bd08     libucrt:lcidtoname_downlevel.obj
 0002:0000ad18       ??_C@_1M@HEIIGGJD@?$AAe?$AAs?$AA?9?$AAh?$AAn?$AA?$AA@ 000000018003bd18     libucrt:lcidtoname_downlevel.obj
 0002:0000ad28       ??_C@_1M@FBDHPPGD@?$AAe?$AAs?$AA?9?$AAm?$AAx?$AA?$AA@ 000000018003bd28     libucrt:lcidtoname_downlevel.obj
 0002:0000ad38       ??_C@_1M@DPAGLNDH@?$AAe?$AAs?$AA?9?$AAn?$AAi?$AA?$AA@ 000000018003bd38     libucrt:lcidtoname_downlevel.obj
 0002:0000ad48       ??_C@_1M@MDGOPGDD@?$AAe?$AAs?$AA?9?$AAp?$AAa?$AA?$AA@ 000000018003bd48     libucrt:lcidtoname_downlevel.obj
 0002:0000ad58       ??_C@_1M@EMAMGBGE@?$AAe?$AAs?$AA?9?$AAp?$AAe?$AA?$AA@ 000000018003bd58     libucrt:lcidtoname_downlevel.obj
 0002:0000ad68       ??_C@_1M@IBMCAOEC@?$AAe?$AAs?$AA?9?$AAp?$AAr?$AA?$AA@ 000000018003bd68     libucrt:lcidtoname_downlevel.obj
 0002:0000ad78       ??_C@_1M@FGMDIJED@?$AAe?$AAs?$AA?9?$AAp?$AAy?$AA?$AA@ 000000018003bd78     libucrt:lcidtoname_downlevel.obj
 0002:0000ad88       ??_C@_1M@IIDEOLLL@?$AAe?$AAs?$AA?9?$AAs?$AAv?$AA?$AA@ 000000018003bd88     libucrt:lcidtoname_downlevel.obj
 0002:0000ad98       ??_C@_1M@GAOBIPA@?$AAe?$AAs?$AA?9?$AAu?$AAy?$AA?$AA@ 000000018003bd98     libucrt:lcidtoname_downlevel.obj
 0002:0000ada8       ??_C@_1M@JKFFICHJ@?$AAe?$AAs?$AA?9?$AAv?$AAe?$AA?$AA@ 000000018003bda8     libucrt:lcidtoname_downlevel.obj
 0002:0000adb8       ??_C@_1M@PNMLOJDF@?$AAe?$AAt?$AA?9?$AAe?$AAe?$AA?$AA@ 000000018003bdb8     libucrt:lcidtoname_downlevel.obj
 0002:0000adc8       ??_C@_1M@GHHLIKEI@?$AAe?$AAu?$AA?9?$AAe?$AAs?$AA?$AA@ 000000018003bdc8     libucrt:lcidtoname_downlevel.obj
 0002:0000add8       ??_C@_1M@PBNONODE@?$AAf?$AAa?$AA?9?$AAi?$AAr?$AA?$AA@ 000000018003bdd8     libucrt:lcidtoname_downlevel.obj
 0002:0000ade8       ??_C@_1M@JEEHPMIL@?$AAf?$AAi?$AA?9?$AAf?$AAi?$AA?$AA@ 000000018003bde8     libucrt:lcidtoname_downlevel.obj
 0002:0000adf8       ??_C@_1M@LMDCNDBA@?$AAf?$AAo?$AA?9?$AAf?$AAo?$AA?$AA@ 000000018003bdf8     libucrt:lcidtoname_downlevel.obj
 0002:0000ae08       ??_C@_1M@JKEOHLDK@?$AAf?$AAr?$AA?9?$AAb?$AAe?$AA?$AA@ 000000018003be08     libucrt:lcidtoname_downlevel.obj
 0002:0000ae18       ??_C@_1M@NOHADPMI@?$AAf?$AAr?$AA?9?$AAc?$AAa?$AA?$AA@ 000000018003be18     libucrt:lcidtoname_downlevel.obj
 0002:0000ae28       ??_C@_1M@KDHIHAEC@?$AAf?$AAr?$AA?9?$AAc?$AAh?$AA?$AA@ 000000018003be28     libucrt:lcidtoname_downlevel.obj
 0002:0000ae38       ??_C@_1M@MMBBFGAK@?$AAf?$AAr?$AA?9?$AAf?$AAr?$AA?$AA@ 000000018003be38     libucrt:lcidtoname_downlevel.obj
 0002:0000ae48       ??_C@_1M@PAFNENNF@?$AAf?$AAr?$AA?9?$AAl?$AAu?$AA?$AA@ 000000018003be48     libucrt:lcidtoname_downlevel.obj
 0002:0000ae58       ??_C@_1M@EOHDJGDD@?$AAf?$AAr?$AA?9?$AAm?$AAc?$AA?$AA@ 000000018003be58     libucrt:lcidtoname_downlevel.obj
 0002:0000ae68       ??_C@_1M@FAPLLOPF@?$AAg?$AAl?$AA?9?$AAe?$AAs?$AA?$AA@ 000000018003be68     libucrt:lcidtoname_downlevel.obj
 0002:0000ae78       ??_C@_1M@FOPBFLOO@?$AAg?$AAu?$AA?9?$AAi?$AAn?$AA?$AA@ 000000018003be78     libucrt:lcidtoname_downlevel.obj
 0002:0000ae88       ??_C@_1M@KBMCINPM@?$AAh?$AAe?$AA?9?$AAi?$AAl?$AA?$AA@ 000000018003be88     libucrt:lcidtoname_downlevel.obj
 0002:0000ae98       ??_C@_1M@BBPHKFPJ@?$AAh?$AAi?$AA?9?$AAi?$AAn?$AA?$AA@ 000000018003be98     libucrt:lcidtoname_downlevel.obj
 0002:0000aea8       ??_C@_1M@PMBNDPHD@?$AAh?$AAr?$AA?9?$AAb?$AAa?$AA?$AA@ 000000018003bea8     libucrt:lcidtoname_downlevel.obj
 0002:0000aeb8       ??_C@_1M@BPCKOEGE@?$AAh?$AAr?$AA?9?$AAh?$AAr?$AA?$AA@ 000000018003beb8     libucrt:lcidtoname_downlevel.obj
 0002:0000aec8       ??_C@_1M@GACBMHKE@?$AAh?$AAu?$AA?9?$AAh?$AAu?$AA?$AA@ 000000018003bec8     libucrt:lcidtoname_downlevel.obj
 0002:0000aed8       ??_C@_1M@MILPAJJC@?$AAh?$AAy?$AA?9?$AAa?$AAm?$AA?$AA@ 000000018003bed8     libucrt:lcidtoname_downlevel.obj
 0002:0000aee8       ??_C@_1M@BABBICEC@?$AAi?$AAd?$AA?9?$AAi?$AAd?$AA?$AA@ 000000018003bee8     libucrt:lcidtoname_downlevel.obj
 0002:0000aef8       ??_C@_1M@BIKNHHPF@?$AAi?$AAs?$AA?9?$AAi?$AAs?$AA?$AA@ 000000018003bef8     libucrt:lcidtoname_downlevel.obj
 0002:0000af08       ??_C@_1M@NMPCJPHE@?$AAi?$AAt?$AA?9?$AAc?$AAh?$AA?$AA@ 000000018003bf08     libucrt:lcidtoname_downlevel.obj
 0002:0000af18       ??_C@_1M@GHKGFEDF@?$AAi?$AAt?$AA?9?$AAi?$AAt?$AA?$AA@ 000000018003bf18     libucrt:lcidtoname_downlevel.obj
 0002:0000af28       ??_C@_1M@NIEJCJJA@?$AAj?$AAa?$AA?9?$AAj?$AAp?$AA?$AA@ 000000018003bf28     libucrt:lcidtoname_downlevel.obj
 0002:0000af38       ??_C@_1M@JILFNBIM@?$AAk?$AAa?$AA?9?$AAg?$AAe?$AA?$AA@ 000000018003bf38     libucrt:lcidtoname_downlevel.obj
 0002:0000af48       ??_C@_1M@PACPMGPH@?$AAk?$AAk?$AA?9?$AAk?$AAz?$AA?$AA@ 000000018003bf48     libucrt:lcidtoname_downlevel.obj
 0002:0000af58       ??_C@_1M@IELFGMHA@?$AAk?$AAn?$AA?9?$AAi?$AAn?$AA?$AA@ 000000018003bf58     libucrt:lcidtoname_downlevel.obj
 0002:0000af68       ??_C@_1O@IBBJHCH@?$AAk?$AAo?$AAk?$AA?9?$AAi?$AAn?$AA?$AA@ 000000018003bf68     libucrt:lcidtoname_downlevel.obj
 0002:0000af78       ??_C@_1M@DMHAEOGC@?$AAk?$AAo?$AA?9?$AAk?$AAr?$AA?$AA@ 000000018003bf78     libucrt:lcidtoname_downlevel.obj
 0002:0000af88       ??_C@_1M@HBAHBIGA@?$AAk?$AAy?$AA?9?$AAk?$AAg?$AA?$AA@ 000000018003bf88     libucrt:lcidtoname_downlevel.obj
 0002:0000af98       ??_C@_1M@KPMILCJG@?$AAl?$AAt?$AA?9?$AAl?$AAt?$AA?$AA@ 000000018003bf98     libucrt:lcidtoname_downlevel.obj
 0002:0000afa8       ??_C@_1M@BDEKKCA@?$AAl?$AAv?$AA?9?$AAl?$AAv?$AA?$AA@ 000000018003bfa8     libucrt:lcidtoname_downlevel.obj
 0002:0000afb8       ??_C@_1M@ELCKCCJJ@?$AAm?$AAi?$AA?9?$AAn?$AAz?$AA?$AA@ 000000018003bfb8     libucrt:lcidtoname_downlevel.obj
 0002:0000afc8       ??_C@_1M@CBOOLAPA@?$AAm?$AAk?$AA?9?$AAm?$AAk?$AA?$AA@ 000000018003bfc8     libucrt:lcidtoname_downlevel.obj
 0002:0000afd8       ??_C@_1M@GPHNBJKN@?$AAm?$AAl?$AA?9?$AAi?$AAn?$AA?$AA@ 000000018003bfd8     libucrt:lcidtoname_downlevel.obj
 0002:0000afe8       ??_C@_1M@PABJILIG@?$AAm?$AAn?$AA?9?$AAm?$AAn?$AA?$AA@ 000000018003bfe8     libucrt:lcidtoname_downlevel.obj
 0002:0000aff8       ??_C@_1M@FGBKKIPG@?$AAm?$AAr?$AA?9?$AAi?$AAn?$AA?$AA@ 000000018003bff8     libucrt:lcidtoname_downlevel.obj
 0002:0000b008       ??_C@_1M@NDBPDDAL@?$AAm?$AAs?$AA?9?$AAb?$AAn?$AA?$AA@ 000000018003c008     libucrt:lcidtoname_downlevel.obj
 0002:0000b018       ??_C@_1M@OPIHOOPI@?$AAm?$AAs?$AA?9?$AAm?$AAy?$AA?$AA@ 000000018003c018     libucrt:lcidtoname_downlevel.obj
 0002:0000b028       ??_C@_1M@PPDBCNFM@?$AAm?$AAt?$AA?9?$AAm?$AAt?$AA?$AA@ 000000018003c028     libucrt:lcidtoname_downlevel.obj
 0002:0000b038       ??_C@_1M@KDJDKMDD@?$AAn?$AAb?$AA?9?$AAn?$AAo?$AA?$AA@ 000000018003c038     libucrt:lcidtoname_downlevel.obj
 0002:0000b048       ??_C@_1M@KFCFLMJP@?$AAn?$AAl?$AA?9?$AAb?$AAe?$AA?$AA@ 000000018003c048     libucrt:lcidtoname_downlevel.obj
 0002:0000b058       ??_C@_1M@KPOPDDGO@?$AAn?$AAl?$AA?9?$AAn?$AAl?$AA?$AA@ 000000018003c058     libucrt:lcidtoname_downlevel.obj
 0002:0000b068       ??_C@_1M@LJKPEMLN@?$AAn?$AAn?$AA?9?$AAn?$AAo?$AA?$AA@ 000000018003c068     libucrt:lcidtoname_downlevel.obj
 0002:0000b078       ??_C@_1M@BDGHHBFL@?$AAn?$AAs?$AA?9?$AAz?$AAa?$AA?$AA@ 000000018003c078     libucrt:lcidtoname_downlevel.obj
 0002:0000b088       ??_C@_1M@IDEHOAP@?$AAp?$AAa?$AA?9?$AAi?$AAn?$AA?$AA@ 000000018003c088     libucrt:lcidtoname_downlevel.obj
 0002:0000b098       ??_C@_1M@HDBKGOGH@?$AAp?$AAl?$AA?9?$AAp?$AAl?$AA?$AA@ 000000018003c098     libucrt:lcidtoname_downlevel.obj
 0002:0000b0a8       ??_C@_1M@LJLLCMEH@?$AAp?$AAt?$AA?9?$AAb?$AAr?$AA?$AA@ 000000018003c0a8     libucrt:lcidtoname_downlevel.obj
 0002:0000b0b8       ??_C@_1M@NCMONAAL@?$AAp?$AAt?$AA?9?$AAp?$AAt?$AA?$AA@ 000000018003c0b8     libucrt:lcidtoname_downlevel.obj
 0002:0000b0c8       ??_C@_1O@EAKMAJDN@?$AAq?$AAu?$AAz?$AA?9?$AAb?$AAo?$AA?$AA@ 000000018003c0c8     libucrt:lcidtoname_downlevel.obj
 0002:0000b0d8       ??_C@_1O@BHHPIGDN@?$AAq?$AAu?$AAz?$AA?9?$AAe?$AAc?$AA?$AA@ 000000018003c0d8     libucrt:lcidtoname_downlevel.obj
 0002:0000b0e8       ??_C@_1O@GBAPEKMJ@?$AAq?$AAu?$AAz?$AA?9?$AAp?$AAe?$AA?$AA@ 000000018003c0e8     libucrt:lcidtoname_downlevel.obj
 0002:0000b0f8       ??_C@_1M@CLGLEFBO@?$AAr?$AAo?$AA?9?$AAr?$AAo?$AA?$AA@ 000000018003c0f8     libucrt:lcidtoname_downlevel.obj
 0002:0000b108       ??_C@_1M@CEEDODME@?$AAr?$AAu?$AA?9?$AAr?$AAu?$AA?$AA@ 000000018003c108     libucrt:lcidtoname_downlevel.obj
 0002:0000b118       ??_C@_1M@HPKKKMPP@?$AAs?$AAa?$AA?9?$AAi?$AAn?$AA?$AA@ 000000018003c118     libucrt:lcidtoname_downlevel.obj
 0002:0000b128       ??_C@_1M@BKMAIGOJ@?$AAs?$AAe?$AA?9?$AAf?$AAi?$AA?$AA@ 000000018003c128     libucrt:lcidtoname_downlevel.obj
 0002:0000b138       ??_C@_1M@NDPIFLFI@?$AAs?$AAe?$AA?9?$AAn?$AAo?$AA?$AA@ 000000018003c138     libucrt:lcidtoname_downlevel.obj
 0002:0000b148       ??_C@_1M@DANKKHJ@?$AAs?$AAe?$AA?9?$AAs?$AAe?$AA?$AA@ 000000018003c148     libucrt:lcidtoname_downlevel.obj
 0002:0000b158       ??_C@_1M@PNBLONPJ@?$AAs?$AAk?$AA?9?$AAs?$AAk?$AA?$AA@ 000000018003c158     libucrt:lcidtoname_downlevel.obj
 0002:0000b168       ??_C@_1M@LFMODOAL@?$AAs?$AAl?$AA?9?$AAs?$AAi?$AA?$AA@ 000000018003c168     libucrt:lcidtoname_downlevel.obj
 0002:0000b178       ??_C@_1O@DFKOMPG@?$AAs?$AAm?$AAa?$AA?9?$AAn?$AAo?$AA?$AA@ 000000018003c178     libucrt:lcidtoname_downlevel.obj
 0002:0000b188       ??_C@_1O@NDKPBNNH@?$AAs?$AAm?$AAa?$AA?9?$AAs?$AAe?$AA?$AA@ 000000018003c188     libucrt:lcidtoname_downlevel.obj
 0002:0000b198       ??_C@_1O@PLLKBHAB@?$AAs?$AAm?$AAj?$AA?9?$AAn?$AAo?$AA?$AA@ 000000018003c198     libucrt:lcidtoname_downlevel.obj
 0002:0000b1a8       ??_C@_1O@CLEPOGCA@?$AAs?$AAm?$AAj?$AA?9?$AAs?$AAe?$AA?$AA@ 000000018003c1a8     libucrt:lcidtoname_downlevel.obj
 0002:0000b1b8       ??_C@_1O@DLGJGKMK@?$AAs?$AAm?$AAn?$AA?9?$AAf?$AAi?$AA?$AA@ 000000018003c1b8     libucrt:lcidtoname_downlevel.obj
 0002:0000b1c8       ??_C@_1O@OJDJGAJC@?$AAs?$AAm?$AAs?$AA?9?$AAf?$AAi?$AA?$AA@ 000000018003c1c8     libucrt:lcidtoname_downlevel.obj
 0002:0000b1d8       ??_C@_1M@BOFOGHPB@?$AAs?$AAq?$AA?9?$AAa?$AAl?$AA?$AA@ 000000018003c1d8     libucrt:lcidtoname_downlevel.obj
 0002:0000b1e8       ??_C@_1BG@LJBBIPGB@?$AAs?$AAr?$AA?9?$AAb?$AAa?$AA?9?$AAc?$AAy?$AAr?$AAl?$AA?$AA@ 000000018003c1e8     libucrt:lcidtoname_downlevel.obj
 0002:0000b200       ??_C@_1BG@JLBENFOE@?$AAs?$AAr?$AA?9?$AAb?$AAa?$AA?9?$AAl?$AAa?$AAt?$AAn?$AA?$AA@ 000000018003c200     libucrt:lcidtoname_downlevel.obj
 0002:0000b218       ??_C@_1BG@KODPNHE@?$AAs?$AAr?$AA?9?$AAs?$AAp?$AA?9?$AAc?$AAy?$AAr?$AAl?$AA?$AA@ 000000018003c218     libucrt:lcidtoname_downlevel.obj
 0002:0000b230       ??_C@_1BG@CIOGKHPB@?$AAs?$AAr?$AA?9?$AAs?$AAp?$AA?9?$AAl?$AAa?$AAt?$AAn?$AA?$AA@ 000000018003c230     libucrt:lcidtoname_downlevel.obj
 0002:0000b248       ??_C@_1M@NGFJLMAC@?$AAs?$AAv?$AA?9?$AAf?$AAi?$AA?$AA@ 000000018003c248     libucrt:lcidtoname_downlevel.obj
 0002:0000b258       ??_C@_1M@MPJEJAJC@?$AAs?$AAv?$AA?9?$AAs?$AAe?$AA?$AA@ 000000018003c258     libucrt:lcidtoname_downlevel.obj
 0002:0000b268       ??_C@_1M@MPNDHLFK@?$AAs?$AAw?$AA?9?$AAk?$AAe?$AA?$AA@ 000000018003c268     libucrt:lcidtoname_downlevel.obj
 0002:0000b278       ??_C@_1O@KOHBJJI@?$AAs?$AAy?$AAr?$AA?9?$AAs?$AAy?$AA?$AA@ 000000018003c278     libucrt:lcidtoname_downlevel.obj
 0002:0000b288       ??_C@_1M@LDCEFHA@?$AAt?$AAa?$AA?9?$AAi?$AAn?$AA?$AA@ 000000018003c288     libucrt:lcidtoname_downlevel.obj
 0002:0000b298       ??_C@_1M@CNJOFAK@?$AAt?$AAe?$AA?9?$AAi?$AAn?$AA?$AA@ 000000018003c298     libucrt:lcidtoname_downlevel.obj
 0002:0000b2a8       ??_C@_1M@GNAECACD@?$AAt?$AAh?$AA?9?$AAt?$AAh?$AA?$AA@ 000000018003c2a8     libucrt:lcidtoname_downlevel.obj
 0002:0000b2b8       ??_C@_1M@CHBIHOJO@?$AAt?$AAn?$AA?9?$AAz?$AAa?$AA?$AA@ 000000018003c2b8     libucrt:lcidtoname_downlevel.obj
 0002:0000b2c8       ??_C@_1M@GCCMIGPJ@?$AAt?$AAr?$AA?9?$AAt?$AAr?$AA?$AA@ 000000018003c2c8     libucrt:lcidtoname_downlevel.obj
 0002:0000b2d8       ??_C@_1M@CELMCNBK@?$AAt?$AAt?$AA?9?$AAr?$AAu?$AA?$AA@ 000000018003c2d8     libucrt:lcidtoname_downlevel.obj
 0002:0000b2e8       ??_C@_1M@KLMCELGA@?$AAu?$AAk?$AA?9?$AAu?$AAa?$AA?$AA@ 000000018003c2e8     libucrt:lcidtoname_downlevel.obj
 0002:0000b2f8       ??_C@_1M@EPAJJAJF@?$AAu?$AAr?$AA?9?$AAp?$AAk?$AA?$AA@ 000000018003c2f8     libucrt:lcidtoname_downlevel.obj
 0002:0000b308       ??_C@_1BG@GEGPMCDJ@?$AAu?$AAz?$AA?9?$AAu?$AAz?$AA?9?$AAc?$AAy?$AAr?$AAl?$AA?$AA@ 000000018003c308     libucrt:lcidtoname_downlevel.obj
 0002:0000b320       ??_C@_1BG@EGGKJILM@?$AAu?$AAz?$AA?9?$AAu?$AAz?$AA?9?$AAl?$AAa?$AAt?$AAn?$AA?$AA@ 000000018003c320     libucrt:lcidtoname_downlevel.obj
 0002:0000b338       ??_C@_1M@GFOCLFF@?$AAv?$AAi?$AA?9?$AAv?$AAn?$AA?$AA@ 000000018003c338     libucrt:lcidtoname_downlevel.obj
 0002:0000b348       ??_C@_1M@CPAMEDFI@?$AAx?$AAh?$AA?9?$AAz?$AAa?$AA?$AA@ 000000018003c348     libucrt:lcidtoname_downlevel.obj
 0002:0000b358       ??_C@_1O@EBKIFIGN@?$AAz?$AAh?$AA?9?$AAc?$AAh?$AAs?$AA?$AA@ 000000018003c358     libucrt:lcidtoname_downlevel.obj
 0002:0000b368       ??_C@_1O@NMHPGANE@?$AAz?$AAh?$AA?9?$AAc?$AAh?$AAt?$AA?$AA@ 000000018003c368     libucrt:lcidtoname_downlevel.obj
 0002:0000b378       ??_C@_1M@LPINJOMC@?$AAz?$AAh?$AA?9?$AAc?$AAn?$AA?$AA@ 000000018003c378     libucrt:lcidtoname_downlevel.obj
 0002:0000b388       ??_C@_1M@OCJEJODD@?$AAz?$AAh?$AA?9?$AAh?$AAk?$AA?$AA@ 000000018003c388     libucrt:lcidtoname_downlevel.obj
 0002:0000b398       ??_C@_1M@DNDLJINH@?$AAz?$AAh?$AA?9?$AAm?$AAo?$AA?$AA@ 000000018003c398     libucrt:lcidtoname_downlevel.obj
 0002:0000b3a8       ??_C@_1M@MBFDNDND@?$AAz?$AAh?$AA?9?$AAs?$AAg?$AA?$AA@ 000000018003c3a8     libucrt:lcidtoname_downlevel.obj
 0002:0000b3b8       ??_C@_1M@IMEPLEPE@?$AAz?$AAh?$AA?9?$AAt?$AAw?$AA?$AA@ 000000018003c3b8     libucrt:lcidtoname_downlevel.obj
 0002:0000b3c8       ??_C@_1M@BBGHNHJP@?$AAz?$AAu?$AA?9?$AAz?$AAa?$AA?$AA@ 000000018003c3c8     libucrt:lcidtoname_downlevel.obj
 0002:0000b3d8       __real@3ff0000000000000    000000018003c3d8     libucrt:ceil.obj
 0002:0000b630       __log10_256_lead           000000018003c630     libucrt:log10_256_lead_tail_table.obj
 0002:0000be40       __log10_256_tail           000000018003ce40     libucrt:log10_256_lead_tail_table.obj
 0002:0000c650       __log_F_inv_qword          000000018003d650     libucrt:log_f_inv_qword_table.obj
 0002:0000ce60       ??_C@_05HGHHAHAP@log10?$AA@ 000000018003de60     libucrt:log_special.obj
 0002:0000ce80       ??_C@_1BA@BALFACEM@?$AAC?$AAO?$AAN?$AAO?$AAU?$AAT?$AA$?$AA?$AA@ 000000018003de80     libucrt:initcon.obj
 0002:0000ce90       ??_C@_0BI@OEHNMHCG@GetCurrentConsoleFontEx@ 000000018003de90     common-kernel64:WConsole.obj
 0002:0000cea8       ??_C@_0BI@PCBACGEE@SetCurrentConsoleFontEx@ 000000018003dea8     common-kernel64:WConsole.obj
 0002:0000cf20       _load_config_used          000000018003df20     LIBCMT:loadcfg.obj
 0002:0000d020       _tls_used                  000000018003e020     LIBCMT:tlssup.obj
 0002:0000d048       ??_R4CPluginW1900@@6B@     000000018003e048     ConEmuPlugin1900.obj
 0002:0000d070       ??_R3CPluginW1900@@8       000000018003e070     ConEmuPlugin1900.obj
 0002:0000d088       ??_R2CPluginW1900@@8       000000018003e088     ConEmuPlugin1900.obj
 0002:0000d0a0       ??_R1A@?0A@EA@CPluginW1900@@8 000000018003e0a0     ConEmuPlugin1900.obj
 0002:0000d0c8       ??_R1A@?0A@EA@CPluginBase@@8 000000018003e0c8     ConEmuPlugin1900.obj
 0002:0000d0f0       ??_R3CPluginBase@@8        000000018003e0f0     ConEmuPlugin1900.obj
 0002:0000d108       ??_R2CPluginBase@@8        000000018003e108     ConEmuPlugin1900.obj
 0002:0000d118       ??_R4exception@std@@6B@    000000018003e118     ConEmuPlugin2800.obj
 0002:0000d140       ??_R3exception@std@@8      000000018003e140     ConEmuPlugin2800.obj
 0002:0000d158       ??_R2exception@std@@8      000000018003e158     ConEmuPlugin2800.obj
 0002:0000d168       ??_R1A@?0A@EA@exception@std@@8 000000018003e168     ConEmuPlugin2800.obj
 0002:0000d190       ??_R4bad_alloc@std@@6B@    000000018003e190     ConEmuPlugin2800.obj
 0002:0000d1b8       ??_R3bad_alloc@std@@8      000000018003e1b8     ConEmuPlugin2800.obj
 0002:0000d1d0       ??_R2bad_alloc@std@@8      000000018003e1d0     ConEmuPlugin2800.obj
 0002:0000d1e8       ??_R1A@?0A@EA@bad_alloc@std@@8 000000018003e1e8     ConEmuPlugin2800.obj
 0002:0000d210       ??_R4CPluginW2800@@6B@     000000018003e210     ConEmuPlugin2800.obj
 0002:0000d238       ??_R3CPluginW2800@@8       000000018003e238     ConEmuPlugin2800.obj
 0002:0000d250       ??_R2CPluginW2800@@8       000000018003e250     ConEmuPlugin2800.obj
 0002:0000d268       ??_R1A@?0A@EA@CPluginW2800@@8 000000018003e268     ConEmuPlugin2800.obj
 0002:0000d290       ??_R4CPluginW995@@6B@      000000018003e290     ConEmuPlugin995.obj
 0002:0000d2b8       ??_R3CPluginW995@@8        000000018003e2b8     ConEmuPlugin995.obj
 0002:0000d2d0       ??_R2CPluginW995@@8        000000018003e2d0     ConEmuPlugin995.obj
 0002:0000d2e8       ??_R1A@?0A@EA@CPluginW995@@8 000000018003e2e8     ConEmuPlugin995.obj
 0002:0000d310       ??_R4CPluginAnsi@@6B@      000000018003e310     ConEmuPluginA.obj
 0002:0000d338       ??_R3CPluginAnsi@@8        000000018003e338     ConEmuPluginA.obj
 0002:0000d350       ??_R2CPluginAnsi@@8        000000018003e350     ConEmuPluginA.obj
 0002:0000d368       ??_R1A@?0A@EA@CPluginAnsi@@8 000000018003e368     ConEmuPluginA.obj
 0002:0000d390       ??_R4CPluginBase@@6B@      000000018003e390     ConEmuPluginBase.obj
 0002:0000d3b8       ??_R4exception@stdext@@6B@ 000000018003e3b8     common-kernel64:CEStr.obj
 0002:0000d3e0       ??_R3exception@stdext@@8   000000018003e3e0     common-kernel64:CEStr.obj
 0002:0000d3f8       ??_R2exception@stdext@@8   000000018003e3f8     common-kernel64:CEStr.obj
 0002:0000d408       ??_R1A@?0A@EA@exception@stdext@@8 000000018003e408     common-kernel64:CEStr.obj
 0002:0000d430       ??_R4bad_alloc@stdext@@6B@ 000000018003e430     common-kernel64:CEStr.obj
 0002:0000d458       ??_R3bad_alloc@stdext@@8   000000018003e458     common-kernel64:CEStr.obj
 0002:0000d470       ??_R2bad_alloc@stdext@@8   000000018003e470     common-kernel64:CEStr.obj
 0002:0000d488       ??_R1A@?0A@EA@bad_alloc@stdext@@8 000000018003e488     common-kernel64:CEStr.obj
 0002:0000d4b0       ??_R4MToolHelpProcess@@6B@ 000000018003e4b0     common-kernel64:MProcess.obj
 0002:0000d4d8       ??_R3MToolHelpProcess@@8   000000018003e4d8     common-kernel64:MProcess.obj
 0002:0000d4f0       ??_R2MToolHelpProcess@@8   000000018003e4f0     common-kernel64:MProcess.obj
 0002:0000d508       ??_R1A@?0A@EA@MToolHelpProcess@@8 000000018003e508     common-kernel64:MProcess.obj
 0002:0000d530       ??_R1A@?0A@EA@?$MToolHelp@UtagPROCESSENTRY32W@@$1?Process32FirstW@@YAHPEAXPEAU1@@Z$1?Process32NextW@@YAH01@Z@@8 000000018003e530     common-kernel64:MProcess.obj
 0002:0000d558       ??_R3?$MToolHelp@UtagPROCESSENTRY32W@@$1?Process32FirstW@@YAHPEAXPEAU1@@Z$1?Process32NextW@@YAH01@Z@@8 000000018003e558     common-kernel64:MProcess.obj
 0002:0000d570       ??_R2?$MToolHelp@UtagPROCESSENTRY32W@@$1?Process32FirstW@@YAHPEAXPEAU1@@Z$1?Process32NextW@@YAH01@Z@@8 000000018003e570     common-kernel64:MProcess.obj
 0002:0000d580       ??_R4?$MToolHelp@UtagPROCESSENTRY32W@@$1?Process32FirstW@@YAHPEAXPEAU1@@Z$1?Process32NextW@@YAH01@Z@@6B@ 000000018003e580     common-kernel64:MProcess.obj
 0002:0000d5a8       ??_R4logic_error@std@@6B@  000000018003e5a8     libcpmt:xthrow.obj
 0002:0000d5d0       ??_R3logic_error@std@@8    000000018003e5d0     libcpmt:xthrow.obj
 0002:0000d5e8       ??_R2logic_error@std@@8    000000018003e5e8     libcpmt:xthrow.obj
 0002:0000d600       ??_R1A@?0A@EA@logic_error@std@@8 000000018003e600     libcpmt:xthrow.obj
 0002:0000d628       ??_R4length_error@std@@6B@ 000000018003e628     libcpmt:xthrow.obj
 0002:0000d650       ??_R3length_error@std@@8   000000018003e650     libcpmt:xthrow.obj
 0002:0000d668       ??_R2length_error@std@@8   000000018003e668     libcpmt:xthrow.obj
 0002:0000d688       ??_R1A@?0A@EA@length_error@std@@8 000000018003e688     libcpmt:xthrow.obj
 0002:0000d6b0       ??_R4type_info@@6B@        000000018003e6b0     LIBCMT:std_type_info_static.obj
 0002:0000d6d8       ??_R3type_info@@8          000000018003e6d8     LIBCMT:std_type_info_static.obj
 0002:0000d6f0       ??_R2type_info@@8          000000018003e6f0     LIBCMT:std_type_info_static.obj
 0002:0000d700       ??_R1A@?0A@EA@type_info@@8 000000018003e700     LIBCMT:std_type_info_static.obj
 0002:0000d728       ??_R4bad_exception@std@@6B@ 000000018003e728     libvcruntime:frame.obj
 0002:0000d750       ??_R3bad_exception@std@@8  000000018003e750     libvcruntime:frame.obj
 0002:0000d768       ??_R2bad_exception@std@@8  000000018003e768     libvcruntime:frame.obj
 0002:0000d780       ??_R1A@?0A@EA@bad_exception@std@@8 000000018003e780     libvcruntime:frame.obj
 0002:0000db70       __rtc_iaa                  000000018003eb70     LIBCMT:initsect.obj
 0002:0000db78       __rtc_izz                  000000018003eb78     LIBCMT:initsect.obj
 0002:0000db80       __rtc_taa                  000000018003eb80     LIBCMT:initsect.obj
 0002:0000db88       __rtc_tzz                  000000018003eb88     LIBCMT:initsect.obj
 0002:0000db90       _tls_start                 000000018003eb90     LIBCMT:tlssup.obj
 0002:0000db94       _Init_thread_epoch         000000018003eb94     LIBCMT:thread_safe_statics.obj
 0002:0000db98       _tls_end                   000000018003eb98     LIBCMT:tlssup.obj
 0002:000101f0       _TI2?AVbad_alloc@std@@     00000001800411f0     ConEmuPlugin2800.obj
 0002:00010210       _CTA2?AVbad_alloc@std@@    0000000180041210     ConEmuPlugin2800.obj
 0002:00010228       _CT??_R0?AVbad_alloc@std@@@8??0bad_alloc@std@@QEAA@AEBV01@@Z24 0000000180041228     ConEmuPlugin2800.obj
 0002:00010250       _CT??_R0?AVexception@std@@@8??0exception@std@@QEAA@AEBV01@@Z24 0000000180041250     ConEmuPlugin2800.obj
 0002:00010278       _TI2?AVbad_alloc@stdext@@  0000000180041278     common-kernel64:CEStr.obj
 0002:00010298       _CTA2?AVbad_alloc@stdext@@ 0000000180041298     common-kernel64:CEStr.obj
 0002:000102b0       _CT??_R0?AVbad_alloc@stdext@@@8??0bad_alloc@stdext@@QEAA@AEBV01@@Z16 00000001800412b0     common-kernel64:CEStr.obj
 0002:000102d8       _CT??_R0?AVexception@stdext@@@8??0exception@stdext@@QEAA@AEBV01@@Z16 00000001800412d8     common-kernel64:CEStr.obj
 0002:00010300       _CT??_R0?AVlogic_error@std@@@8??0logic_error@std@@QEAA@AEBV01@@Z24 0000000180041300     libcpmt:xthrow.obj
 0002:00010328       _TI3?AVlength_error@std@@  0000000180041328     libcpmt:xthrow.obj
 0002:00010348       _CTA3?AVlength_error@std@@ 0000000180041348     libcpmt:xthrow.obj
 0002:00010368       _CT??_R0?AVlength_error@std@@@8??0length_error@std@@QEAA@AEBV01@@Z24 0000000180041368     libcpmt:xthrow.obj
 0002:00010390       _TI2?AVbad_exception@std@@ 0000000180041390     libvcruntime:frame.obj
 0002:000103b0       _CTA2?AVbad_exception@std@@ 00000001800413b0     libvcruntime:frame.obj
 0002:000103c8       _CT??_R0?AVbad_exception@std@@@8??0bad_exception@std@@QEAA@AEBV01@@Z24 00000001800413c8     libvcruntime:frame.obj
 0002:000106d4       __IMPORT_DESCRIPTOR_VERSION 00000001800416d4     version:VERSION.dll
 0002:000106e8       __IMPORT_DESCRIPTOR_KERNEL32 00000001800416e8     kernel32:KERNEL32.dll
 0002:000106fc       __IMPORT_DESCRIPTOR_USER32 00000001800416fc     user32:USER32.dll
 0002:00010710       __IMPORT_DESCRIPTOR_GDI32  0000000180041710     gdi32:GDI32.dll
 0002:00010724       __IMPORT_DESCRIPTOR_ADVAPI32 0000000180041724     advapi32:ADVAPI32.dll
 0002:00010738       __NULL_IMPORT_DESCRIPTOR   0000000180041738     version:VERSION.dll
 0003:00000000       ?Far3Func@@3PAUExportFunc@@A 0000000180043000     ConEmuPlugin.obj
 0003:00000080       ?StdPalette@?1??GetStdPalette@Far3Color@@SAPEBKXZ@4PAKA 0000000180043080     ConEmuPlugin1900.obj
 0003:000000c0       ?guid_ConEmu@@3U_GUID@@A   00000001800430c0     ConEmuPlugin2800.obj
 0003:000000d0       ?guid_ConEmuPluginItems@@3U_GUID@@A 00000001800430d0     ConEmuPlugin2800.obj
 0003:000000e0       ?guid_ConEmuPluginMenu@@3U_GUID@@A 00000001800430e0     ConEmuPlugin2800.obj
 0003:000000f0       ?guid_ConEmuGuiMacroDlg@@3U_GUID@@A 00000001800430f0     ConEmuPlugin2800.obj
 0003:00000100       ?guid_ConEmuWaitEndSynchro@@3U_GUID@@A 0000000180043100     ConEmuPlugin2800.obj
 0003:00000110       ?guid_ConEmuMsg@@3U_GUID@@A 0000000180043110     ConEmuPlugin2800.obj
 0003:00000120       ?guid_ConEmuInput@@3U_GUID@@A 0000000180043120     ConEmuPlugin2800.obj
 0003:00000130       ?guid_ConEmuMenu@@3U_GUID@@A 0000000180043130     ConEmuPlugin2800.obj
 0003:00000180       ?gFarMode@@3UHookModeFar@@A 0000000180043180     ConEmuPluginBase.obj
 0003:000001b0       ?gnPluginOpenFrom@@3HA     00000001800431b0     ConEmuPluginBase.obj
 0003:000001b4       ?gnReqCommand@@3KA         00000001800431b4     ConEmuPluginBase.obj
 0003:000001b8       ?lastModifiedStateW@@3HA   00000001800431b8     ConEmuPluginBase.obj
 0003:000001c0       ?gpPluginMenu@@3PAUPluginAndMenuCommands@@A 00000001800431c0     ConEmuPluginBase.obj
 0003:00000280       ?gsInternalCommands@@3PEB_WEB 0000000180043280     common-kernel64:CmdLine.obj
 0003:00000288       ?g_TerminatedThreadIdx@@3JA 0000000180043288     common-kernel64:WThreads.obj
 0003:00000290       __security_cookie_complement 0000000180043290     LIBCMT:gs_cookie.obj
 0003:00000298       __security_cookie          0000000180043298     LIBCMT:gs_cookie.obj
 0003:000002a0       _Init_global_epoch         00000001800432a0     LIBCMT:thread_safe_statics.obj
 0003:000002a4       __scrt_native_dllmain_reason 00000001800432a4     LIBCMT:utility.obj
 0003:000002a8       __isa_available            00000001800432a8     LIBCMT:cpu_disp.obj
 0003:000002ac       __isa_enabled              00000001800432ac     LIBCMT:cpu_disp.obj
 0003:000002b0       __memcpy_nt_iters          00000001800432b0     LIBCMT:cpu_disp.obj
 0003:000002d8       __abort_behavior           00000001800432d8     libucrt:abort.obj
 0003:000002f0       _iob                       00000001800432f0     libucrt:_file.obj
 0003:00000400       __acrt_initial_locale_data 0000000180043400     libucrt:nlsdata.obj
 0003:00000558       __acrt_initial_locale_pointers 0000000180043558     libucrt:nlsdata.obj
 0003:00000568       __acrt_wide_c_locale_string 0000000180043568     libucrt:nlsdata.obj
 0003:00000570       _pwctype                   0000000180043570     libucrt:ctype.obj
 0003:00000580       __acrt_initial_multibyte_data 0000000180043580     libucrt:mbctype.obj
 0003:000007a8       __acrt_current_multibyte_data 00000001800437a8     libucrt:mbctype.obj
 0003:000008b0       _mbctype                   00000001800438b0     libucrt:mbctype.obj
 0003:000009c0       _mbcasemap                 00000001800439c0     libucrt:mbctype.obj
 0003:00000ac0       __globallocalestatus       0000000180043ac0     libucrt:glstatus.obj
 0003:00000ad0       __acrt_lconv_c             0000000180043ad0     libucrt:localeconv.obj
 0003:00000b68       __acrt_lconv_static_decimal 0000000180043b68     libucrt:localeconv.obj
 0003:00000b6c       __acrt_lconv_static_W_decimal 0000000180043b6c     libucrt:localeconv.obj
 0003:00000b88       __dcrt_lowio_console_output_handle 0000000180043b88     libucrt:initcon.obj
 0003:00000b90       _fltused                   0000000180043b90     LIBCMT:fltused.obj
 0003:00000ba0       ??_R0?AVCPluginW1900@@@8   0000000180043ba0     ConEmuPlugin1900.obj
 0003:00000bc8       ??_R0?AVCPluginBase@@@8    0000000180043bc8     ConEmuPlugin1900.obj
 0003:00000bf0       ??_R0?AVbad_alloc@std@@@8  0000000180043bf0     ConEmuPlugin2800.obj
 0003:00000c18       ??_R0?AVexception@std@@@8  0000000180043c18     ConEmuPlugin2800.obj
 0003:00000c40       ??_R0?AVCPluginW2800@@@8   0000000180043c40     ConEmuPlugin2800.obj
 0003:00000c68       ??_R0?AVCPluginW995@@@8    0000000180043c68     ConEmuPlugin995.obj
 0003:00000c90       ??_R0?AVCPluginAnsi@@@8    0000000180043c90     ConEmuPluginA.obj
 0003:00000cb8       ??_R0?AVbad_alloc@stdext@@@8 0000000180043cb8     common-kernel64:CEStr.obj
 0003:00000ce0       ??_R0?AVexception@stdext@@@8 0000000180043ce0     common-kernel64:CEStr.obj
 0003:00000d08       ??_R0?AVMToolHelpProcess@@@8 0000000180043d08     common-kernel64:MProcess.obj
 0003:00000d30       ??_R0?AV?$MToolHelp@UtagPROCESSENTRY32W@@$1?Process32FirstW@@YAHPEAXPEAU1@@Z$1?Process32NextW@@YAH01@Z@@@8 0000000180043d30     common-kernel64:MProcess.obj
 0003:00000da8       ??_R0?AVlogic_error@std@@@8 0000000180043da8     libcpmt:xthrow.obj
 0003:00000dd0       ??_R0?AVlength_error@std@@@8 0000000180043dd0     libcpmt:xthrow.obj
 0003:00000df8       ??_R0?AVtype_info@@@8      0000000180043df8     LIBCMT:std_type_info_static.obj
 0003:00000e18       ??_R0?AVbad_exception@std@@@8 0000000180043e18     libvcruntime:frame.obj
 0003:00000e40       ?ghExtConModule@@3PEAUHINSTANCE__@@EA 0000000180043e40     ConEmuInjects.obj
 0003:00000e48       ?ghHooksModule@@3PEAUHINSTANCE__@@EA 0000000180043e48     ConEmuInjects.obj
 0003:00000e50       ?gbHooksModuleLoaded@@3HA  0000000180043e50     ConEmuInjects.obj
 0003:00000e58       ?SetHookCallbacks@@3P6A_NPEBDPEB_WPEAUHINSTANCE__@@P6AHPEAUHookCallbackArg@@@Z44@ZEA 0000000180043e58     ConEmuInjects.obj
 0003:00000e60       ?SetLoadLibraryCallback@@3P6AXPEAUHINSTANCE__@@P6AX0@Z1@ZEA 0000000180043e60     ConEmuInjects.obj
 0003:00000e68       ?SetFarHookMode@@3P6AXPEAUHookModeFar@@@ZEA 0000000180043e68     ConEmuInjects.obj
 0003:00000e70       ?SetConsoleCallbacks@@3P6A_NPEAUHINSTANCE__@@KPEAP6AHPEAUHookCallbackArg@@@Z@ZEA 0000000180043e70     ConEmuInjects.obj
 0003:00000e78       ?_OptionsStorage@?1??__local_stdio_printf_options@@9@4_KA 0000000180043e78     ConEmuInjects.obj
 0003:00000e80       ?InfoW1900@@3PEAUPluginStartupInfo@@EA 0000000180043e80     ConEmuPlugin1900.obj
 0003:00000e88       ?FSFW1900@@3PEAUFarStandardFunctions@@EA 0000000180043e88     ConEmuPlugin1900.obj
 0003:00000e90       ?LastColor@?1??Color2FgIndex@Far3Color@@SAXKAEAGPEBK@Z@4KA 0000000180043e90     ConEmuPlugin1900.obj
 0003:00000e94       ?LastIndex@?1??Color2FgIndex@Far3Color@@SAXKAEAGPEBK@Z@4HA 0000000180043e94     ConEmuPlugin1900.obj
 0003:00000e98       ?LastColor@?1??Color2BgIndex@Far3Color@@SAXKHAEAGPEBK@Z@4KA 0000000180043e98     ConEmuPlugin1900.obj
 0003:00000e9c       ?LastIndex@?1??Color2BgIndex@Far3Color@@SAXKHAEAGPEBK@Z@4HA 0000000180043e9c     ConEmuPlugin1900.obj
 0003:00001158       ?InfoW2800@@3PEAUPluginStartupInfo@@EA 0000000180044158     ConEmuPlugin2800.obj
 0003:00001160       ?FSFW2800@@3PEAUFarStandardFunctions@@EA 0000000180044160     ConEmuPlugin2800.obj
 0003:00001428       ?InfoW995@@3PEAUPluginStartupInfo@@EA 0000000180044428     ConEmuPlugin995.obj
 0003:00001430       ?FSFW995@@3PEAUFarStandardFunctions@@EA 0000000180044430     ConEmuPlugin995.obj
 0003:00001690       ?InfoA@@3PEAUPluginStartupInfo@@EA 0000000180044690     ConEmuPluginA.obj
 0003:00001698       ?FSFA@@3PEAUFarStandardFunctions@@EA 0000000180044698     ConEmuPluginA.obj
 0003:000019b0       ?ghPluginModule@@3PEAUHINSTANCE__@@EA 00000001800449b0     ConEmuPluginBase.obj
 0003:000019b8       ?gnMainThreadId@@3KA       00000001800449b8     ConEmuPluginBase.obj
 0003:000019bc       ?maxTabCount@@3HA          00000001800449bc     ConEmuPluginBase.obj
 0003:000019c0       ?gszDir1@@3PA_WA           00000001800449c0     ConEmuPluginBase.obj
 0003:000021c0       ?gszDir2@@3PA_WA           00000001800451c0     ConEmuPluginBase.obj
 0003:000029c0       ?lastWindowCount@@3HA      00000001800459c0     ConEmuPluginBase.obj
 0003:000029c4       ?gnCurTabCount@@3HA        00000001800459c4     ConEmuPluginBase.obj
 0003:000029c8       ?gpCmdRet@@3PEAUCESERVER_REQ@@EA 00000001800459c8     ConEmuPluginBase.obj
 0003:000029d0       ?ghConEmuWndDC@@3PEAUHWND__@@EA 00000001800459d0     ConEmuPluginBase.obj
 0003:000029d8       ?FarHwnd@@3PEAUHWND__@@EA  00000001800459d8     ConEmuPluginBase.obj
 0003:000029e0       ?gFarVersion@@3UFarVersion@@A 00000001800459e0     ConEmuPluginBase.obj
 0003:000029ec       ?gbIgnoreUpdateTabs@@3HA   00000001800459ec     ConEmuPluginBase.obj
 0003:000029f0       ?gpConMapInfo@@3PEBUCESERVER_CONSOLE_MAPPING_HDR@@EB 00000001800459f0     ConEmuPluginBase.obj
 0003:000029f8       ?gpTabs@@3PEAUCESERVER_REQ@@EA 00000001800459f8     ConEmuPluginBase.obj
 0003:00002a00       ?gbForceSendTabs@@3HA      0000000180045a00     ConEmuPluginBase.obj
 0003:00002a04       ?gnCurrentWindowType@@3HA  0000000180045a04     ConEmuPluginBase.obj
 0003:00002a08       ?gPanelRegLeft@@3UPanelViewRegInfo@@A 0000000180045a08     ConEmuPluginBase.obj
 0003:00002a38       ?gPanelRegRight@@3UPanelViewRegInfo@@A 0000000180045a38     ConEmuPluginBase.obj
 0003:00002a68       ?gnSynchroCount@@3HA       0000000180045a68     ConEmuPluginBase.obj
 0003:00002a6c       ?TerminalMode@@3HA         0000000180045a6c     ConEmuPluginBase.obj
 0003:00002a70       ?gb_DllUniqueWarned@CPluginBase@@1_NA 0000000180045a70     ConEmuPluginBase.obj
 0003:00002a71       ?gb_DllUniqueChecked@CPluginBase@@1_NA 0000000180045a71     ConEmuPluginBase.obj
 0003:00002a72       ?gb_ProtocolWarned@CPluginBase@@1_NA 0000000180045a72     ConEmuPluginBase.obj
 0003:00002a73       ?gbExitFarCalled@@3_NA     0000000180045a73     ConEmuPluginBase.obj
 0003:00002a74       ?gnDummyMouseEventFromMacro@@3JA 0000000180045a74     ConEmuPluginBase.obj
 0003:00002a78       ?gLastMouseReadEvent@@3U_MOUSE_EVENT_RECORD@@A 0000000180045a78     ConEmuPluginBase.obj
 0003:00002a88       ?gbUngetDummyMouseEvent@@3HA 0000000180045a88     ConEmuPluginBase.obj
 0003:00002a8c       ?gbWasDetached@@3HA        0000000180045a8c     ConEmuPluginBase.obj
 0003:00002a90       ?gpPlugin@@3PEAVCPluginBase@@EA 0000000180045a90     ConEmuPluginBase.obj
 0003:00002a98       ?gbFarWndVisible@@3HA      0000000180045a98     ConEmuPluginBase.obj
 0003:00002a9c       ?gnPeekReadCount@@3KA      0000000180045a9c     ConEmuPluginBase.obj
 0003:00002aa0       ?gsbiDetached@@3U_CONSOLE_SCREEN_BUFFER_INFO@@A 0000000180045aa0     ConEmuPluginBase.obj
 0003:00002ab6       ?gbSynchroProhibited@@3_NA 0000000180045ab6     ConEmuPluginBase.obj
 0003:00002ab7       ?gbInputSynchroPending@@3_NA 0000000180045ab7     ConEmuPluginBase.obj
 0003:00002ab8       ?gnInLongOperation@@3JA    0000000180045ab8     ConEmuPluginBase.obj
 0003:00002abc       ?gdwPreDetachGuiPID@@3KA   0000000180045abc     ConEmuPluginBase.obj
 0003:00002ac0       ?gdwServerPID@@3KA         0000000180045ac0     ConEmuPluginBase.obj
 0003:00002ac4       ?gnMainThreadIdInitial@@3KA 0000000180045ac4     ConEmuPluginBase.obj
 0003:00002ac8       ?ghMonitorThread@@3PEAXEA  0000000180045ac8     ConEmuPluginBase.obj
 0003:00002ad0       ?gnMonitorThreadId@@3KA    0000000180045ad0     ConEmuPluginBase.obj
 0003:00002ad4       ?gbRequestUpdateTabs@@3HA  0000000180045ad4     ConEmuPluginBase.obj
 0003:00002ad8       ?ghSetWndSendTabsEvent@@3PEAXEA 0000000180045ad8     ConEmuPluginBase.obj
 0003:00002ae0       ?gbClosingModalViewerEditor@@3HA 0000000180045ae0     ConEmuPluginBase.obj
 0003:00002ae4       ?gnAllowDummyMouseEvent@@3JA 0000000180045ae4     ConEmuPluginBase.obj
 0003:00002ae8       ?csData@@3PEAVMSection@@EA 0000000180045ae8     ConEmuPluginBase.obj
 0003:00002af0       ?gpData@@3PEAEEA           0000000180045af0     ConEmuPluginBase.obj
 0003:00002af8       ?gpCursor@@3PEAEEA         0000000180045af8     ConEmuPluginBase.obj
 0003:00002b00       ?gnDataSize@@3KA           0000000180045b00     ConEmuPluginBase.obj
 0003:00002b04       ?gbReqCommandWaiting@@3HA  0000000180045b04     ConEmuPluginBase.obj
 0003:00002b08       ?gpReqCommandData@@3PEAXEA 0000000180045b08     ConEmuPluginBase.obj
 0003:00002b10       ?ghReqCommandEvent@@3PEAXEA 0000000180045b10     ConEmuPluginBase.obj
 0003:00002b18       ?gnMsgTabChanged@@3IA      0000000180045b18     ConEmuPluginBase.obj
 0003:00002b1c       ?gbPlugKeyChanged@@3HA     0000000180045b1c     ConEmuPluginBase.obj
 0003:00002b20       ?csTabs@@3PEAVMSection@@EA 0000000180045b20     ConEmuPluginBase.obj
 0003:00002b28       ?ghRegMonitorKey@@3PEAUHKEY__@@EA 0000000180045b28     ConEmuPluginBase.obj
 0003:00002b30       ?ghRegMonitorEvt@@3PEAXEA  0000000180045b30     ConEmuPluginBase.obj
 0003:00002b38       ?ghPluginSemaphore@@3PEAXEA 0000000180045b38     ConEmuPluginBase.obj
 0003:00002b40       ?gsFarLang@@3PA_WA         0000000180045b40     ConEmuPluginBase.obj
 0003:00002bc0       ?gbNeedPostTabSend@@3HA    0000000180045bc0     ConEmuPluginBase.obj
 0003:00002bc4       ?gbNeedPostEditCheck@@3HA  0000000180045bc4     ConEmuPluginBase.obj
 0003:00002bc8       ?gbNeedPostReloadFarInfo@@3HA 0000000180045bc8     ConEmuPluginBase.obj
 0003:00002bcc       ?gbNeedReloadFarDir@@3HA   0000000180045bcc     ConEmuPluginBase.obj
 0003:00002bd0       ?gnNeedPostTabSendTick@@3KA 0000000180045bd0     ConEmuPluginBase.obj
 0003:00002bd4       ?gbStartedUnderConsole2@@3HA 0000000180045bd4     ConEmuPluginBase.obj
 0003:00002bd8       ?gpConMap@@3PEAV?$MFileMapping@UCESERVER_CONSOLE_MAPPING_HDR@@@@EA 0000000180045bd8     ConEmuPluginBase.obj
 0003:00002be0       ?gnSelfPID@@3KA            0000000180045be0     ConEmuPluginBase.obj
 0003:00002be4       ?gbWaitConsoleInputEmpty@@3HA 0000000180045be4     ConEmuPluginBase.obj
 0003:00002be8       ?ghFarInfoMapping@@3PEAXEA 0000000180045be8     ConEmuPluginBase.obj
 0003:00002bf0       ?gpFarInfo@@3PEAUCEFAR_INFO_MAPPING@@EA 0000000180045bf0     ConEmuPluginBase.obj
 0003:00002bf8       ?gpFarInfoMapping@@3PEAUCEFAR_INFO_MAPPING@@EA 0000000180045bf8     ConEmuPluginBase.obj
 0003:00002c00       ?ghFarAliveEvent@@3PEAXEA  0000000180045c00     ConEmuPluginBase.obj
 0003:00002c08       ?ghConEmuCtrlPressed@@3PEAXEA 0000000180045c08     ConEmuPluginBase.obj
 0003:00002c10       ?ghConEmuShiftPressed@@3PEAXEA 0000000180045c10     ConEmuPluginBase.obj
 0003:00002c18       ?gbWaitConsoleWrite@@3HA   0000000180045c18     ConEmuPluginBase.obj
 0003:00002c20       ?ghConsoleInputEmpty@@3PEAXEA 0000000180045c20     ConEmuPluginBase.obj
 0003:00002c28       ?ghConsoleWrite@@3PEAXEA   0000000180045c28     ConEmuPluginBase.obj
 0003:00002c48       ?csbi@@3U_CONSOLE_SCREEN_BUFFER_INFO@@A 0000000180045c48     LogBrowser.obj
 0003:00002c5e       ?gbShowAttrsOnly@@3_NA     0000000180045c5e     LogBrowser.obj
 0003:00002c60       ?gnPage@@3HA               0000000180045c60     LogBrowser.obj
 0003:00002c68       ?gbBgPluginsAllowed@@3HA   0000000180045c68     PluginBackground.obj
 0003:00002c6c       ?gbNeedBgActivate@@3HA     0000000180045c6c     PluginBackground.obj
 0003:00002c70       ?gpBgPlugin@@3PEAVCPluginBackground@@EA 0000000180045c70     PluginBackground.obj
 0003:00002c80       ?ghServerTerminateEvent@@3PEAXEA 0000000180045c80     PluginSrv.obj
 0003:00002c88       ?gpPlugServer@@3PEAU?$PipeServer@UCESERVER_REQ@@@@EA 0000000180045c88     PluginSrv.obj
 0003:00002c90       ?gszPluginServerPipe@@3PA_WA 0000000180045c90     PluginSrv.obj
 0003:00002e98       ?gbForcedServerTermination@@3_NA 0000000180045e98     PluginSrv.obj
 0003:00002ea0       ?ghHeap@@3PEAXEA           0000000180045ea0     common-kernel64:Memory.obj
 0003:00002ea8       ?g_LastDeletePtr@@3PEAXEA  0000000180045ea8     common-kernel64:Memory.obj
 0003:00002eb8       ?gpLocalSecurity@@3PEAU_SECURITY_ATTRIBUTES@@EA 0000000180045eb8     common-kernel64:ConEmuCheck.obj
 0003:00002ec0       ?ghWorkingModule@@3UHANDLE2@@A 0000000180045ec0     common-kernel64:ConEmuCheck.obj
 0003:00002ec8       ?gfGetRealConsoleWindow@@3P6APEAUHWND__@@XZEA 0000000180045ec8     common-kernel64:ConEmuCheck.obj
 0003:00002f10       ?g_ThreadsIdx@@3JA         0000000180045f10     common-kernel64:WThreads.obj
 0003:0000b728       ?gbInCommonShutdown@@3HA   000000018004e728     common-kernel64:Common.obj
 0003:0000b730       ?gNullDesc@@3PEAVMNullDesc@@EA 000000018004e730     common-kernel64:MSecurity.obj
 0003:0000b738       ?gfnSearchAppPaths@@3P6A_NPEB_WAEAUCEStr@@_NPEAVCEnvRestorer@@@ZEA 000000018004e738     common-kernel64:WObjects.obj
 0003:0000b754       ?hkFunc@@3UHkFunc@@A       000000018004e754     common-kernel64:HkFunc.obj
 0003:0000b790       ?gsMapHelper@@3UConsoleSectionHelper@@A 000000018004e790     common-user64:WConsoleEx.obj
 0003:0000b7a0       _tls_index                 000000018004e7a0     LIBCMT:tlssup.obj
 0003:0000b7f8       __scrt_current_native_startup_state 000000018004e7f8     LIBCMT:utility.obj
 0003:0000b800       __scrt_native_startup_lock 000000018004e800     LIBCMT:utility.obj
 0003:0000bdb0       __scrt_debugger_hook_flag  000000018004edb0     LIBCMT:utility_desktop.obj
 0003:0000bdc0       ?__type_info_root_node@@3U__type_info_node@@A 000000018004edc0     LIBCMT:tncleanup.obj
 0003:0000bdd0       ?_OptionsStorage@?1??__local_stdio_scanf_options@@9@4_KA 000000018004edd0     LIBCMT:default_local_stdio_options.obj
 0003:0000bdd8       __favor                    000000018004edd8     LIBCMT:cpu_disp.obj
 0003:0000bde0       ?__WinRTOutOfMemoryExceptionCallback@@3P6APEAXXZEA 000000018004ede0     libvcruntime:ehhelpers.obj
 0003:0000be80       __pPurecall                000000018004ee80     libvcruntime:purevirt_data.obj
 0003:0000bef8       ?pArgList@UnDecorator@@0PEAVReplicator@@EA 000000018004eef8     libvcruntime:undname.obj
 0003:0000bf00       ?pZNameList@UnDecorator@@0PEAVReplicator@@EA 000000018004ef00     libvcruntime:undname.obj
 0003:0000bf08       ?pTemplateArgList@UnDecorator@@0PEAVReplicator@@EA 000000018004ef08     libvcruntime:undname.obj
 0003:0000bf10       ?gName@UnDecorator@@0PEBDEB 000000018004ef10     libvcruntime:undname.obj
 0003:0000bf18       ?name@UnDecorator@@0PEBDEB 000000018004ef18     libvcruntime:undname.obj
 0003:0000bf20       ?disableFlags@UnDecorator@@0KA 000000018004ef20     libvcruntime:undname.obj
 0003:0000bf24       ?fExplicitTemplateParams@UnDecorator@@0_NA 000000018004ef24     libvcruntime:undname.obj
 0003:0000bf25       ?fGetTemplateArgumentList@UnDecorator@@0_NA 000000018004ef25     libvcruntime:undname.obj
 0003:0000bf28       ?m_pGetParameter@UnDecorator@@0P6APEADJ@ZEA 000000018004ef28     libvcruntime:undname.obj
 0003:0000bf30       ?m_CHPENameOffset@UnDecorator@@0KA 000000018004ef30     libvcruntime:undname.obj
 0003:0000bf34       ?m_recursionLevel@UnDecorator@@0KA 000000018004ef34     libvcruntime:undname.obj
 0003:0000c088       _environ_table             000000018004f088     libucrt:environment_initialization.obj
 0003:0000c090       _wenviron_table            000000018004f090     libucrt:environment_initialization.obj
 0003:0000c098       __dcrt_initial_wide_environment 000000018004f098     libucrt:environment_initialization.obj
 0003:0000c0a0       __dcrt_initial_narrow_environment 000000018004f0a0     libucrt:environment_initialization.obj
 0003:0000c0a8       __acrt_atexit_table        000000018004f0a8     libucrt:onexit.obj
 0003:0000c0c0       __acrt_at_quick_exit_table 000000018004f0c0     libucrt:onexit.obj
 0003:0000c0d8       _nstream                   000000018004f0d8     libucrt:_file.obj
 0003:0000c0e0       __piob                     000000018004f0e0     libucrt:_file.obj
 0003:0000c0f0       __acrt_stdout_buffer       000000018004f0f0     libucrt:_sftbuf.obj
 0003:0000c0f8       __acrt_stderr_buffer       000000018004f0f8     libucrt:_sftbuf.obj
 0003:0000c100       __acrt_locale_changed_data 000000018004f100     libucrt:wsetlocale.obj
 0003:0000c108       __acrt_current_locale_data 000000018004f108     libucrt:nlsdata.obj
 0003:0000c110       __pioinfo                  000000018004f110     libucrt:ioinit.obj
 0003:0000c510       _nhandle                   000000018004f510     libucrt:ioinit.obj
 0003:0000c8d4       __mbcodepage               000000018004f8d4     libucrt:mbctype.obj
 0003:0000c8d8       __ismbcodepage             000000018004f8d8     libucrt:mbctype.obj
 0003:0000c8e0       __mbulinfo                 000000018004f8e0     libucrt:mbctype.obj
 0003:0000c8f0       __mblocalename             000000018004f8f0     libucrt:mbctype.obj
 0003:0000c8fc       __argc                     000000018004f8fc     libucrt:argv_data.obj
 0003:0000c900       __argv                     000000018004f900     libucrt:argv_data.obj
 0003:0000c908       __wargv                    000000018004f908     libucrt:argv_data.obj
 0003:0000c910       _acmdln                    000000018004f910     libucrt:argv_data.obj
 0003:0000c918       _wcmdln                    000000018004f918     libucrt:argv_data.obj
 0003:0000c920       _pgmptr                    000000018004f920     libucrt:argv_data.obj
 0003:0000c928       __acrt_heap                000000018004f928     libucrt:heap_handle.obj
 0003:0000c964       __acrt_lconv_static_null   000000018004f964     libucrt:localeconv.obj
 0003:0000c968       __acrt_lconv_static_W_null 000000018004f968     libucrt:localeconv.obj
 0003:0000c970       __fma3_is_available        000000018004f970     libucrt:fma3_available.obj
 0003:0000c974       __use_fma3_lib             000000018004f974     libucrt:fma3_available.obj
 0003:0000c980       ?g_LastSetConsoleFont@@3UMY_CONSOLE_FONT_INFOEX@@A 000000018004f980     common-kernel64:WConsole.obj
 0003:0000c9f4       __scrt_ucrt_dll_is_in_use  000000018004f9f4     <common>
 0003:0000c9f8       __dyn_tls_init_callback    000000018004f9f8     <common>

 entry point at        0001:0001ce48

 Static symbols

 0000:fffab000       .debug$S                   0000000180000000     kernel32:KERNEL32.dll
 0000:fffab000       .debug$S                   0000000180000000     kernel32:KERNEL32.dll
 0000:fffab000       .debug$S                   0000000180000000     kernel32:KERNEL32.dll
 0000:fffab000       .debug$S                   0000000180000000     advapi32:ADVAPI32.dll
 0000:fffab000       .debug$S                   0000000180000000     advapi32:ADVAPI32.dll
 0000:fffab000       .debug$S                   0000000180000000     kernel32:KERNEL32.dll
 0000:fffab000       .debug$S                   0000000180000000     advapi32:ADVAPI32.dll
 0000:fffab000       .debug$S                   0000000180000000     gdi32:GDI32.dll
 0000:fffab000       .debug$S                   0000000180000000     gdi32:GDI32.dll
 0000:fffab000       .debug$S                   0000000180000000     kernel32:KERNEL32.dll
 0000:fffab000       .debug$S                   0000000180000000     kernel32:KERNEL32.dll
 0000:fffab000       .debug$S                   0000000180000000     kernel32:KERNEL32.dll
 0000:fffab000       .debug$S                   0000000180000000     kernel32:KERNEL32.dll
 0000:fffab000       .debug$S                   0000000180000000     kernel32:KERNEL32.dll
 0000:fffab000       .debug$S                   0000000180000000     kernel32:KERNEL32.dll
 0000:fffab000       .debug$S                   0000000180000000     kernel32:KERNEL32.dll
 0000:fffab000       .debug$S                   0000000180000000     kernel32:KERNEL32.dll
 0000:fffab000       .debug$S                   0000000180000000     kernel32:KERNEL32.dll
 0000:fffab000       .debug$S                   0000000180000000     kernel32:KERNEL32.dll
 0000:fffab000       .debug$S                   0000000180000000     kernel32:KERNEL32.dll
 0000:fffab000       .debug$S                   0000000180000000     kernel32:KERNEL32.dll
 0000:fffab000       .debug$S                   0000000180000000     kernel32:KERNEL32.dll
 0000:fffab000       .debug$S                   0000000180000000     kernel32:KERNEL32.dll
 0000:fffab000       .debug$S                   0000000180000000     kernel32:KERNEL32.dll
 0000:fffab000       .debug$S                   0000000180000000     kernel32:KERNEL32.dll
 0000:fffab000       .debug$S                   0000000180000000     kernel32:KERNEL32.dll
 0000:fffab000       .debug$S                   0000000180000000     kernel32:KERNEL32.dll
 0000:fffab000       .debug$S                   0000000180000000     kernel32:KERNEL32.dll
 0000:fffab000       .debug$S                   0000000180000000     kernel32:KERNEL32.dll
 0000:fffab000       .debug$S                   0000000180000000     kernel32:KERNEL32.dll
 0000:fffab000       .debug$S                   0000000180000000     kernel32:KERNEL32.dll
 0000:fffab000       .debug$S                   0000000180000000     gdi32:GDI32.dll
 0000:fffab000       .debug$S                   0000000180000000     gdi32:GDI32.dll
 0000:fffab000       .debug$S                   0000000180000000     ConEmu.x64.exp
 0000:fffab000       .debug$S                   0000000180000000     kernel32:KERNEL32.dll
 0000:fffab000       .debug$S                   0000000180000000     user32:USER32.dll
 0000:fffab000       .debug$S                   0000000180000000     kernel32:KERNEL32.dll
 0000:fffab000       .debug$S                   0000000180000000     kernel32:KERNEL32.dll
 0000:fffab000       .debug$S                   0000000180000000     kernel32:KERNEL32.dll
 0000:fffab000       .debug$S                   0000000180000000     kernel32:KERNEL32.dll
 0000:fffab000       .debug$S                   0000000180000000     kernel32:KERNEL32.dll
 0000:fffab000       .debug$S                   0000000180000000     kernel32:KERNEL32.dll
 0000:fffab000       .debug$S                   0000000180000000     kernel32:KERNEL32.dll
 0000:fffab000       .debug$S                   0000000180000000     kernel32:KERNEL32.dll
 0000:fffab000       .debug$S                   0000000180000000     kernel32:KERNEL32.dll
 0000:fffab000       .debug$S                   0000000180000000     kernel32:KERNEL32.dll
 0000:fffab000       .debug$S                   0000000180000000     kernel32:KERNEL32.dll
 0000:fffab000       .debug$S                   0000000180000000     kernel32:KERNEL32.dll
 0000:fffab000       .debug$S                   0000000180000000     kernel32:KERNEL32.dll
 0000:fffab000       .debug$S                   0000000180000000     kernel32:KERNEL32.dll
 0000:fffab000       .debug$S                   0000000180000000     gdi32:GDI32.dll
 0000:fffab000       .debug$S                   0000000180000000     kernel32:KERNEL32.dll
 0000:fffab000       .debug$S                   0000000180000000     gdi32:GDI32.dll
 0000:fffab000       .debug$S                   0000000180000000     gdi32:GDI32.dll
 0000:fffab000       .debug$S                   0000000180000000     gdi32:GDI32.dll
 0000:fffab000       .debug$S                   0000000180000000     kernel32:KERNEL32.dll
 0000:fffab000       .debug$S                   0000000180000000     user32:USER32.dll
 0000:fffab000       .debug$S                   0000000180000000     user32:USER32.dll
 0002:fffcf000       .idata$6                   0000000180000000     shell32:SHELL32.dll
 0000:fffab000       .debug$S                   0000000180000000     shell32:SHELL32.dll
 0000:fffab000       .debug$S                   0000000180000000     advapi32:ADVAPI32.dll
 0000:fffab000       .debug$S                   0000000180000000     advapi32:ADVAPI32.dll
 0000:fffab000       .debug$S                   0000000180000000     advapi32:ADVAPI32.dll
 0000:fffab000       .debug$S                   0000000180000000     advapi32:ADVAPI32.dll
 0000:fffab000       .debug$S                   0000000180000000     advapi32:ADVAPI32.dll
 0000:fffab000       .debug$S                   0000000180000000     advapi32:ADVAPI32.dll
 0000:fffab000       .debug$S                   0000000180000000     advapi32:ADVAPI32.dll
 0000:fffab000       .debug$S                   0000000180000000     advapi32:ADVAPI32.dll
 0000:fffab000       .debug$S                   0000000180000000     gdi32:GDI32.dll
 0000:fffab000       .debug$S                   0000000180000000     gdi32:GDI32.dll
 0000:fffab000       .debug$S                   0000000180000000     gdi32:GDI32.dll
 0000:fffab000       .debug$S                   0000000180000000     gdi32:GDI32.dll
 0000:fffab000       .debug$S                   0000000180000000     gdi32:GDI32.dll
 0000:fffab000       .debug$S                   0000000180000000     user32:USER32.dll
 0000:fffab000       .debug$S                   0000000180000000     user32:USER32.dll
 0000:fffab000       .debug$S                   0000000180000000     user32:USER32.dll
 0000:fffab000       .debug$S                   0000000180000000     user32:USER32.dll
 0000:fffab000       .debug$S                   0000000180000000     user32:USER32.dll
 0000:fffab000       .debug$S                   0000000180000000     user32:USER32.dll
 0000:fffab000       .debug$S                   0000000180000000     user32:USER32.dll
 0000:fffab000       .debug$S                   0000000180000000     user32:USER32.dll
 0000:fffab000       .debug$S                   0000000180000000     user32:USER32.dll
 0000:fffab000       .debug$S                   0000000180000000     user32:USER32.dll
 0000:fffab000       .debug$S                   0000000180000000     user32:USER32.dll
 0000:fffab000       .debug$S                   0000000180000000     user32:USER32.dll
 0000:fffab000       .debug$S                   0000000180000000     user32:USER32.dll
 0000:fffab000       .debug$S                   0000000180000000     user32:USER32.dll
 0000:fffab000       .debug$S                   0000000180000000     user32:USER32.dll
 0000:fffab000       .debug$S                   0000000180000000     user32:USER32.dll
 0000:fffab000       .debug$S                   0000000180000000     user32:USER32.dll
 0000:fffab000       .debug$S                   0000000180000000     user32:USER32.dll
 0000:fffab000       .debug$S                   0000000180000000     user32:USER32.dll
 0000:fffab000       .debug$S                   0000000180000000     user32:USER32.dll
 0000:fffab000       .debug$S                   0000000180000000     user32:USER32.dll
 0000:fffab000       .debug$S                   0000000180000000     user32:USER32.dll
 0000:fffab000       .debug$S                   0000000180000000     user32:USER32.dll
 0000:fffab000       .debug$S                   0000000180000000     user32:USER32.dll
 0000:fffab000       .debug$S                   0000000180000000     kernel32:KERNEL32.dll
 0000:fffab000       .debug$S                   0000000180000000     kernel32:KERNEL32.dll
 0000:fffab000       .debug$S                   0000000180000000     kernel32:KERNEL32.dll
 0000:fffab000       .debug$S                   0000000180000000     kernel32:KERNEL32.dll
 0000:fffab000       .debug$S                   0000000180000000     kernel32:KERNEL32.dll
 0000:fffab000       .debug$S                   0000000180000000     kernel32:KERNEL32.dll
 0000:fffab000       .debug$S                   0000000180000000     kernel32:KERNEL32.dll
 0000:fffab000       .debug$S                   0000000180000000     kernel32:KERNEL32.dll
 0000:fffab000       .debug$S                   0000000180000000     kernel32:KERNEL32.dll
 0000:fffab000       .debug$S                   0000000180000000     kernel32:KERNEL32.dll
 0000:fffab000       .debug$S                   0000000180000000     kernel32:KERNEL32.dll
 0000:fffab000       .debug$S                   0000000180000000     kernel32:KERNEL32.dll
 0000:fffab000       .debug$S                   0000000180000000     kernel32:KERNEL32.dll
 0000:fffab000       .debug$S                   0000000180000000     kernel32:KERNEL32.dll
 0000:fffab000       .debug$S                   0000000180000000     kernel32:KERNEL32.dll
 0000:fffab000       .debug$S                   0000000180000000     kernel32:KERNEL32.dll
 0000:fffab000       .debug$S                   0000000180000000     kernel32:KERNEL32.dll
 0000:fffab000       .debug$S                   0000000180000000     kernel32:KERNEL32.dll
 0000:fffab000       .debug$S                   0000000180000000     kernel32:KERNEL32.dll
 0000:fffab000       .debug$S                   0000000180000000     kernel32:KERNEL32.dll
 0000:fffab000       .debug$S                   0000000180000000     kernel32:KERNEL32.dll
 0000:fffab000       .debug$S                   0000000180000000     kernel32:KERNEL32.dll
 0000:fffab000       .debug$S                   0000000180000000     kernel32:KERNEL32.dll
 0000:fffab000       .debug$S                   0000000180000000     kernel32:KERNEL32.dll
 0000:fffab000       .debug$S                   0000000180000000     kernel32:KERNEL32.dll
 0000:fffab000       .debug$S                   0000000180000000     kernel32:KERNEL32.dll
 0000:fffab000       .debug$S                   0000000180000000     kernel32:KERNEL32.dll
 0000:fffab000       .debug$S                   0000000180000000     kernel32:KERNEL32.dll
 0000:fffab000       .debug$S                   0000000180000000     kernel32:KERNEL32.dll
 0000:fffab000       .debug$S                   0000000180000000     kernel32:KERNEL32.dll
 0000:fffab000       .debug$S                   0000000180000000     kernel32:KERNEL32.dll
 0000:fffab000       .debug$S                   0000000180000000     kernel32:KERNEL32.dll
 0000:fffab000       .debug$S                   0000000180000000     kernel32:KERNEL32.dll
 0000:fffab000       .debug$S                   0000000180000000     kernel32:KERNEL32.dll
 0000:fffab000       .debug$S                   0000000180000000     kernel32:KERNEL32.dll
 0000:fffab000       .debug$S                   0000000180000000     kernel32:KERNEL32.dll
 0000:fffab000       .debug$S                   0000000180000000     kernel32:KERNEL32.dll
 0000:fffab000       .debug$S                   0000000180000000     kernel32:KERNEL32.dll
 0000:fffab000       .debug$S                   0000000180000000     kernel32:KERNEL32.dll
 0000:fffab000       .debug$S                   0000000180000000     kernel32:KERNEL32.dll
 0000:fffab000       .debug$S                   0000000180000000     kernel32:KERNEL32.dll
 0000:fffab000       .debug$S                   0000000180000000     kernel32:KERNEL32.dll
 0000:fffab000       .debug$S                   0000000180000000     kernel32:KERNEL32.dll
 0000:fffab000       .debug$S                   0000000180000000     kernel32:KERNEL32.dll
 0000:fffab000       .debug$S                   0000000180000000     kernel32:KERNEL32.dll
 0000:fffab000       .debug$S                   0000000180000000     kernel32:KERNEL32.dll
 0000:fffab000       .debug$S                   0000000180000000     kernel32:KERNEL32.dll
 0000:fffab000       .debug$S                   0000000180000000     kernel32:KERNEL32.dll
 0000:fffab000       .debug$S                   0000000180000000     kernel32:KERNEL32.dll
 0000:fffab000       .debug$S                   0000000180000000     kernel32:KERNEL32.dll
 0000:fffab000       .debug$S                   0000000180000000     kernel32:KERNEL32.dll
 0000:fffab000       .debug$S                   0000000180000000     kernel32:KERNEL32.dll
 0000:fffab000       .debug$S                   0000000180000000     kernel32:KERNEL32.dll
 0000:fffab000       .debug$S                   0000000180000000     kernel32:KERNEL32.dll
 0000:fffab000       .debug$S                   0000000180000000     kernel32:KERNEL32.dll
 0000:fffab000       .debug$S                   0000000180000000     kernel32:KERNEL32.dll
 0000:fffab000       .debug$S                   0000000180000000     kernel32:KERNEL32.dll
 0000:fffab000       .debug$S                   0000000180000000     kernel32:KERNEL32.dll
 0000:fffab000       .debug$S                   0000000180000000     kernel32:KERNEL32.dll
 0000:fffab000       .debug$S                   0000000180000000     kernel32:KERNEL32.dll
 0000:fffab000       .debug$S                   0000000180000000     kernel32:KERNEL32.dll
 0000:fffab000       .debug$S                   0000000180000000     kernel32:KERNEL32.dll
 0000:fffab000       .debug$S                   0000000180000000     kernel32:KERNEL32.dll
 0000:fffab000       .debug$S                   0000000180000000     kernel32:KERNEL32.dll
 0000:fffab000       .debug$S                   0000000180000000     kernel32:KERNEL32.dll
 0000:fffab000       .debug$S                   0000000180000000     kernel32:KERNEL32.dll
 0000:fffab000       .debug$S                   0000000180000000     kernel32:KERNEL32.dll
 0000:fffab000       .debug$S                   0000000180000000     kernel32:KERNEL32.dll
 0000:fffab000       .debug$S                   0000000180000000     kernel32:KERNEL32.dll
 0000:fffab000       .debug$S                   0000000180000000     kernel32:KERNEL32.dll
 0000:fffab000       .debug$S                   0000000180000000     kernel32:KERNEL32.dll
 0000:fffab000       .debug$S                   0000000180000000     kernel32:KERNEL32.dll
 0000:fffab000       .debug$S                   0000000180000000     kernel32:KERNEL32.dll
 0000:fffab000       .debug$S                   0000000180000000     kernel32:KERNEL32.dll
 0000:fffab000       .debug$S                   0000000180000000     kernel32:KERNEL32.dll
 0000:fffab000       .debug$S                   0000000180000000     kernel32:KERNEL32.dll
 0000:fffab000       .debug$S                   0000000180000000     kernel32:KERNEL32.dll
 0000:fffab000       .debug$S                   0000000180000000     kernel32:KERNEL32.dll
 0000:fffab000       .debug$S                   0000000180000000     kernel32:KERNEL32.dll
 0000:fffab000       .debug$S                   0000000180000000     kernel32:KERNEL32.dll
 0000:fffab000       .debug$S                   0000000180000000     kernel32:KERNEL32.dll
 0000:fffab000       .debug$S                   0000000180000000     kernel32:KERNEL32.dll
 0000:fffab000       .debug$S                   0000000180000000     kernel32:KERNEL32.dll
 0000:fffab000       .debug$S                   0000000180000000     kernel32:KERNEL32.dll
 0000:fffab000       .debug$S                   0000000180000000     kernel32:KERNEL32.dll
 0000:fffab000       .debug$S                   0000000180000000     kernel32:KERNEL32.dll
 0000:fffab000       .debug$S                   0000000180000000     kernel32:KERNEL32.dll
 0000:fffab000       .debug$S                   0000000180000000     kernel32:KERNEL32.dll
 0000:fffab000       .debug$S                   0000000180000000     kernel32:KERNEL32.dll
 0000:fffab000       .debug$S                   0000000180000000     kernel32:KERNEL32.dll
 0000:fffab000       .debug$S                   0000000180000000     kernel32:KERNEL32.dll
 0000:fffab000       .debug$S                   0000000180000000     kernel32:KERNEL32.dll
 0000:fffab000       .debug$S                   0000000180000000     kernel32:KERNEL32.dll
 0000:fffab000       .debug$S                   0000000180000000     kernel32:KERNEL32.dll
 0000:fffab000       .debug$S                   0000000180000000     kernel32:KERNEL32.dll
 0000:fffab000       .debug$S                   0000000180000000     kernel32:KERNEL32.dll
 0000:fffab000       .debug$S                   0000000180000000     kernel32:KERNEL32.dll
 0000:fffab000       .debug$S                   0000000180000000     kernel32:KERNEL32.dll
 0000:fffab000       .debug$S                   0000000180000000     kernel32:KERNEL32.dll
 0000:fffab000       .debug$S                   0000000180000000     kernel32:KERNEL32.dll
 0000:fffab000       .debug$S                   0000000180000000     kernel32:KERNEL32.dll
 0000:fffab000       .debug$S                   0000000180000000     kernel32:KERNEL32.dll
 0000:fffab000       .debug$S                   0000000180000000     kernel32:KERNEL32.dll
 0000:fffab000       .debug$S                   0000000180000000     kernel32:KERNEL32.dll
 0000:fffab000       .debug$S                   0000000180000000     kernel32:KERNEL32.dll
 0000:fffab000       .debug$S                   0000000180000000     kernel32:KERNEL32.dll
 0000:fffab000       .debug$S                   0000000180000000     kernel32:KERNEL32.dll
 0000:fffab000       .debug$S                   0000000180000000     kernel32:KERNEL32.dll
 0000:fffab000       .debug$S                   0000000180000000     user32:USER32.dll
 0000:fffab000       .debug$S                   0000000180000000     user32:USER32.dll
 0000:fffab000       .debug$S                   0000000180000000     kernel32:KERNEL32.dll
 0000:fffab000       .debug$S                   0000000180000000     user32:USER32.dll
 0000:fffab000       .debug$S                   0000000180000000     kernel32:KERNEL32.dll
 0000:fffab000       .debug$S                   0000000180000000     kernel32:KERNEL32.dll
 0000:fffab000       .debug$S                   0000000180000000     kernel32:KERNEL32.dll
 0000:fffab000       .debug$S                   0000000180000000     kernel32:KERNEL32.dll
 0000:fffab000       .debug$S                   0000000180000000     user32:USER32.dll
 0000:fffab000       .debug$S                   0000000180000000     user32:USER32.dll
 0000:fffab000       .debug$S                   0000000180000000     user32:USER32.dll
 0000:fffab000       .debug$S                   0000000180000000     kernel32:KERNEL32.dll
 0000:fffab000       .debug$S                   0000000180000000     user32:USER32.dll
 0000:fffab000       .debug$S                   0000000180000000     kernel32:KERNEL32.dll
 0000:fffab000       .debug$S                   0000000180000000     kernel32:KERNEL32.dll
 0000:fffab000       .debug$S                   0000000180000000     kernel32:KERNEL32.dll
 0000:fffab000       .debug$S                   0000000180000000     kernel32:KERNEL32.dll
 0000:fffab000       .debug$S                   0000000180000000     kernel32:KERNEL32.dll
 0000:fffab000       .debug$S                   0000000180000000     kernel32:KERNEL32.dll
 0000:fffab000       .debug$S                   0000000180000000     version:VERSION.dll
 0000:fffab000       .debug$S                   0000000180000000     user32:USER32.dll
 0000:fffab000       .debug$S                   0000000180000000     user32:USER32.dll
 0000:fffab000       .debug$S                   0000000180000000     kernel32:KERNEL32.dll
 0000:fffab000       .debug$S                   0000000180000000     user32:USER32.dll
 0000:fffab000       .debug$S                   0000000180000000     kernel32:KERNEL32.dll
 0000:fffab000       .debug$S                   0000000180000000     kernel32:KERNEL32.dll
 0000:fffab000       .debug$S                   0000000180000000     user32:USER32.dll
 0000:fffab000       .debug$S                   0000000180000000     user32:USER32.dll
 0000:fffab000       .debug$S                   0000000180000000     version:VERSION.dll
 0000:fffab000       .debug$S                   0000000180000000     version:VERSION.dll
 0000:fffab000       .debug$S                   0000000180000000     user32:USER32.dll
 0000:fffab000       .debug$S                   0000000180000000     kernel32:KERNEL32.dll
 0000:fffab000       .debug$S                   0000000180000000     kernel32:KERNEL32.dll
 0000:fffab000       .debug$S                   0000000180000000     kernel32:KERNEL32.dll
 0000:fffab000       .debug$S                   0000000180000000     kernel32:KERNEL32.dll
 0000:fffab000       .debug$S                   0000000180000000     user32:USER32.dll
 0000:fffab000       .debug$S                   0000000180000000     kernel32:KERNEL32.dll
 0000:fffab000       .debug$S                   0000000180000000     kernel32:KERNEL32.dll
 0000:fffab000       .debug$S                   0000000180000000     kernel32:KERNEL32.dll
 0000:fffab000       .debug$S                   0000000180000000     kernel32:KERNEL32.dll
 0000:fffab000       .debug$S                   0000000180000000     kernel32:KERNEL32.dll
 0000:fffab000       .debug$S                   0000000180000000     kernel32:KERNEL32.dll
 0000:fffab000       .debug$S                   0000000180000000     kernel32:KERNEL32.dll
 0000:fffab000       .debug$S                   0000000180000000     kernel32:KERNEL32.dll
 0000:fffab000       .debug$S                   0000000180000000     kernel32:KERNEL32.dll
 0000:fffab000       .debug$S                   0000000180000000     kernel32:KERNEL32.dll
 0000:fffab000       .debug$S                   0000000180000000     kernel32:KERNEL32.dll
 0000:fffab000       .debug$S                   0000000180000000     kernel32:KERNEL32.dll
 0000:fffab000       .debug$S                   0000000180000000     kernel32:KERNEL32.dll
 0000:fffab000       .debug$S                   0000000180000000     kernel32:KERNEL32.dll
 0000:fffab000       .debug$S                   0000000180000000     kernel32:KERNEL32.dll
 0000:fffab000       .debug$S                   0000000180000000     kernel32:KERNEL32.dll
 0000:fffab000       .debug$S                   0000000180000000     kernel32:KERNEL32.dll
 0000:fffab000       .debug$S                   0000000180000000     kernel32:KERNEL32.dll
 0000:fffab000       .debug$S                   0000000180000000     kernel32:KERNEL32.dll
 0001:00000000       ??__EgsMapHelper@@YAXXZ    0000000180001000 f   common-user64:WConsoleEx.obj
 0001:0000136c       ?CallGuiMacroDlg@@YA_JPEAXHH0@Z 000000018000236c f   ConEmuPlugin1900.obj
 0001:00001578       ?CallGuiMacroProc@@YAXXZ   0000000180002578 f   ConEmuPlugin1900.obj
 0001:00001d70       ?GetFarSetting@@YAHPEAX_KPEB_W@Z 0000000180002d70 f   ConEmuPlugin1900.obj
 0001:00003f5c       ?CallGuiMacroDlg@@YA_JPEAX_J10@Z 0000000180004f5c f   ConEmuPlugin2800.obj
 0001:00004170       ?CallGuiMacroProc@@YAXXZ   0000000180005170 f   ConEmuPlugin2800.obj
 0001:000045b4       ?FreeMacroResult@@YAXPEAXPEAUFarMacroValue@@_K@Z 00000001800055b4 f   ConEmuPlugin2800.obj
 0001:00004740       ?GetFarSetting@@YAHPEAX_KPEB_W@Z 0000000180005740 f   ConEmuPlugin2800.obj
 0001:000065a0       ?WExists@@YA_JAEBUWindowInfo@@AEBV?$MArray@UWindowInfo@@@@@Z 00000001800075a0 f   ConEmuPlugin2800.obj
 0001:00006604       ?WLoadWindows@@YA_JAEAV?$MArray@UWindowInfo@@@@H@Z 0000000180007604 f   ConEmuPlugin2800.obj
 0001:00006ff0       ?CallGuiMacroDlg@@YA_JPEAXHH_J@Z 0000000180007ff0 f   ConEmuPlugin995.obj
 0001:000071dc       ?CallGuiMacroProc@@YAXXZ   00000001800081dc f   ConEmuPlugin995.obj
 0001:00008ba4       ?CallGuiMacroDlg@@YA_JPEAXHH_J@Z 0000000180009ba4 f   ConEmuPluginA.obj
 0001:00008e4c       ?CallGuiMacroProc@@YAXXZ   0000000180009e4c f   ConEmuPluginA.obj
 0001:0000cd8c       ?LoadFarVersion@@YA_NAEAUFarVersion@@AEAY0CAA@_W@Z 000000018000dd8c f   ConEmuPluginBase.obj
 0001:0000cf34       ?LoadModuleVersion@@YA_NPEB_WAEAUtagVS_FIXEDFILEINFO@@PEA_W_K@Z 000000018000df34 f   ConEmuPluginBase.obj
 0001:00019980       report_memory_leaks        000000018001a980 f i libucrt:initialization.obj
 0001:00019980       uninitialize_c             000000018001a980 f i libucrt:initialization.obj
 0001:00019980       uninitialize_global_state_isolation 000000018001a980 f i libucrt:initialization.obj
 0001:00019980       initialize_global_state_isolation 000000018001a980 f i libucrt:initialization.obj
 0001:00019980       initialize_environment     000000018001a980 f i libucrt:initialization.obj
 0001:0001c6b0       $$000000                   000000018001d6b0     LIBCMT:amdsecgs.obj
 0001:0001c6f0       $$000000                   000000018001d6f0     LIBCMT:chkstk.obj
 0001:0001c800       ?__scrt_initialize_thread_safe_statics@@YAHXZ 000000018001d800 f   LIBCMT:thread_safe_statics.obj
 0001:0001c960       ?__scrt_uninitialize_thread_safe_statics@@YAXXZ 000000018001d960 f   LIBCMT:thread_safe_statics.obj
 0001:0001cb18       ?dllmain_crt_dispatch@@YAHQEAUHINSTANCE__@@KQEAX@Z 000000018001db18 f   LIBCMT:dll_dllmain.obj
 0001:0001cb68       ?dllmain_crt_process_attach@@YAHQEAUHINSTANCE__@@QEAX@Z 000000018001db68 f   LIBCMT:dll_dllmain.obj
 0001:0001cc84       ?dllmain_crt_process_detach@@YAH_N@Z 000000018001dc84 f   LIBCMT:dll_dllmain.obj
 0001:0001cd14       ?dllmain_dispatch@@YAHQEAUHINSTANCE__@@KQEAX@Z 000000018001dd14 f   LIBCMT:dll_dllmain.obj
 0001:0001d424       capture_current_context    000000018001e424 f   LIBCMT:gs_report.obj
 0001:0001d494       capture_previous_context   000000018001e494 f   LIBCMT:gs_report.obj
 0001:0001df80       $$000000                   000000018001ef80     libvcruntime:memcpy.obj
 0001:0001e037       MoveSmall                  000000018001f037     libvcruntime:memcpy.obj
 0001:0001e6a0       $$000000                   000000018001f6a0     libvcruntime:memset.obj
 0001:0001e79c       MsetTab                    000000018001f79c     libvcruntime:memset.obj
 0001:0001ebe0       $$000000                   000000018001fbe0     libvcruntime:memcmp.obj
 0001:0001f458       ??$BuildCatchObjectHelperInternal@V__FrameHandler3@@@@YAHPEAUEHExceptionRecord@@PEAXPEBU_s_HandlerType@@PEBU_s_CatchableType@@@Z 0000000180020458 f   libvcruntime:frame.obj
 0001:0001f658       ??$BuildCatchObjectInternal@V__FrameHandler3@@@@YAXPEAUEHExceptionRecord@@PEAXPEBU_s_HandlerType@@PEBU_s_CatchableType@@@Z 0000000180020658 f   libvcruntime:frame.obj
 0001:0001f718       ??$CatchIt@V__FrameHandler3@@@@YAXPEAUEHExceptionRecord@@PEA_KPEAU_CONTEXT@@PEAU_xDISPATCHER_CONTEXT@@PEBU_s_FuncInfo@@PEBU_s_HandlerType@@PEBU_s_CatchableType@@PEBU_s_TryBlockMapEntry@@H1EE@Z 0000000180020718 f   libvcruntime:frame.obj
 0001:0001f7e8       ??$FindHandler@V__FrameHandler3@@@@YAXPEAUEHExceptionRecord@@PEA_KPEAU_CONTEXT@@PEAU_xDISPATCHER_CONTEXT@@PEBU_s_FuncInfo@@EH1@Z 00000001800207e8 f   libvcruntime:frame.obj
 0001:0001fc4c       ??$FindHandlerForForeignException@V__FrameHandler3@@@@YAXPEAUEHExceptionRecord@@PEA_KPEAU_CONTEXT@@PEAU_xDISPATCHER_CONTEXT@@PEBU_s_FuncInfo@@HH1@Z 0000000180020c4c f   libvcruntime:frame.obj
 0001:00020454       ?ExFilterRethrow@@YAHPEAU_EXCEPTION_POINTERS@@PEAUEHExceptionRecord@@PEAH@Z 0000000180021454 f   libvcruntime:frame.obj
 0001:00020708       ?IsInExceptionSpec@@YAEPEAUEHExceptionRecord@@PEBU_s_ESTypeList@@@Z 0000000180021708 f   libvcruntime:frame.obj
 0001:000207e0       ?Is_bad_exception_allowed@@YAEPEBU_s_ESTypeList@@@Z 00000001800217e0 f   libvcruntime:frame.obj
 0001:000208a0       $$000000                   00000001800218a0     libvcruntime:notify.obj
 0001:0002099c       ?try_get_function@@YAPEAXW4function_id@?A0xbfd18cd1@@QEBDQEBW4module_id@2@2@Z 000000018002199c f   libvcruntime:winapi_downlevel.obj
 0001:00020d80       $$000000                   0000000180021d80     libvcruntime:handlers.obj
 0001:000244e8       ?atexit_exception_filter@@YAHK@Z 00000001800254e8 f   libucrt:exit.obj
 0001:000244f4       ?common_exit@@YAXHW4_crt_exit_cleanup_mode@@W4_crt_exit_return_mode@@@Z 00000001800254f4 f   libucrt:exit.obj
 0001:00024660       ?exit_or_terminate_process@@YAXI@Z 0000000180025660 f   libucrt:exit.obj
 0001:000246ac       ?try_cor_exit_process@@YAXI@Z 00000001800256ac f   libucrt:exit.obj
 0001:00024744       ??$parse_command_line@D@@YAXPEADPEAPEAD0PEA_K2@Z 0000000180025744 f   libucrt:argv_parsing.obj
 0001:00024adc       ??$common_initialize_environment_nolock@D@@YAHXZ 0000000180025adc f   libucrt:environment_initialization.obj
 0001:00024b48       ??$create_environment@D@@YAQEAPEADQEAD@Z 0000000180025b48 f   libucrt:environment_initialization.obj
 0001:00024c44       ??$free_environment@D@@YAXQEAPEAD@Z 0000000180025c44 f   libucrt:environment_initialization.obj
 0001:00024c44       ??$free_environment@_W@@YAXQEAPEA_W@Z 0000000180025c44 f   libucrt:environment_initialization.obj
 0001:00024c88       ??$uninitialize_environment_internal@D@@YAXAEAPEAPEAD@Z 0000000180025c88 f   libucrt:environment_initialization.obj
 0001:00024ca4       ??$uninitialize_environment_internal@_W@@YAXAEAPEAPEA_W@Z 0000000180025ca4 f   libucrt:environment_initialization.obj
 0001:00024edc       ??R<lambda_4e60a939b0d047cfe11ddc22648dfba9>@@QEBAHXZ 0000000180025edc f   libucrt:onexit.obj
 0001:0002518c       initialize_global_variables 000000018002618c f   libucrt:initialization.obj
 0001:000251a0       initialize_c               00000001800261a0 f   libucrt:initialization.obj
 0001:000251c4       uninitialize_environment   00000001800261c4 f   libucrt:initialization.obj
 0001:000251d4       initialize_pointers        00000001800261d4 f   libucrt:initialization.obj
 0001:00025228       uninitialize_vcruntime     0000000180026228 f   libucrt:initialization.obj
 0001:00025230       uninitialize_allocated_memory 0000000180026230 f   libucrt:initialization.obj
 0001:00025420       $$000000                   0000000180026420     libucrt:strncmp.obj
 0001:00025524       ?internal_isupper_l@@YA_NHQEAU__crt_locale_pointers@@@Z 0000000180026524 f   libucrt:tolower_toupper.obj
 0001:00025edc       ?construct_ptd_array@@YAXQEAU__acrt_ptd@@@Z 0000000180026edc f   libucrt:per_thread_data.obj
 0001:00025fac       ?destroy_fls@@YAXPEAX@Z    0000000180026fac f   libucrt:per_thread_data.obj
 0001:00025fcc       ?destroy_ptd_array@@YAXQEAU__acrt_ptd@@@Z 0000000180026fcc f   libucrt:per_thread_data.obj
 0001:000260c4       ?replace_current_thread_locale_nolock@@YAXQEAU__acrt_ptd@@QEAU__crt_locale_data@@@Z 00000001800270c4 f   libucrt:per_thread_data.obj
 0001:000263d4       ?fp_format_a@@YAHQEBNPEAD_KQEAD2H_NIQEAU__crt_locale_pointers@@@Z 00000001800273d4 f   libucrt:cvt.obj
 0001:00026734       ?fp_format_e@@YAHQEBNQEAD_K12H_NIQEAU__crt_locale_pointers@@@Z 0000000180027734 f   libucrt:cvt.obj
 0001:00026804       ?fp_format_e_internal@@YAHQEAD_KH_NIQEAU_strflt@@2QEAU__crt_locale_pointers@@@Z 0000000180027804 f   libucrt:cvt.obj
 0001:000269e0       ?fp_format_f_internal@@YAHQEAD_KHQEAU_strflt@@_NQEAU__crt_locale_pointers@@@Z 00000001800279e0 f   libucrt:cvt.obj
 0001:00026b28       ?fp_format_g@@YAHQEBNQEAD_K12H_NIQEAU__crt_locale_pointers@@@Z 0000000180027b28 f   libucrt:cvt.obj
 0001:00026c60       ?fp_format_nan_or_infinity@@YAHW4__acrt_fp_class@@_NPEAD_K1@Z 0000000180027c60 f   libucrt:cvt.obj
 0001:00027210       ?initialize_inherited_file_handles_nolock@@YAXXZ 0000000180028210 f   libucrt:ioinit.obj
 0001:000272fc       ?initialize_stdio_handles_nolock@@YAXXZ 00000001800282fc f   libucrt:ioinit.obj
 0001:000276dc       ?try_get_function@@YAPEAXW4function_id@?A0x63058377@@QEBDQEBW4module_id@2@2@Z 00000001800286dc f   libucrt:winapi_thunks.obj
 0001:00027d38       ?<helper_func_cdecl>@<lambda_2feae5270eb4d0d5532525f423405775>@@CAHPEBX0@Z 0000000180028d38 f   libucrt:argv_wildcards.obj
 0001:00027d4c       ??$common_expand_argv_wildcards@D@@YAHQEAPEADQEAPEAPEAD@Z 0000000180028d4c f   libucrt:argv_wildcards.obj
 0001:00027f58       ??$copy_and_add_argument_to_buffer@D@@YAHQEBD0_KAEAV?$argument_list@D@?A0xca0879c4@@@Z 0000000180028f58 f   libucrt:argv_wildcards.obj
 0001:00028068       ??$expand_argument_wildcards@D@@YAHQEAD0AEAV?$argument_list@D@?A0xca0879c4@@@Z 0000000180029068 f   libucrt:argv_wildcards.obj
 0001:0002831c       ??R<lambda_ad1ced32f4ac17aa236e5ef05d6b3b7c>@@QEBAXXZ 000000018002931c f   libucrt:mbctype.obj
 0001:00028534       ?getSystemCP@@YAHH@Z       0000000180029534 f   libucrt:mbctype.obj
 0001:000285b4       ?setSBCS@@YAXPEAU__crt_multibyte_data@@@Z 00000001800295b4 f   libucrt:mbctype.obj
 0001:00028644       ?setSBUpLow@@YAXPEAU__crt_multibyte_data@@@Z 0000000180029644 f   libucrt:mbctype.obj
 0001:00028828       ?setmbcp_internal@@YAHH_N@Z 0000000180029828 f   libucrt:mbctype.obj
 0001:00028d70       ?x_ismbbtype_l@@YAHPEAU__crt_locale_pointers@@IHH@Z 0000000180029d70 f   libucrt:ismbbyte.obj
 0001:00029534       ?__acrt_LCMapStringA_stat@@YAHPEAU__crt_locale_pointers@@PEB_WKPEBDHPEADHHH@Z 000000018002a534 f   libucrt:lcmapstringa.obj
 0001:0002b63c       memcpy_s                   000000018002c63c f   libucrt:cfout.obj
 0001:0002b848       common_flush_all           000000018002c848 f   libucrt:fflush.obj
 0001:0002bb44       ?free_crt_array_internal@@YAXQEAPEBX_K@Z 000000018002cb44 f   libucrt:inittime.obj
 0001:0002c174       ?GetTableIndexFromLocaleName@@YAHPEB_W@Z 000000018002d174 f   libucrt:lcidtoname_downlevel.obj
 0001:0002c270       ?shortsort@@YAXPEAD0_KP6AHPEBX2@Z@Z 000000018002d270 f   libucrt:qsort.obj
 0001:0002c888       ?initialize_multibyte@@YAHXZ 000000018002d888 f   libucrt:multibyte_initializer.obj
 0001:0002cb00       $$000000                   000000018002db00     libucrt:log10.obj
 0001:0002d0ac       ?write_double_translated_ansi_nolock@@YA?AUwrite_result@?A0x9c548279@@HQEBDI@Z 000000018002e0ac f   libucrt:write.obj
 0001:0002d2b4       ?write_text_ansi_nolock@@YA?AUwrite_result@?A0x9c548279@@HQEBDI@Z 000000018002e2b4 f   libucrt:write.obj
 0001:0002d3bc       ?write_text_utf16le_nolock@@YA?AUwrite_result@?A0x9c548279@@HQEBDI@Z 000000018002e3bc f   libucrt:write.obj
 0001:0002d4d8       ?write_text_utf8_nolock@@YA?AUwrite_result@?A0x9c548279@@HQEBDI@Z 000000018002e4d8 f   libucrt:write.obj
 0001:0002da1c       ??$common_lseek_nolock@_J@@YA_JH_JH@Z 000000018002ea1c f   libucrt:lseek.obj
 0001:0002de08       common_control87           000000018002ee08 f   libucrt:ieee.obj
 0001:0002e0a0       _call_matherr              000000018002f0a0 f   libucrt:libm_error.obj
 0001:0002e108       _exception_enabled         000000018002f108 f   libucrt:libm_error.obj
 0001:0002e3a0       _log_special_common        000000018002f3a0 f   libucrt:log_special.obj
 0001:0002e6b0       $$000000                   000000018002f6b0     libucrt:fpsr.obj
 0001:0002efb0       $$000000                   000000018002ffb0     LIBCMT:guard_dispatch.obj
 0001:0002efd0       ?dtor$0@?0??RegisterBackground@@YAHPEAURegisterBackgroundArg@@@Z@4HA 000000018002ffd0 f   ConEmuPlugin.obj
 0001:0002efed       ?catch$0@?0???$_Emplace_reallocate@AEBUWindowInfo@@@?$vector@UWindowInfo@@V?$MArrayAllocator@UWindowInfo@@@@@std@@QEAAPEAUWindowInfo@@QEAU2@AEBU2@@Z@4HA 000000018002ffed f   ConEmuPlugin2800.obj
 0001:0002effa       __catch$??$_Emplace_reallocate@AEBUWindowInfo@@@?$vector@UWindowInfo@@V?$MArrayAllocator@UWindowInfo@@@@@std@@QEAAPEAUWindowInfo@@QEAU2@AEBU2@@Z$0 000000018002fffa f   ConEmuPlugin2800.obj
 0001:0002f01e       ?dtor$0@?0??SetWindow@CPluginW2800@@UEAAXH@Z@4HA 000000018003001e f   ConEmuPlugin2800.obj
 0001:0002f02a       ?dtor$0@?0??UpdateConEmuTabsApi@CPluginW2800@@UEAA_NH@Z@4HA 000000018003002a f   ConEmuPlugin2800.obj
 0001:0002f04a       ?dtor$1@?0??UpdateConEmuTabsApi@CPluginW2800@@UEAA_NH@Z@4HA 000000018003004a f   ConEmuPlugin2800.obj
 0001:0002f056       ?catch$0@?0??insert@?$vector@UWindowInfo@@V?$MArrayAllocator@UWindowInfo@@@@@std@@QEAA?AV?$_Vector_iterator@V?$_Vector_val@U?$_Simple_types@UWindowInfo@@@std@@@std@@@2@V?$_Vector_const_iterator@V?$_Vector_val@U?$_Simple_types@UWindowInfo@@@std@@@std@@@2@_KAEBUWindowInfo@@@Z@4HA 0000000180030056 f   ConEmuPlugin2800.obj
 0001:0002f063       __catch$?insert@?$vector@UWindowInfo@@V?$MArrayAllocator@UWindowInfo@@@@@std@@QEAA?AV?$_Vector_iterator@V?$_Vector_val@U?$_Simple_types@UWindowInfo@@@std@@@std@@@2@V?$_Vector_const_iterator@V?$_Vector_val@U?$_Simple_types@UWindowInfo@@@std@@@std@@@2@_KAEBUWindowInfo@@@Z$0 0000000180030063 f   ConEmuPlugin2800.obj
 0001:0002f08c       ?dtor$0@?0???0CPluginW995@@QEAA@XZ@4HA 000000018003008c f   ConEmuPlugin995.obj
 0001:0002f08c       ?dtor$0@?0???0CPluginAnsi@@QEAA@XZ@4HA 000000018003008c f   ConEmuPluginA.obj
 0001:0002f098       ?dtor$0@?0??LoadThSet@CPluginBackground@@IEAAHH@Z@4HA 0000000180030098 f   PluginBackground.obj
 0001:0002f098       ?dtor$0@?0??CheckConEmuDetached@CPluginBase@@SAXXZ@4HA 0000000180030098 f   ConEmuPluginBase.obj
 0001:0002f0a4       ?dtor$0@?0??SendTabs@CPluginBase@@SAXH_N@Z@4HA 00000001800300a4 f   ConEmuPluginBase.obj
 0001:0002f0a4       ?dtor$0@?0??CreateTabs@CPluginBase@@SA_NH@Z@4HA 00000001800300a4 f   ConEmuPluginBase.obj
 0001:0002f0a4       ?dtor$0@?0??IsCurrentTabModal@CPluginBase@@QEAA_NXZ@4HA 00000001800300a4 f   ConEmuPluginBase.obj
 0001:0002f0b0       ?dtor$0@?0??ShowProtocolWarning@CPluginBase@@KAXXZ@4HA 00000001800300b0 f   ConEmuPluginBase.obj
 0001:0002f0b0       ?dtor$0@?0??DllCheckUnique@CPluginBase@@KA_N_N@Z@4HA 00000001800300b0 f   ConEmuPluginBase.obj
 0001:0002f0b0       ?dtor$1@?0??RunExternalProgram@CPluginBase@@QEAA_NPEA_W@Z@4HA 00000001800300b0 f   ConEmuPluginBase.obj
 0001:0002f0bc       ?dtor$1@?0??DllCheckUnique@CPluginBase@@KA_N_N@Z@4HA 00000001800300bc f   ConEmuPluginBase.obj
 0001:0002f0c8       ?dtor$0@?0??DllMain_ProcessAttach@CPluginBase@@KAXPEAUHINSTANCE__@@@Z@4HA 00000001800300c8 f   ConEmuPluginBase.obj
 0001:0002f0c8       ?dtor$1@?0??DllMain_ProcessAttach@CPluginBase@@KAXPEAUHINSTANCE__@@@Z@4HA 00000001800300c8 f   ConEmuPluginBase.obj
 0001:0002f0e5       ?dtor$0@?0??ProcessCommand@CPluginBase@@QEAA_NKHPEAXPEAPEAUCESERVER_REQ@@_N@Z@4HA 00000001800300e5 f   ConEmuPluginBase.obj
 0001:0002f0e5       ?dtor$0@?0??MonitorThreadProcW@CPluginBase@@SAKPEAX@Z@4HA 00000001800300e5 f   ConEmuPluginBase.obj
 0001:0002f0f1       ?dtor$0@?0??Plugin@@YAPEAVCPluginBase@@XZ@4HA 00000001800300f1 f   ConEmuPluginBase.obj
 0001:0002f10e       ?dtor$1@?0??Plugin@@YAPEAVCPluginBase@@XZ@4HA 000000018003010e f   ConEmuPluginBase.obj
 0001:0002f10e       ?dtor$2@?0??Plugin@@YAPEAVCPluginBase@@XZ@4HA 000000018003010e f   ConEmuPluginBase.obj
 0001:0002f10e       ?dtor$3@?0??Plugin@@YAPEAVCPluginBase@@XZ@4HA 000000018003010e f   ConEmuPluginBase.obj
 0001:0002f12b       ?dtor$0@?0??RunExternalProgram@CPluginBase@@QEAA_NPEA_W@Z@4HA 000000018003012b f   ConEmuPluginBase.obj
 0001:0002f137       ?dtor$2@?0??RunExternalProgram@CPluginBase@@QEAA_NPEA_W@Z@4HA 0000000180030137 f   ConEmuPluginBase.obj
 0001:0002f143       ?dtor$0@?0??RunExternalProgramW@CPluginBase@@SA_NPEA_W0_N@Z@4HA 0000000180030143 f   ConEmuPluginBase.obj
 0001:0002f14f       ?dtor$1@?0??RunExternalProgramW@CPluginBase@@SA_NPEA_W0_N@Z@4HA 000000018003014f f   ConEmuPluginBase.obj
 0001:0002f15b       ?dtor$0@?0??UpdateConEmuTabs@CPluginBase@@QEAA_N_N@Z@4HA 000000018003015b f   ConEmuPluginBase.obj
 0001:0002f167       ?dtor$0@?0??cmd_OpenEditorLine@CPluginBase@@QEAA_NPEAUCESERVER_REQ_FAREDITOR@@@Z@4HA 0000000180030167 f   ConEmuPluginBase.obj
 0001:0002f173       ?dtor$0@?0???0CPluginBackground@@QEAA@XZ@4HA 0000000180030173 f   PluginBackground.obj
 0001:0002f190       ?dtor$0@?0??RegisterSubplugin@CPluginBackground@@QEAAHPEAURegisterBackgroundArg@@@Z@4HA 0000000180030190 f   PluginBackground.obj
 0001:0002f19c       ?dtor$0@?0??UpdateBackground@CPluginBackground@@IEAAXXZ@4HA 000000018003019c f   PluginBackground.obj
 0001:0002f1a8       ?dtor$0@?0??PlugServerCommand@@YAHPEAXPEAUCESERVER_REQ@@AEAPEAU1@AEAK3_J@Z@4HA 00000001800301a8 f   PluginSrv.obj
 0001:0002f1b4       ?dtor$1@?0??PlugServerCommand@@YAHPEAXPEAUCESERVER_REQ@@AEAPEAU1@AEAK3_J@Z@4HA 00000001800301b4 f   PluginSrv.obj
 0001:0002f1c0       ?dtor$0@?0??FindConEmuBaseDir@@YAHAEAY0BAF@_W0PEAUHINSTANCE__@@@Z@4HA 00000001800301c0 f   common-user64:ConEmuCheckEx.obj
 0001:0002f1c0       ?dtor$1@?0??FindConEmuBaseDir@@YAHAEAY0BAF@_W0PEAUHINSTANCE__@@@Z@4HA 00000001800301c0 f   common-user64:ConEmuCheckEx.obj
 0001:0002f1cc       ?dtor$0@?0??SearchAppPaths@@YA_NPEB_WAEAUCEStr@@_NPEAVCEnvRestorer@@@Z@4HA 00000001800301cc f   common-user64:WFiles.obj
 0001:0002f1d8       ?fin$0@?0??dllmain_crt_process_attach@@YAHQEAUHINSTANCE__@@QEAX@Z@4HA 00000001800301d8 f   LIBCMT:dll_dllmain.obj
 0001:0002f1ef       ?fin$0@?0??dllmain_crt_process_detach@@YAH_N@Z@4HA 00000001800301ef f   LIBCMT:dll_dllmain.obj
 0001:0002f20b       ?filt$0@?0??dllmain_dispatch@@YAHQEAUHINSTANCE__@@KQEAX@Z@4HA 000000018003020b f   LIBCMT:dll_dllmain.obj
 0001:0002f241       __scrt_is_nonwritable_in_current_image$filt$0 0000000180030241 f   LIBCMT:utility.obj
 0001:0002f259       ?filt$0@?0???$_CallSETranslator@V__FrameHandler3@@@@YAHPEAUEHExceptionRecord@@PEA_KPEAU_CONTEXT@@PEAU_xDISPATCHER_CONTEXT@@PEBU_s_FuncInfo@@K1@Z@4HA 0000000180030259 f   libvcruntime:risctrnsctrl.obj
 0001:0002f2ea       __DestructExceptionObject$filt$0 00000001800302ea f   libvcruntime:ehhelpers.obj
 0001:0002f302       ?filt$0@?0??CxxCallCatchBlock@__FrameHandler3@@SAPEAXPEAU_EXCEPTION_RECORD@@@Z@4HA 0000000180030302 f   libvcruntime:frame.obj
 0001:0002f327       ?fin$1@?0??CxxCallCatchBlock@__FrameHandler3@@SAPEAXPEAU_EXCEPTION_RECORD@@@Z@4HA 0000000180030327 f   libvcruntime:frame.obj
 0001:0002f39f       ?filt$0@?0??FrameUnwindToState@__FrameHandler3@@SAXPEA_KPEAU_xDISPATCHER_CONTEXT@@PEBU_s_FuncInfo@@H@Z@4HA 000000018003039f f   libvcruntime:frame.obj
 0001:0002f3b5       ?fin$1@?0??FrameUnwindToState@__FrameHandler3@@SAXPEA_KPEAU_xDISPATCHER_CONTEXT@@PEBU_s_FuncInfo@@H@Z@4HA 00000001800303b5 f   libvcruntime:frame.obj
 0001:0002f3d8       ?filt$0@?0??common_exit@@YAXHW4_crt_exit_cleanup_mode@@W4_crt_exit_return_mode@@@Z@4HA 00000001800303d8 f   libucrt:exit.obj
 0001:0002f3f3       ?fin$1@?0??common_exit@@YAXHW4_crt_exit_cleanup_mode@@W4_crt_exit_return_mode@@@Z@4HA 00000001800303f3 f   libucrt:exit.obj
 0001:0002f40c       ?fin$0@?0???$?RV<lambda_fb3a7dec4e47f37f22dae91bb15c9095>@@AEAV<lambda_698284760c8add0bfb0756c19673e34b>@@V<lambda_dfb8eca1e75fef3034a8fb18dd509707>@@@?$__crt_seh_guarded_call@X@@QEAAX$$QEAV<lambda_fb3a7dec4e47f37f22dae91bb15c9095>@@AEAV<lambda_698284760c8add0bfb0756c19673e34b>@@$$QEAV<lambda_dfb8eca1e75fef3034a8fb18dd509707>@@@Z@4HA 000000018003040c f   libucrt:per_thread_data.obj
 0001:0002f40c       ?fin$0@?0???$?RV<lambda_5e887d1dcbef67a5eb4283622ba103bf>@@AEAV<lambda_4466841279450cc726390878d4a41900>@@V<lambda_341c25c0346d94847f1f3c463c57e077>@@@?$__crt_seh_guarded_call@X@@QEAAX$$QEAV<lambda_5e887d1dcbef67a5eb4283622ba103bf>@@AEAV<lambda_4466841279450cc726390878d4a41900>@@$$QEAV<lambda_341c25c0346d94847f1f3c463c57e077>@@@Z@4HA 000000018003040c f   libucrt:per_thread_data.obj
 0001:0002f40c       ?fin$0@?0???$?RV<lambda_72d1df2b273a38828b1ce30cbf4cdab5>@@AEAV<lambda_876a65b173b8412d3a47c70a915b0cf4>@@V<lambda_41932305e351933ebe8f8be3ed8bb5dc>@@@?$__crt_seh_guarded_call@X@@QEAAX$$QEAV<lambda_72d1df2b273a38828b1ce30cbf4cdab5>@@AEAV<lambda_876a65b173b8412d3a47c70a915b0cf4>@@$$QEAV<lambda_41932305e351933ebe8f8be3ed8bb5dc>@@@Z@4HA 000000018003040c f   libucrt:per_thread_data.obj
 0001:0002f40c       ?fin$0@?0???$?RV<lambda_99476a1ad63dd22509b5d3e65b0ffc95>@@AEAV<lambda_ad1ced32f4ac17aa236e5ef05d6b3b7c>@@V<lambda_f7424dd8d45958661754dc4f2697e9c3>@@@?$__crt_seh_guarded_call@X@@QEAAX$$QEAV<lambda_99476a1ad63dd22509b5d3e65b0ffc95>@@AEAV<lambda_ad1ced32f4ac17aa236e5ef05d6b3b7c>@@$$QEAV<lambda_f7424dd8d45958661754dc4f2697e9c3>@@@Z@4HA 000000018003040c f   libucrt:mbctype.obj
 0001:0002f40c       ?fin$0@?0???$?RV<lambda_b8c45f8f788dd370798f47cfe8ac3a86>@@AEAV<lambda_4e60a939b0d047cfe11ddc22648dfba9>@@V<lambda_332c3edc96d0294ec56c57d38c1cdfd5>@@@?$__crt_seh_guarded_call@H@@QEAAH$$QEAV<lambda_b8c45f8f788dd370798f47cfe8ac3a86>@@AEAV<lambda_4e60a939b0d047cfe11ddc22648dfba9>@@$$QEAV<lambda_332c3edc96d0294ec56c57d38c1cdfd5>@@@Z@4HA 000000018003040c f   libucrt:onexit.obj
 0001:0002f40c       ?fin$0@?0???$?RV<lambda_46352004c1216016012b18bd6f87e700>@@AEAV<lambda_3bd07e1a1191394380780325891bf33f>@@V<lambda_334532d3f185bcaa59b5be82d7d22bff>@@@?$__crt_seh_guarded_call@X@@QEAAX$$QEAV<lambda_46352004c1216016012b18bd6f87e700>@@AEAV<lambda_3bd07e1a1191394380780325891bf33f>@@$$QEAV<lambda_334532d3f185bcaa59b5be82d7d22bff>@@@Z@4HA 000000018003040c f   libucrt:per_thread_data.obj
 0001:0002f40c       ?fin$0@?0???$?RV<lambda_c36588078e9f5dfd39652860aa6b3aaf>@@AEAV<lambda_ec61778202f4f5fc7e7711acc23c3bca>@@V<lambda_dc9d2797ccde5d239b4a0efae8ebd7db>@@@?$__crt_seh_guarded_call@P6AXH@Z@@QEAAP6AXH@Z$$QEAV<lambda_c36588078e9f5dfd39652860aa6b3aaf>@@AEAV<lambda_ec61778202f4f5fc7e7711acc23c3bca>@@$$QEAV<lambda_dc9d2797ccde5d239b4a0efae8ebd7db>@@@Z@4HA 000000018003040c f   libucrt:signal.obj
 0001:0002f426       ?fin$0@?0???$?RV<lambda_e24bbb7b643b32fcea6fa61b31d4c984>@@AEAV<lambda_275893d493268fdec8709772e3fcec0e>@@V<lambda_9d71df4d7cf3f480f8d633942495c3b0>@@@?$__crt_seh_guarded_call@H@@QEAAH$$QEAV<lambda_e24bbb7b643b32fcea6fa61b31d4c984>@@AEAV<lambda_275893d493268fdec8709772e3fcec0e>@@$$QEAV<lambda_9d71df4d7cf3f480f8d633942495c3b0>@@@Z@4HA 0000000180030426 f   libucrt:onexit.obj
 0001:0002f443       __acrt_uninitialize_locale$fin$0 0000000180030443 f   libucrt:wsetlocale.obj
 0001:0002f443       __acrt_update_thread_locale_data$fin$0 0000000180030443 f   libucrt:locale_refcounting.obj
 0001:0002f45c       __acrt_initialize_lowio$fin$0 000000018003045c f   libucrt:ioinit.obj
 0001:0002f45c       __acrt_lowio_ensure_fh_exists$fin$0 000000018003045c f   libucrt:osfinfo.obj
 0001:0002f475       __acrt_update_thread_multibyte_data$fin$0 0000000180030475 f   libucrt:mbctype.obj
 0001:0002f48e       _query_new_handler$fin$0   000000018003048e f   libucrt:new_handler.obj
 0001:0002f4a4       raise$fin$0                00000001800304a4 f   libucrt:signal.obj
 0001:0002f4c8       _fcloseall$fin$0           00000001800304c8 f   libucrt:closeall.obj
 0001:0002f4e1       common_flush_all$fin$0     00000001800304e1 f   libucrt:fflush.obj
 0001:0002f4fb       common_flush_all$fin$1     00000001800304fb f   libucrt:fflush.obj
 0001:0002f514       _write$fin$0               0000000180030514 f   libucrt:write.obj
 0001:0002f52b       fclose$fin$0               000000018003052b f   libucrt:fclose.obj
 0001:0002f543       ?fin$0@?0???$?RV<lambda_bfedae4ebbf01fab1bb6dcc6a9e276e0>@@AEAV<lambda_2fe9b910cf3cbf4a0ab98a02ba45b3ec>@@V<lambda_237c231691f317818eb88cc1d5d642d6>@@@?$__crt_seh_guarded_call@H@@QEAAH$$QEAV<lambda_bfedae4ebbf01fab1bb6dcc6a9e276e0>@@AEAV<lambda_2fe9b910cf3cbf4a0ab98a02ba45b3ec>@@$$QEAV<lambda_237c231691f317818eb88cc1d5d642d6>@@@Z@4HA 0000000180030543 f   libucrt:close.obj
 0001:0002f543       ?fin$0@?0???$?RV<lambda_b521505b218e5242e90febf6bfebc422>@@AEAV<lambda_6978c1fb23f02e42e1d9e99668cc68aa>@@V<lambda_314360699dd331753a4119843814e9a7>@@@?$__crt_seh_guarded_call@H@@QEAAH$$QEAV<lambda_b521505b218e5242e90febf6bfebc422>@@AEAV<lambda_6978c1fb23f02e42e1d9e99668cc68aa>@@$$QEAV<lambda_314360699dd331753a4119843814e9a7>@@@Z@4HA 0000000180030543 f   libucrt:commit.obj
 0001:0002f55d       common_control87$filt$0    000000018003055d f   libucrt:ieee.obj
 0001:0002f55d       _ctrlfp$filt$0             000000018003055d f   libucrt:fpctrl.obj
 0001:0002f590       _IsNonwritableInCurrentImage$filt$0 0000000180030590 f   LIBCMT:pesect.obj
 0001:0002f5b0       ??__FgsMapHelper@@YAXXZ    00000001800305b0 f   common-user64:WConsoleEx.obj
 0002:00000688       ?gsMapHelper$initializer$@@3P6AXXZEA 0000000180031688     common-user64:WConsoleEx.obj
 0002:000006a0       ?__scrt_initialize_tss_var@@3P6AHXZEA 00000001800316a0     LIBCMT:thread_safe_statics.obj
 0002:00000ae0       $cppxdata$?RegisterBackground@@YAHPEAURegisterBackgroundArg@@@Z 0000000180031ae0     ConEmuPlugin.obj
 0002:000011e0       $cppxdata$?SetWindow@CPluginW2800@@UEAAXH@Z 00000001800321e0     ConEmuPlugin2800.obj
 0002:00001208       $cppxdata$?UpdateConEmuTabsApi@CPluginW2800@@UEAA_NH@Z 0000000180032208     ConEmuPlugin2800.obj
 0002:00001230       $cppxdata$?insert@?$vector@UWindowInfo@@V?$MArrayAllocator@UWindowInfo@@@@@std@@QEAA?AV?$_Vector_iterator@V?$_Vector_val@U?$_Simple_types@UWindowInfo@@@std@@@std@@@2@V?$_Vector_const_iterator@V?$_Vector_val@U?$_Simple_types@UWindowInfo@@@std@@@std@@@2@_KAEBUWindowInfo@@@Z 0000000180032230     ConEmuPlugin2800.obj
 0002:00001258       $cppxdata$??1?$MArray@UWindowInfo@@@@QEAA@XZ 0000000180032258     ConEmuPlugin2800.obj
 0002:00001280       $cppxdata$??$_Emplace_reallocate@AEBUWindowInfo@@@?$vector@UWindowInfo@@V?$MArrayAllocator@UWindowInfo@@@@@std@@QEAAPEAUWindowInfo@@QEAU2@AEBU2@@Z 0000000180032280     ConEmuPlugin2800.obj
 0002:00001810       $cppxdata$??0CPluginW995@@QEAA@XZ 0000000180032810     ConEmuPlugin995.obj
 0002:00001a10       $cppxdata$??0CPluginAnsi@@QEAA@XZ 0000000180032a10     ConEmuPluginA.obj
 0002:00001c10       $cppxdata$?DllMain_ProcessAttach@CPluginBase@@KAXPEAUHINSTANCE__@@@Z 0000000180032c10     ConEmuPluginBase.obj
 0002:00001c38       $cppxdata$?DllCheckUnique@CPluginBase@@KA_N_N@Z 0000000180032c38     ConEmuPluginBase.obj
 0002:00001c60       $cppxdata$?ShowProtocolWarning@CPluginBase@@KAXXZ 0000000180032c60     ConEmuPluginBase.obj
 0002:00001c88       $cppxdata$?RunExternalProgram@CPluginBase@@QEAA_NPEA_W@Z 0000000180032c88     ConEmuPluginBase.obj
 0002:00001cb0       $cppxdata$?UpdateConEmuTabs@CPluginBase@@QEAA_N_N@Z 0000000180032cb0     ConEmuPluginBase.obj
 0002:00001cd8       $cppxdata$?ProcessCommand@CPluginBase@@QEAA_NKHPEAXPEAPEAUCESERVER_REQ@@_N@Z 0000000180032cd8     ConEmuPluginBase.obj
 0002:00001d00       $cppxdata$?IsCurrentTabModal@CPluginBase@@QEAA_NXZ 0000000180032d00     ConEmuPluginBase.obj
 0002:00001d28       $cppxdata$?cmd_OpenEditorLine@CPluginBase@@QEAA_NPEAUCESERVER_REQ_FAREDITOR@@@Z 0000000180032d28     ConEmuPluginBase.obj
 0002:00001d50       $cppxdata$?MonitorThreadProcW@CPluginBase@@SAKPEAX@Z 0000000180032d50     ConEmuPluginBase.obj
 0002:00001d78       $cppxdata$?CheckConEmuDetached@CPluginBase@@SAXXZ 0000000180032d78     ConEmuPluginBase.obj
 0002:00001da0       $cppxdata$?RunExternalProgramW@CPluginBase@@SA_NPEA_W0_N@Z 0000000180032da0     ConEmuPluginBase.obj
 0002:00001dc8       $cppxdata$?CreateTabs@CPluginBase@@SA_NH@Z 0000000180032dc8     ConEmuPluginBase.obj
 0002:00001df0       $cppxdata$?SendTabs@CPluginBase@@SAXH_N@Z 0000000180032df0     ConEmuPluginBase.obj
 0002:00001e18       $cppxdata$?Plugin@@YAPEAVCPluginBase@@XZ 0000000180032e18     ConEmuPluginBase.obj
 0002:00001e40       $cppxdata$??1MWow64Disable@@QEAA@XZ 0000000180032e40     ConEmuPluginBase.obj
 0002:00003c20       $cppxdata$?LoadThSet@CPluginBackground@@IEAAHH@Z 0000000180034c20     PluginBackground.obj
 0002:00003c48       $cppxdata$?UpdateBackground@CPluginBackground@@IEAAXXZ 0000000180034c48     PluginBackground.obj
 0002:00003c70       $cppxdata$??0CPluginBackground@@QEAA@XZ 0000000180034c70     PluginBackground.obj
 0002:00003c98       $cppxdata$??1CPluginBackground@@QEAA@XZ 0000000180034c98     PluginBackground.obj
 0002:00003cc0       $cppxdata$?RegisterSubplugin@CPluginBackground@@QEAAHPEAURegisterBackgroundArg@@@Z 0000000180034cc0     PluginBackground.obj
 0002:00003d88       $cppxdata$?PlugServerCommand@@YAHPEAXPEAUCESERVER_REQ@@AEAPEAU1@AEAK3_J@Z 0000000180034d88     PluginSrv.obj
 0002:00004b90       $cppxdata$?FindConEmuBaseDir@@YAHAEAY0BAF@_W0PEAUHINSTANCE__@@@Z 0000000180035b90     common-user64:ConEmuCheckEx.obj
 0002:00004d78       $cppxdata$?SearchAppPaths@@YA_NPEB_WAEAUCEStr@@_NPEAVCEnvRestorer@@@Z 0000000180035d78     common-user64:WFiles.obj
 0002:00004fd8       $cppxdata$?__scrt_initialize_thread_safe_statics@@YAHXZ 0000000180035fd8     LIBCMT:thread_safe_statics.obj
 0002:000050b0       GS_ExceptionPointers       00000001800360b0     LIBCMT:gs_report.obj
 0002:000050c0       ?ExceptionTemplate@?1??UnwindNestedFrames@__FrameHandler3@@SAXPEA_KPEAUEHExceptionRecord@@PEAU_CONTEXT@@0PEAXPEBU_s_FuncInfo@@HHPEBU_s_HandlerType@@PEAU_xDISPATCHER_CONTEXT@@E@Z@4U_EXCEPTION_RECORD@@B 00000001800360c0     libvcruntime:risctrnsctrl.obj
 0002:00005160       ?ExceptionTemplate@?1??_CxxThrowException@@9@4UEHExceptionRecord@@B 0000000180036160     libvcruntime:throw.obj
 0002:000051c8       ?module_names@?A0xbfd18cd1@@3QBQEB_WB 00000001800361c8     libvcruntime:winapi_downlevel.obj
 0002:00005298       ?candidate_modules@?1??try_get_FlsAlloc@@YAP6AKP6AXPEAX@Z@ZXZ@4QBW4module_id@?A0xbfd18cd1@@B 0000000180036298     libvcruntime:winapi_downlevel.obj
 0002:000052b0       ?candidate_modules@?1??try_get_FlsFree@@YAP6AHK@ZXZ@4QBW4module_id@?A0xbfd18cd1@@B 00000001800362b0     libvcruntime:winapi_downlevel.obj
 0002:000052c0       ?candidate_modules@?1??try_get_FlsGetValue@@YAP6APEAXK@ZXZ@4QBW4module_id@?A0xbfd18cd1@@B 00000001800362c0     libvcruntime:winapi_downlevel.obj
 0002:000052d8       ?candidate_modules@?1??try_get_FlsSetValue@@YAP6AHKPEAX@ZXZ@4QBW4module_id@?A0xbfd18cd1@@B 00000001800362d8     libvcruntime:winapi_downlevel.obj
 0002:000052f0       ?candidate_modules@?1??try_get_InitializeCriticalSectionEx@@YAP6AHPEAU_RTL_CRITICAL_SECTION@@KK@ZXZ@4QBW4module_id@?A0xbfd18cd1@@B 00000001800362f0     libvcruntime:winapi_downlevel.obj
 0002:00005320       ?tokenTable@@3QBQEBDB      0000000180036320     libvcruntime:undname.obj
 0002:000053a0       ?nameTable@@3QBQEBDB       00000001800363a0     libvcruntime:undname.obj
 0002:00005630       ?rttiTable@@3QBQEBDB       0000000180036630     libvcruntime:undname.obj
 0002:00005d70       errtable                   0000000180036d70     libucrt:errno.obj
 0002:00005fe0       __acrt_initializers        0000000180036fe0     libucrt:initialization.obj
 0002:00006fc0       module_names               0000000180037fc0     libucrt:winapi_thunks.obj
 0002:000075a0       ?candidate_modules@?1??try_get_FlsAlloc@@YAP6AKP6AXPEAX@Z@ZXZ@4QBW4module_id@?A0x63058377@@B 00000001800385a0     libucrt:winapi_thunks.obj
 0002:000075b8       ?candidate_modules@?1??try_get_FlsFree@@YAP6AHK@ZXZ@4QBW4module_id@?A0x63058377@@B 00000001800385b8     libucrt:winapi_thunks.obj
 0002:000075c8       ?candidate_modules@?1??try_get_FlsGetValue@@YAP6APEAXK@ZXZ@4QBW4module_id@?A0x63058377@@B 00000001800385c8     libucrt:winapi_thunks.obj
 0002:000075e0       ?candidate_modules@?1??try_get_FlsSetValue@@YAP6AHKPEAX@ZXZ@4QBW4module_id@?A0x63058377@@B 00000001800385e0     libucrt:winapi_thunks.obj
 0002:000075f8       ?candidate_modules@?1??try_get_GetCurrentPackageId@@YAP6AJPEAIPEAE@ZXZ@4QBW4module_id@?A0x63058377@@B 00000001800385f8     libucrt:winapi_thunks.obj
 0002:00007618       ?candidate_modules@?1??try_get_InitializeCriticalSectionEx@@YAP6AHPEAU_RTL_CRITICAL_SECTION@@KK@ZXZ@4QBW4module_id@?A0x63058377@@B 0000000180038618     libucrt:winapi_thunks.obj
 0002:00007640       ?candidate_modules@?1??try_get_LCMapStringEx@@YAP6AHPEB_WK0HPEA_WHPEAU_nlsversioninfo@@PEAX_J@ZXZ@4QBW4module_id@?A0x63058377@@B 0000000180038640     libucrt:winapi_thunks.obj
 0002:00007658       ?candidate_modules@?1??try_get_LocaleNameToLCID@@YAP6AKPEB_WK@ZXZ@4QBW4module_id@?A0x63058377@@B 0000000180038658     libucrt:winapi_thunks.obj
 0002:00007678       _mb_locale_names           0000000180038678     libucrt:mbctype.obj
 0002:000080e0       LcidToLocaleNameTable      00000001800390e0     libucrt:lcidtoname_downlevel.obj
 0002:00009b40       LocaleNameToIndexTable     000000018003ab40     libucrt:lcidtoname_downlevel.obj
 0002:0000b3e0       __real_ninf                000000018003c3e0     libucrt:log10.obj
 0002:0000b3f0       __real_inf                 000000018003c3f0     libucrt:log10.obj
 0002:0000b400       __real_neg_qnan            000000018003c400     libucrt:log10.obj
 0002:0000b410       __real_qnanbit             000000018003c410     libucrt:log10.obj
 0002:0000b420       __int_1023                 000000018003c420     libucrt:log10.obj
 0002:0000b430       __mask_001                 000000018003c430     libucrt:log10.obj
 0002:0000b440       __mask_mant                000000018003c440     libucrt:log10.obj
 0002:0000b450       __mask_mant_top8           000000018003c450     libucrt:log10.obj
 0002:0000b460       __mask_mant9               000000018003c460     libucrt:log10.obj
 0002:0000b470       __real_log10_e             000000018003c470     libucrt:log10.obj
 0002:0000b480       __real_log10_e_lead        000000018003c480     libucrt:log10.obj
 0002:0000b490       __real_log10_e_tail        000000018003c490     libucrt:log10.obj
 0002:0000b4a0       __real_log10_2_lead        000000018003c4a0     libucrt:log10.obj
 0002:0000b4b0       __real_log10_2_tail        000000018003c4b0     libucrt:log10.obj
 0002:0000b4c0       __real_two                 000000018003c4c0     libucrt:log10.obj
 0002:0000b4d0       __real_one                 000000018003c4d0     libucrt:log10.obj
 0002:0000b4e0       __real_half                000000018003c4e0     libucrt:log10.obj
 0002:0000b4f0       __mask_100                 000000018003c4f0     libucrt:log10.obj
 0002:0000b500       __real_1_over_512          000000018003c500     libucrt:log10.obj
 0002:0000b510       __real_1_over_2            000000018003c510     libucrt:log10.obj
 0002:0000b520       __real_1_over_3            000000018003c520     libucrt:log10.obj
 0002:0000b530       __real_1_over_4            000000018003c530     libucrt:log10.obj
 0002:0000b540       __real_1_over_5            000000018003c540     libucrt:log10.obj
 0002:0000b550       __real_1_over_6            000000018003c550     libucrt:log10.obj
 0002:0000b560       __real_neg_1023            000000018003c560     libucrt:log10.obj
 0002:0000b570       __mask_2045                000000018003c570     libucrt:log10.obj
 0002:0000b580       __real_threshold           000000018003c580     libucrt:log10.obj
 0002:0000b590       __real_near_one_lt         000000018003c590     libucrt:log10.obj
 0002:0000b5a0       __real_near_one_gt         000000018003c5a0     libucrt:log10.obj
 0002:0000b5b0       __real_min_norm            000000018003c5b0     libucrt:log10.obj
 0002:0000b5c0       __real_notsign             000000018003c5c0     libucrt:log10.obj
 0002:0000b5d0       __real_ca1                 000000018003c5d0     libucrt:log10.obj
 0002:0000b5e0       __real_ca2                 000000018003c5e0     libucrt:log10.obj
 0002:0000b5f0       __real_ca3                 000000018003c5f0     libucrt:log10.obj
 0002:0000b600       __real_ca4                 000000018003c600     libucrt:log10.obj
 0002:0000b610       __mask_lower               000000018003c610     libucrt:log10.obj
 0002:0000b620       __flag_x_zero              000000018003c620     libucrt:log10.obj
 0002:0000b624       __flag_x_neg               000000018003c624     libucrt:log10.obj
 0002:0000b628       __flag_x_nan               000000018003c628     libucrt:log10.obj
 0002:0000ce70       __real@433fffffffffffff    000000018003de70     libucrt:fpsr.obj
 0002:0000ce78       __real@c33fffffffffffff    000000018003de78     libucrt:fpsr.obj
 0002:0000dba0       $unwind$??$type_case_integer_parse_into_buffer@_K@?$output_processor@_WV?$string_output_adapter@_W@__crt_stdio_output@@V?$standard_base@_WV?$string_output_adapter@_W@__crt_stdio_output@@@2@@__crt_stdio_output@@AEAAX_KI_N@Z 000000018003eba0     libucrt:output.obj
 0002:0000dba0       $unwind$?StringCchCopyNW@@YAJPEA_W_KPEB_W1@Z 000000018003eba0     common-kernel64:CEStr.obj
 0002:0000dba0       $unwind$?Color2FgIndex@Far3Color@@SAXKAEAGPEBK@Z 000000018003eba0     ConEmuPlugin1900.obj
 0002:0000dba0       $unwind$?StringCchCopyW@@YAJPEA_W_KPEB_W@Z 000000018003eba0     ConEmuInjects.obj
 0002:0000dba0       $unwind$??$write_multiple_characters@V?$string_output_adapter@D@__crt_stdio_output@@D@__crt_stdio_output@@YAXAEBV?$string_output_adapter@D@0@DHQEAH@Z 000000018003eba0     libucrt:output.obj
 0002:0000dba0       $unwind$??$type_case_integer_parse_into_buffer@_K@?$output_processor@DV?$string_output_adapter@D@__crt_stdio_output@@V?$standard_base@DV?$string_output_adapter@D@__crt_stdio_output@@@2@@__crt_stdio_output@@AEAAX_KI_N@Z 000000018003eba0     libucrt:output.obj
 0002:0000dba0       $unwind$?StringCchCatW@@YAJPEA_W_KPEB_W@Z 000000018003eba0     ConEmuPluginBase.obj
 0002:0000dba0       $unwind$??$type_case_integer_parse_into_buffer@I@?$output_processor@_WV?$string_output_adapter@_W@__crt_stdio_output@@V?$standard_base@_WV?$string_output_adapter@_W@__crt_stdio_output@@@2@@__crt_stdio_output@@AEAAXII_N@Z 000000018003eba0     libucrt:output.obj
 0002:0000dba0       $unwind$??$type_case_integer_parse_into_buffer@I@?$output_processor@DV?$string_output_adapter@D@__crt_stdio_output@@V?$standard_base@DV?$string_output_adapter@D@__crt_stdio_output@@@2@@__crt_stdio_output@@AEAAXII_N@Z 000000018003eba0     libucrt:output.obj
 0002:0000dba8       $unwind$??$create_environment@D@@YAQEAPEADQEAD@Z 000000018003eba8     libucrt:environment_initialization.obj
 0002:0000dba8       $unwind$?IsConEmuExeExist@@YAHPEB_WAEAY0BAF@_W@Z 000000018003eba8     common-user64:ConEmuCheckEx.obj
 0002:0000dba8       $unwind$?WaitOverlapped@?$PipeServer@UCESERVER_REQ@@@@IEAAHPEAUPipeInst@1@PEAK@Z 000000018003eba8     PluginSrv.obj
 0002:0000dba8       $unwind$?StringCchVPrintfW@@YAJPEA_W_KPEB_WPEAD@Z 000000018003eba8     ConEmuInjects.obj
 0002:0000dbc0       $unwind$?StartupHooks@@YA_NPEAUHINSTANCE__@@@Z 000000018003ebc0     ConEmuInjects.obj
 0002:0000dbdc       $unwind$ExitFARW           000000018003ebdc     ConEmuPlugin.obj
 0002:0000dbdc       $unwind$?_Doraise@bad_alloc@stdext@@MEBAXXZ 000000018003ebdc     common-kernel64:CEStr.obj
 0002:0000dbdc       $unwind$_invalid_parameter_noinfo 000000018003ebdc     libucrt:invalid_parameter.obj
 0002:0000dbdc       $unwind$?ExitFARW3@@YAXPEAX@Z 000000018003ebdc     ConEmuPlugin.obj
 0002:0000dbdc       $unwind$?ExitFAR@@YAXXZ    000000018003ebdc     ConEmuPlugin.obj
 0002:0000dbdc       $unwind$?StartupConsoleHooks@@YAXXZ 000000018003ebdc     ConEmuInjects.obj
 0002:0000dbdc       $unwind$?ShowMessage@CPluginW995@@UEAAHPEB_WH_N@Z 000000018003ebdc     ConEmuPlugin995.obj
 0002:0000dbdc       $unwind$_log10_special     000000018003ebdc     libucrt:log_special.obj
 0002:0000dbdc       $unwind$wctomb_s           000000018003ebdc     libucrt:wctomb.obj
 0002:0000dbe4       $unwind$?UpdateBackground_Exec@CPluginBackground@@KAXPEAURegisterBackgroundArg@@PEAUPaintBackgroundArg@@@Z 000000018003ebe4     PluginBackground.obj
 0002:0000dbe4       $unwind$?ShutdownHooks@@YAXXZ 000000018003ebe4     ConEmuInjects.obj
 0002:0000dbe4       $unwind$?insert@?$MArray@UWindowInfo@@@@QEAA_J_JAEBUWindowInfo@@0@Z 000000018003ebe4     ConEmuPlugin2800.obj
 0002:0000dbe4       $unwind$?OnMainThreadActivated@CPluginBase@@QEAAXXZ 000000018003ebe4     ConEmuPluginBase.obj
 0002:0000dbf0       $unwind$??$swprintf_c@$09@@YAHAEAY09_WPEB_WZZ 000000018003ebf0     PluginSrv.obj
 0002:0000dbf0       $unwind$??$swprintf_c@$0BAE@@@YAHAEAY0BAE@_WPEB_WZZ 000000018003ebf0     ConEmuPluginBase.obj
 0002:0000dbf0       $unwind$??$swprintf_c@$0FA@@@YAHAEAY0FA@_WPEB_WZZ 000000018003ebf0     common-user64:EmergencyShow.obj
 0002:0000dbf0       $unwind$??$sprintf_c@$0CI@@@YAHAEAY0CI@DPEBDZZ 000000018003ebf0     common-kernel64:WThreads.obj
 0002:0000dbf0       $unwind$??$swprintf_c@$0MI@@@YAHAEAY0MI@_WPEB_WZZ 000000018003ebf0     ConEmuPluginBase.obj
 0002:0000dbf0       $unwind$??$swprintf_c@$0EA@@@YAHAEAY0EA@_WPEB_WZZ 000000018003ebf0     ConEmuInjects.obj
 0002:0000dbf0       $unwind$??$swprintf_c@$0PP@@@YAHAEAY0PP@_WPEB_WZZ 000000018003ebf0     ConEmuInjects.obj
 0002:0000dbf0       $unwind$??$swprintf_c@$0EAA@@@YAHAEAY0EAA@_WPEB_WZZ 000000018003ebf0     ConEmuPluginBase.obj
 0002:0000dbf0       $unwind$??$swprintf_c@$0IA@@@YAHAEAY0IA@_WPEB_WZZ 000000018003ebf0     ConEmuInjects.obj
 0002:0000dbf0       $unwind$??$swprintf_c@$0DAM@@@YAHAEAY0DAM@_WPEB_WZZ 000000018003ebf0     ConEmuPluginBase.obj
 0002:0000dbf8       $unwind$?GetPluginInfoPtr@CPluginAnsi@@UEAAXPEAX@Z 000000018003ebf8     ConEmuPluginA.obj
 0002:0000dbf8       $unwind$__acrt_FlsGetValue 000000018003ebf8     libucrt:winapi_thunks.obj
 0002:0000dbf8       $unwind$??_Glength_error@std@@UEAAPEAXI@Z 000000018003ebf8     libcpmt:xthrow.obj
 0002:0000dbf8       $unwind$__acrt_FlsFree     000000018003ebf8     libucrt:winapi_thunks.obj
 0002:0000dbf8       $unwind$??_GCPluginW995@@UEAAPEAXI@Z 000000018003ebf8     ConEmuPlugin995.obj
 0002:0000dbf8       $unwind$__acrt_FlsAlloc    000000018003ebf8     libucrt:winapi_thunks.obj
 0002:0000dbf8       $unwind$_RTC_Initialize    000000018003ebf8     LIBCMT:initsect.obj
 0002:0000dbf8       $unwind$?internal_isupper_l@@YA_NHQEAU__crt_locale_pointers@@@Z 000000018003ebf8     libucrt:tolower_toupper.obj
 0002:0000dbf8       $unwind$??_GMNullDesc@@QEAAPEAXI@Z 000000018003ebf8     common-kernel64:MSecurity.obj
 0002:0000dbf8       $unwind$??_G?$MFileMapping@UCESERVER_CONSOLE_MAPPING_HDR@@@@QEAAPEAXI@Z 000000018003ebf8     ConEmuPluginBase.obj
 0002:0000dbf8       $unwind$_fclose_nolock     000000018003ebf8     libucrt:fclose.obj
 0002:0000dbf8       $unwind$?PointToName@@YAPEB_WPEB_W@Z 000000018003ebf8     common-kernel64:CmdLine.obj
 0002:0000dbf8       $unwind$?SetUnwindTryBlock@__FrameHandler3@@SAXPEA_KPEAU_xDISPATCHER_CONTEXT@@PEBU_s_FuncInfo@@H@Z 000000018003ebf8     libvcruntime:ehstate.obj
 0002:0000dbf8       $unwind$?isConsoleClass@@YA_NPEB_W@Z 000000018003ebf8     common-kernel64:ConEmuCheck.obj
 0002:0000dbf8       $unwind$_RTC_Terminate     000000018003ebf8     LIBCMT:initsect.obj
 0002:0000dbf8       $unwind$__acrt_getptd      000000018003ebf8     libucrt:per_thread_data.obj
 0002:0000dbf8       $unwind$??_GCPluginW1900@@UEAAPEAXI@Z 000000018003ebf8     ConEmuPlugin1900.obj
 0002:0000dbf8       $unwind$?myGetConsoleWindow@@YAPEAUHWND__@@XZ 000000018003ebf8     common-kernel64:ConEmuCheck.obj
 0002:0000dbf8       $unwind$?try_cor_exit_process@@YAXI@Z 000000018003ebf8     libucrt:exit.obj
 0002:0000dbf8       $unwind$?replace_current_thread_locale_nolock@@YAXQEAU__acrt_ptd@@QEAU__crt_locale_data@@@Z 000000018003ebf8     libucrt:per_thread_data.obj
 0002:0000dbf8       $unwind$??_Gbad_alloc@std@@UEAAPEAXI@Z 000000018003ebf8     ConEmuPlugin2800.obj
 0002:0000dbf8       $unwind$_realloc_base      000000018003ebf8     libucrt:realloc_base.obj
 0002:0000dbf8       $unwind$?OutDataAlloc@CPluginBase@@SA_NK@Z 000000018003ebf8     ConEmuPluginBase.obj
 0002:0000dbf8       $unwind$?cmd_GuiChanged@CPluginBase@@QEAAXPEAX@Z 000000018003ebf8     ConEmuPluginBase.obj
 0002:0000dbf8       $unwind$?getNext@?$MToolHelp@UtagPROCESSENTRY32W@@$1?Process32FirstW@@YAHPEAXPEAU1@@Z$1?Process32NextW@@YAH01@Z@@IEAA_NXZ 000000018003ebf8     common-kernel64:MProcess.obj
 0002:0000dbf8       $unwind$__acrt_uninitialize_lowio 000000018003ebf8     libucrt:ioinit.obj
 0002:0000dbf8       $unwind$ProcessSynchroEventW 000000018003ebf8     ConEmuPlugin.obj
 0002:0000dbf8       $unwind$??_Gexception@std@@UEAAPEAXI@Z 000000018003ebf8     ConEmuPlugin2800.obj
 0002:0000dbf8       $unwind$?Next@?$MToolHelp@UtagPROCESSENTRY32W@@$1?Process32FirstW@@YAHPEAXPEAU1@@Z$1?Process32NextW@@YAH01@Z@@QEAA_NPEAUtagPROCESSENTRY32W@@@Z 000000018003ebf8     common-kernel64:MProcess.obj
 0002:0000dbf8       $unwind$??_G?$MToolHelp@UtagPROCESSENTRY32W@@$1?Process32FirstW@@YAHPEAXPEAU1@@Z$1?Process32NextW@@YAH01@Z@@UEAAPEAXI@Z 000000018003ebf8     common-kernel64:MProcess.obj
 0002:0000dbf8       $unwind$?OpenPlugin@@YAPEAXH_J@Z 000000018003ebf8     ConEmuPlugin.obj
 0002:0000dbf8       $unwind$?StopThread@CPluginBase@@QEAAX_N@Z 000000018003ebf8     ConEmuPluginBase.obj
 0002:0000dbf8       $unwind$__acrt_errno_map_os_error 000000018003ebf8     libucrt:errno.obj
 0002:0000dbf8       $unwind$??_GMToolHelpProcess@@UEAAPEAXI@Z 000000018003ebf8     common-kernel64:MProcess.obj
 0002:0000dbf8       $unwind$OpenPluginW        000000018003ebf8     ConEmuPlugin.obj
 0002:0000dbf8       $unwind$??0MSection@@QEAA@XZ 000000018003ebf8     common-kernel64:MSection.obj
 0002:0000dbf8       $unwind$??1MSection@@QEAA@XZ 000000018003ebf8     common-kernel64:MSection.obj
 0002:0000dbf8       $unwind$?ProcessSynchroEvent@CPluginBase@@QEAAHHPEAX@Z 000000018003ebf8     ConEmuPluginBase.obj
 0002:0000dbf8       $unwind$?Unlock@MSection@@IEAAXH@Z 000000018003ebf8     common-kernel64:MSection.obj
 0002:0000dbf8       $unwind$?ProcessCommandLine@CPluginBase@@QEAA_NPEA_W@Z 000000018003ebf8     ConEmuPluginBase.obj
 0002:0000dbf8       $unwind$?Open@CPluginW1900@@UEAAPEAXPEBX@Z 000000018003ebf8     ConEmuPlugin1900.obj
 0002:0000dbf8       $unwind$_FindAndUnlinkFrame 000000018003ebf8     libvcruntime:risctrnsctrl.obj
 0002:0000dbf8       $unwind$??_GCPluginW2800@@UEAAPEAXI@Z 000000018003ebf8     ConEmuPlugin2800.obj
 0002:0000dbf8       $unwind$_close_nolock      000000018003ebf8     libucrt:close.obj
 0002:0000dbf8       $unwind$?type_case_c_tchar@?$output_processor@DV?$string_output_adapter@D@__crt_stdio_output@@V?$standard_base@DV?$string_output_adapter@D@__crt_stdio_output@@@2@@__crt_stdio_output@@AEAA_ND@Z 000000018003ebf8     libucrt:output.obj
 0002:0000dbf8       $unwind$?TerminatePipeThread@?$PipeServer@UCESERVER_REQ@@@@KAXAEAPEAXAEBUPipeInst@1@AEA_N@Z 000000018003ebf8     PluginSrv.obj
 0002:0000dbf8       $unwind$strncpy_s          000000018003ebf8     libucrt:strncpy_s.obj
 0002:0000dbf8       $unwind$??_Gbad_exception@std@@UEAAPEAXI@Z 000000018003ebf8     libvcruntime:frame.obj
 0002:0000dbf8       $unwind$?_PipeServerThread@?$PipeServer@UCESERVER_REQ@@@@KAKPEAX@Z 000000018003ebf8     PluginSrv.obj
 0002:0000dbf8       $unwind$?IsParmChanged@CPluginBackground@@IEAA_NPEAUPaintBackgroundArg@@0@Z 000000018003ebf8     PluginBackground.obj
 0002:0000dbf8       $unwind$??$common_initialize_environment_nolock@D@@YAHXZ 000000018003ebf8     libucrt:environment_initialization.obj
 0002:0000dbf8       $unwind$??_GCPluginAnsi@@UEAAPEAXI@Z 000000018003ebf8     ConEmuPluginA.obj
 0002:0000dbf8       $unwind$?force_decimal_point@__crt_stdio_output@@YAXPEADQEAU__crt_locale_pointers@@@Z 000000018003ebf8     libucrt:output.obj
 0002:0000dbf8       $unwind$__vcrt_FlsSetValue 000000018003ebf8     libvcruntime:winapi_downlevel.obj
 0002:0000dbf8       $unwind$_updatetlocinfoEx_nolock 000000018003ebf8     libucrt:locale_refcounting.obj
 0002:0000dbf8       $unwind$??0_LocaleUpdate@@QEAA@QEAU__crt_locale_pointers@@@Z 000000018003ebf8     libucrt:output.obj
 0002:0000dbf8       $unwind$?LoadFarSettings@CPluginAnsi@@UEAAXPEAUCEFarInterfaceSettings@@PEAUCEFarPanelSettings@@@Z 000000018003ebf8     ConEmuPluginA.obj
 0002:0000dbf8       $unwind$?LoadFarSettings@CPluginW995@@UEAAXPEAUCEFarInterfaceSettings@@PEAUCEFarPanelSettings@@@Z 000000018003ebf8     ConEmuPlugin995.obj
 0002:0000dbf8       $unwind$_callnewh          000000018003ebf8     libucrt:new_handler.obj
 0002:0000dbf8       $unwind$__acrt_invoke_user_matherr 000000018003ebf8     libucrt:matherr.obj
 0002:0000dbf8       $unwind$??_Glogic_error@std@@UEAAPEAXI@Z 000000018003ebf8     libcpmt:xthrow.obj
 0002:0000dc04       $unwind$?SetConEmuEnvVarChild@@YAXPEAUHWND__@@0@Z 000000018003ec04     common-user64:SetEnvVar.obj
 0002:0000dc04       $unwind$?TryEnter@MSectionSimple@@QEAA_NXZ 000000018003ec04     common-kernel64:MSectionSimple.obj
 0002:0000dc04       $unwind$?Close@MSectionSimple@@QEAAXXZ 000000018003ec04     common-kernel64:MSectionSimple.obj
 0002:0000dc04       $unwind$?Init@MSectionSimple@@QEAAXXZ 000000018003ec04     common-kernel64:MSectionSimple.obj
 0002:0000dc04       $unwind$??1MSectionSimple@@QEAA@XZ 000000018003ec04     common-kernel64:MSectionSimple.obj
 0002:0000dc04       $unwind$__acrt_update_multibyte_info 000000018003ec04     libucrt:locale_update.obj
 0002:0000dc04       $unwind$??0MSectionSimple@@QEAA@_N@Z 000000018003ec04     common-kernel64:MSectionSimple.obj
 0002:0000dc04       $unwind$__acrt_update_locale_info 000000018003ec04     libucrt:locale_update.obj
 0002:0000dc04       $unwind$?Free@MModule@@QEAAXXZ 000000018003ec04     common-kernel64:MModule.obj
 0002:0000dc04       $unwind$?GetFarRect@CPluginW1900@@UEAA_NAEAU_SMALL_RECT@@@Z 000000018003ec04     ConEmuPlugin1900.obj
 0002:0000dc04       $unwind$?GetPluginInfoPtr@CPluginW1900@@UEAAXPEAX@Z 000000018003ec04     ConEmuPlugin1900.obj
 0002:0000dc04       $unwind$??1MSectionLock@@QEAA@XZ 000000018003ec04     common-kernel64:MSection.obj
 0002:0000dc04       $unwind$?Unlock@MSectionLock@@QEAAXXZ 000000018003ec04     common-kernel64:MSection.obj
 0002:0000dc04       $unwind$__acrt_fp_strflt_to_string 000000018003ec04     libucrt:_fptostr.obj
 0002:0000dc04       $unwind$?Lock@MSectionLock@@QEAAHPEAVMSection@@HK@Z 000000018003ec04     common-kernel64:MSection.obj
 0002:0000dc04       $unwind$__acrt_uninitialize_stdio 000000018003ec04     libucrt:_file.obj
 0002:0000dc04       $unwind$??0exception@std@@QEAA@AEBV01@@Z 000000018003ec04     ConEmuPlugin2800.obj
 0002:0000dc04       $unwind$__vcrt_FlsGetValue 000000018003ec04     libvcruntime:winapi_downlevel.obj
 0002:0000dc04       $unwind$??0MSectionThread@@QEAA@PEAVMSection@@@Z 000000018003ec04     common-kernel64:MSection.obj
 0002:0000dc04       $unwind$__vcrt_FlsFree     000000018003ec04     libvcruntime:winapi_downlevel.obj
 0002:0000dc04       $unwind$__vcrt_FlsAlloc    000000018003ec04     libvcruntime:winapi_downlevel.obj
 0002:0000dc04       $unwind$__vcrt_uninitialize_locks 000000018003ec04     libvcruntime:locks.obj
 0002:0000dc04       $unwind$??1?$MFileMapping@UConEmuGuiMapping@@@@QEAA@XZ 000000018003ec04     common-user64:ConEmuCheckEx.obj
 0002:0000dc04       $unwind$??0?$MToolHelp@UtagPROCESSENTRY32W@@$1?Process32FirstW@@YAHPEAXPEAU1@@Z$1?Process32NextW@@YAH01@Z@@QEAA@KK@Z 000000018003ec04     common-kernel64:MProcess.obj
 0002:0000dc04       $unwind$??0bad_alloc@std@@QEAA@AEBV01@@Z 000000018003ec04     ConEmuPlugin2800.obj
 0002:0000dc04       $unwind$__vcrt_initialize_locks 000000018003ec04     libvcruntime:locks.obj
 0002:0000dc04       $unwind$??0?$output_processor@DV?$string_output_adapter@D@__crt_stdio_output@@V?$standard_base@DV?$string_output_adapter@D@__crt_stdio_output@@@2@@__crt_stdio_output@@QEAA@AEBV?$string_output_adapter@D@1@_KQEBDQEAU__crt_locale_pointers@@QEAD@Z 000000018003ec04     libucrt:output.obj
 0002:0000dc04       $unwind$??1CEStr@@QEAA@XZ  000000018003ec04     common-kernel64:CEStr.obj
 0002:0000dc04       $unwind$??0CEStr@@QEAA@$$QEAPEA_W@Z 000000018003ec04     common-kernel64:CEStr.obj
 0002:0000dc04       $unwind$?ReloadFarInfoApi@CPluginBase@@IEAA_NXZ 000000018003ec04     ConEmuPluginBase.obj
 0002:0000dc04       $unwind$?state_case_normal@?$output_processor@DV?$string_output_adapter@D@__crt_stdio_output@@V?$standard_base@DV?$string_output_adapter@D@__crt_stdio_output@@@2@@__crt_stdio_output@@AEAA_NXZ 000000018003ec04     libucrt:output.obj
 0002:0000dc04       $unwind$?ExFilterRethrow@@YAHPEAU_EXCEPTION_POINTERS@@PEAUEHExceptionRecord@@PEAH@Z 000000018003ec04     libvcruntime:frame.obj
 0002:0000dc04       $unwind$?GetMaxCount@CEStr@@QEAA_JXZ 000000018003ec04     common-kernel64:CEStr.obj
 0002:0000dc04       $unwind$__acrt_freeptd     000000018003ec04     libucrt:per_thread_data.obj
 0002:0000dc04       $unwind$_fflush_nolock     000000018003ec04     libucrt:fflush.obj
 0002:0000dc04       $unwind$??0bad_exception@std@@QEAA@AEBV01@@Z 000000018003ec04     libvcruntime:frame.obj
 0002:0000dc04       $unwind$?GetAllMonitorsWorkspace@@YA?AUtagRECT@@XZ 000000018003ec04     common-user64:Monitors.obj
 0002:0000dc04       $unwind$??4CEStr@@QEAAAEAU0@PEB_W@Z 000000018003ec04     common-kernel64:CEStr.obj
 0002:0000dc04       $unwind$??0logic_error@std@@QEAA@AEBV01@@Z 000000018003ec04     libcpmt:xthrow.obj
 0002:0000dc04       $unwind$?type_case_integer@?$output_processor@DV?$string_output_adapter@D@__crt_stdio_output@@V?$standard_base@DV?$string_output_adapter@D@__crt_stdio_output@@@2@@__crt_stdio_output@@AEAA_NI_N@Z 000000018003ec04     libucrt:output.obj
 0002:0000dc04       $unwind$?DllMain_ProcessDetach@CPluginBase@@KAXXZ 000000018003ec04     ConEmuPluginBase.obj
 0002:0000dc04       $unwind$?isMacroActive@CPluginBase@@QEAA_NAEAH@Z 000000018003ec04     ConEmuPluginBase.obj
 0002:0000dc04       $unwind$__acrt_initialize_locks 000000018003ec04     libucrt:locks.obj
 0002:0000dc04       $unwind$??_Gbad_alloc@stdext@@UEAAPEAXI@Z 000000018003ec04     common-kernel64:CEStr.obj
 0002:0000dc04       $unwind$?GetPluginInfo@@YAXPEAX@Z 000000018003ec04     ConEmuPlugin.obj
 0002:0000dc04       $unwind$?push_back@?$MArray@UWindowInfo@@@@QEAA_JAEBUWindowInfo@@@Z 000000018003ec04     ConEmuPlugin2800.obj
 0002:0000dc04       $unwind$__acrt_uninitialize_locks 000000018003ec04     libucrt:locks.obj
 0002:0000dc04       $unwind$__acrt_stdio_free_buffer_nolock 000000018003ec04     libucrt:_freebuf.obj
 0002:0000dc04       $unwind$??0?$output_processor@_WV?$string_output_adapter@_W@__crt_stdio_output@@V?$standard_base@_WV?$string_output_adapter@_W@__crt_stdio_output@@@2@@__crt_stdio_output@@QEAA@AEBV?$string_output_adapter@_W@1@_KQEB_WQEAU__crt_locale_pointers@@QEAD@Z 000000018003ec04     libucrt:output.obj
 0002:0000dc04       $unwind$??_Gexception@stdext@@UEAAPEAXI@Z 000000018003ec04     common-kernel64:CEStr.obj
 0002:0000dc04       $unwind$?ExitFarCommon@CPluginBase@@QEAAX_N@Z 000000018003ec04     ConEmuPluginBase.obj
 0002:0000dc04       $unwind$??0length_error@std@@QEAA@AEBV01@@Z 000000018003ec04     libcpmt:xthrow.obj
 0002:0000dc04       $unwind$?GetUnwindTryBlock@__FrameHandler3@@SAHPEA_KPEAU_xDISPATCHER_CONTEXT@@PEBU_s_FuncInfo@@@Z 000000018003ec04     libvcruntime:ehstate.obj
 0002:0000dc04       $unwind$?OpenW@@YAPEAXPEBX@Z 000000018003ec04     ConEmuPlugin.obj
 0002:0000dc04       $unwind$?StateFromIp@__FrameHandler3@@SAHPEBU_s_FuncInfo@@PEAU_xDISPATCHER_CONTEXT@@_K@Z 000000018003ec04     libvcruntime:ehstate.obj
 0002:0000dc04       $unwind$__vcrt_freeptd     000000018003ec04     libvcruntime:per_thread_data.obj
 0002:0000dc04       $unwind$??1?$MFileMapping@UCESERVER_CONSOLE_MAPPING_HDR@@@@QEAA@XZ 000000018003ec04     ConEmuPluginBase.obj
 0002:0000dc04       $unwind$?IsEnvBlockVariableValid@@YA_NPEB_W@Z 000000018003ec04     common-kernel64:Common.obj
 0002:0000dc04       $unwind$?SavePathVar@CEnvRestorer@@QEAAXPEB_W@Z 000000018003ec04     common-kernel64:EnvVar.obj
 0002:0000dc04       $unwind$??_Gtype_info@@UEAAPEAXI@Z 000000018003ec04     LIBCMT:std_type_info_static.obj
 0002:0000dc04       $unwind$?GetFarRect@CPluginW995@@UEAA_NAEAU_SMALL_RECT@@@Z 000000018003ec04     ConEmuPlugin995.obj
 0002:0000dc04       $unwind$?type_case_integer@?$output_processor@_WV?$string_output_adapter@_W@__crt_stdio_output@@V?$standard_base@_WV?$string_output_adapter@_W@__crt_stdio_output@@@2@@__crt_stdio_output@@AEAA_NI_N@Z 000000018003ec04     libucrt:output.obj
 0002:0000dc04       $unwind$_malloc_base       000000018003ec04     libucrt:malloc_base.obj
 0002:0000dc04       $unwind$?Clear@CEnvRestorer@@QEAAXXZ 000000018003ec04     common-kernel64:EnvVar.obj
 0002:0000dc04       $unwind$__std_type_info_destroy_list 000000018003ec04     libvcruntime:std_type_info.obj
 0002:0000dc04       $unwind$_Init_thread_header 000000018003ec04     LIBCMT:thread_safe_statics.obj
 0002:0000dc04       $unwind$??1CEnvStrings@@QEAA@XZ 000000018003ec04     common-kernel64:EnvVar.obj
 0002:0000dc04       $unwind$_Init_thread_footer 000000018003ec04     LIBCMT:thread_safe_statics.obj
 0002:0000dc04       $unwind$_Init_thread_wait  000000018003ec04     LIBCMT:thread_safe_statics.obj
 0002:0000dc04       $unwind$?GetFarRect@CPluginW2800@@UEAA_NAEAU_SMALL_RECT@@@Z 000000018003ec04     ConEmuPlugin2800.obj
 0002:0000dc04       $unwind$?ProcessEditorInput@@YAHPEBU_INPUT_RECORD@@@Z 000000018003ec04     ConEmuPlugin.obj
 0002:0000dc04       $unwind$__acrt_uninitialize_winapi_thunks 000000018003ec04     libucrt:winapi_thunks.obj
 0002:0000dc04       $unwind$?ExecuteSynchro@CPluginBase@@QEAAXXZ 000000018003ec04     ConEmuPluginBase.obj
 0002:0000dc04       $unwind$?ProcessViewerEventW3@@YA_JPEAX@Z 000000018003ec04     ConEmuPlugin.obj
 0002:0000dc04       $unwind$?GetPluginInfoPtr@CPluginW995@@UEAAXPEAX@Z 000000018003ec04     ConEmuPlugin995.obj
 0002:0000dc04       $unwind$?ProcessViewerEvent@@YAHHPEAX@Z 000000018003ec04     ConEmuPlugin.obj
 0002:0000dc04       $unwind$_set_statfp        000000018003ec04     libucrt:fpctrl.obj
 0002:0000dc04       $unwind$__std_exception_destroy 000000018003ec04     libvcruntime:std_exception.obj
 0002:0000dc04       $unwind$_IsExceptionObjectToBeDestroyed 000000018003ec04     libvcruntime:ehhelpers.obj
 0002:0000dc04       $unwind$strcpy_s           000000018003ec04     libucrt:strcpy_s.obj
 0002:0000dc04       $unwind$?PlugServerStop@@YAX_N@Z 000000018003ec04     PluginSrv.obj
 0002:0000dc04       $unwind$?ProcessEditorEventW3@@YA_JPEAX@Z 000000018003ec04     ConEmuPlugin.obj
 0002:0000dc04       $unwind$??1?$MFileMapping@UPanelViewSetMapping@@@@QEAA@XZ 000000018003ec04     PluginBackground.obj
 0002:0000dc04       $unwind$uninitialize_allocated_memory 000000018003ec04     libucrt:initialization.obj
 0002:0000dc04       $unwind$?CheckBufferEnabled@CPluginBase@@QEAA_NXZ 000000018003ec04     ConEmuPluginBase.obj
 0002:0000dc04       $unwind$initialize_pointers 000000018003ec04     libucrt:initialization.obj
 0002:0000dc04       $unwind$?ProcessEditorEvent@@YAHHPEAX@Z 000000018003ec04     ConEmuPlugin.obj
 0002:0000dc04       $unwind$_clrfp             000000018003ec04     libucrt:fpctrl.obj
 0002:0000dc04       $unwind$?PanelControlApi@CPluginW995@@UEAA_JPEAXH_J0@Z 000000018003ec04     ConEmuPlugin995.obj
 0002:0000dc04       $unwind$?MonitorBackground@CPluginBackground@@QEAAXXZ 000000018003ec04     PluginBackground.obj
 0002:0000dc04       $unwind$?OnMainThreadActivated@CPluginBackground@@QEAAXHH@Z 000000018003ec04     PluginBackground.obj
 0002:0000dc04       $unwind$_CreateFrameInfo   000000018003ec04     libvcruntime:risctrnsctrl.obj
 0002:0000dc04       $unwind$?GetPluginInfoPtr@CPluginW2800@@UEAAXPEAX@Z 000000018003ec04     ConEmuPlugin2800.obj
 0002:0000dc04       $unwind$_SetThrowImageBase 000000018003ec04     libvcruntime:risctrnsctrl.obj
 0002:0000dc04       $unwind$?SwitchTabCommand@CPluginBase@@QEAAXW4PluginMenuCommands@@@Z 000000018003ec04     ConEmuPluginBase.obj
 0002:0000dc04       $unwind$?ProcessSynchroEventW3@@YA_JPEAX@Z 000000018003ec04     ConEmuPlugin.obj
 0002:0000dc04       $unwind$_SetImageBase      000000018003ec04     libvcruntime:risctrnsctrl.obj
 0002:0000dc04       $unwind$?ExecutionInCatch@__FrameHandler3@@SA_NPEAU_xDISPATCHER_CONTEXT@@PEBU_s_FuncInfo@@@Z 000000018003ec04     libvcruntime:risctrnsctrl.obj
 0002:0000dc04       $unwind$_setfpstatusword   000000018003ec04     libucrt:_fenvutils.obj
 0002:0000dc04       $unwind$?OnConsoleReadInputWork@CPluginBase@@SAHPEAUHookCallbackArg@@@Z 000000018003ec04     ConEmuPluginBase.obj
 0002:0000dc04       $unwind$?OnShellExecuteExW_Except@CPluginBase@@SAHPEAUHookCallbackArg@@@Z 000000018003ec04     ConEmuPluginBase.obj
 0002:0000dc04       $unwind$?GetFarHWND2@@YAPEAUHWND__@@H@Z 000000018003ec04     ConEmuPlugin.obj
 0002:0000dc04       $unwind$?SetStartupInfo@@YAXPEAX@Z 000000018003ec04     ConEmuPlugin.obj
 0002:0000dc04       $unwind$??_GCPluginBase@@UEAAPEAXI@Z 000000018003ec04     ConEmuPluginBase.obj
 0002:0000dc04       $unwind$_clearfp           000000018003ec04     libucrt:ieee.obj
 0002:0000dc04       $unwind$?IsConsoleActive@@YAHXZ 000000018003ec04     ConEmuPlugin.obj
 0002:0000dc04       $unwind$?BackgroundMacroError@CPluginBase@@SAKPEAX@Z 000000018003ec04     ConEmuPluginBase.obj
 0002:0000dc04       $unwind$?exit_or_terminate_process@@YAXI@Z 000000018003ec04     libucrt:exit.obj
 0002:0000dc04       $unwind$fegetenv           000000018003ec04     libucrt:fegetenv.obj
 0002:0000dc04       $unwind$?ProcessSynchroEventPtr@CPluginW2800@@UEAAHPEAX@Z 000000018003ec04     ConEmuPlugin2800.obj
 0002:0000dc04       $unwind$?ProcessSynchroEventPtr@CPluginW1900@@UEAAHPEAX@Z 000000018003ec04     ConEmuPlugin1900.obj
 0002:0000dc04       $unwind$SetStartupInfoW    000000018003ec04     ConEmuPlugin.obj
 0002:0000dc04       $unwind$__raise_securityfailure 000000018003ec04     LIBCMT:gs_report.obj
 0002:0000dc04       $unwind$__acrt_allocate_buffer_for_argv 000000018003ec04     libucrt:argv_parsing.obj
 0002:0000dc04       $unwind$fesetenv           000000018003ec04     libucrt:fesetenv.obj
 0002:0000dc04       $unwind$_onexit            000000018003ec04     LIBCMT:utility.obj
 0002:0000dc04       $unwind$?GetPluginInfoW@@YAXPEAX@Z 000000018003ec04     ConEmuPlugin.obj
 0002:0000dc04       $unwind$?OnConsolePeekInput@CPluginBase@@SAHPEAUHookCallbackArg@@@Z 000000018003ec04     ConEmuPluginBase.obj
 0002:0000dc04       $unwind$__scrt_release_startup_lock 000000018003ec04     LIBCMT:utility.obj
 0002:0000dc04       $unwind$ProcessViewerEventW 000000018003ec04     ConEmuPlugin.obj
 0002:0000dc04       $unwind$__scrt_initialize_crt 000000018003ec04     LIBCMT:utility.obj
 0002:0000dc04       $unwind$?CloseMapHeader@CPluginBase@@SAXXZ 000000018003ec04     ConEmuPluginBase.obj
 0002:0000dc04       $unwind$feholdexcept       000000018003ec04     libucrt:feholdexcept.obj
 0002:0000dc04       $unwind$?pcc_Disabled@CPluginBase@@SA_NW4PluginMenuCommands@@@Z 000000018003ec04     ConEmuPluginBase.obj
 0002:0000dc04       $unwind$?pcc_Selected@CPluginBase@@SA_NW4PluginMenuCommands@@@Z 000000018003ec04     ConEmuPluginBase.obj
 0002:0000dc04       $unwind$__scrt_uninitialize_crt 000000018003ec04     LIBCMT:utility.obj
 0002:0000dc04       $unwind$ProcessEditorEventW 000000018003ec04     ConEmuPlugin.obj
 0002:0000dc04       $unwind$ProcessEditorInputW 000000018003ec04     ConEmuPlugin.obj
 0002:0000dc04       $unwind$_calloc_base       000000018003ec04     libucrt:calloc_base.obj
 0002:0000dc0c       $unwind$?RegisterPanelView@@YAHPEAUPanelViewInit@@@Z 000000018003ec0c     ConEmuPlugin.obj
 0002:0000dc28       $unwind$?RegisterBackground@@YAHPEAURegisterBackgroundArg@@@Z 000000018003ec28     ConEmuPlugin.obj
 0002:0000dc38       $stateUnwindMap$?RegisterBackground@@YAHPEAURegisterBackgroundArg@@@Z 000000018003ec38     ConEmuPlugin.obj
 0002:0000dc40       $ip2state$?RegisterBackground@@YAHPEAURegisterBackgroundArg@@@Z 000000018003ec40     ConEmuPlugin.obj
 0002:0000dc50       $unwind$__acrt_update_thread_locale_data$fin$0 000000018003ec50     libucrt:locale_refcounting.obj
 0002:0000dc50       $unwind$?fin$0@?0???$?RV<lambda_46352004c1216016012b18bd6f87e700>@@AEAV<lambda_3bd07e1a1191394380780325891bf33f>@@V<lambda_334532d3f185bcaa59b5be82d7d22bff>@@@?$__crt_seh_guarded_call@X@@QEAAX$$QEAV<lambda_46352004c1216016012b18bd6f87e700>@@AEAV<lambda_3bd07e1a1191394380780325891bf33f>@@$$QEAV<lambda_334532d3f185bcaa59b5be82d7d22bff>@@@Z@4HA 000000018003ec50     libucrt:per_thread_data.obj
 0002:0000dc50       $unwind$?fin$0@?0???$?RV<lambda_5e887d1dcbef67a5eb4283622ba103bf>@@AEAV<lambda_4466841279450cc726390878d4a41900>@@V<lambda_341c25c0346d94847f1f3c463c57e077>@@@?$__crt_seh_guarded_call@X@@QEAAX$$QEAV<lambda_5e887d1dcbef67a5eb4283622ba103bf>@@AEAV<lambda_4466841279450cc726390878d4a41900>@@$$QEAV<lambda_341c25c0346d94847f1f3c463c57e077>@@@Z@4HA 000000018003ec50     libucrt:per_thread_data.obj
 0002:0000dc50       $unwind$__acrt_uninitialize_locale$fin$0 000000018003ec50     libucrt:wsetlocale.obj
 0002:0000dc50       $unwind$__acrt_initialize_lowio$fin$0 000000018003ec50     libucrt:ioinit.obj
 0002:0000dc50       $unwind$?fin$0@?0???$?RV<lambda_72d1df2b273a38828b1ce30cbf4cdab5>@@AEAV<lambda_876a65b173b8412d3a47c70a915b0cf4>@@V<lambda_41932305e351933ebe8f8be3ed8bb5dc>@@@?$__crt_seh_guarded_call@X@@QEAAX$$QEAV<lambda_72d1df2b273a38828b1ce30cbf4cdab5>@@AEAV<lambda_876a65b173b8412d3a47c70a915b0cf4>@@$$QEAV<lambda_41932305e351933ebe8f8be3ed8bb5dc>@@@Z@4HA 000000018003ec50     libucrt:per_thread_data.obj
 0002:0000dc50       $unwind$_fcloseall$fin$0   000000018003ec50     libucrt:closeall.obj
 0002:0000dc50       $unwind$_IsNonwritableInCurrentImage$filt$0 000000018003ec50     LIBCMT:pesect.obj
 0002:0000dc50       $unwind$?filt$0@?0??CxxCallCatchBlock@__FrameHandler3@@SAPEAXPEAU_EXCEPTION_RECORD@@@Z@4HA 000000018003ec50     libvcruntime:frame.obj
 0002:0000dc50       $unwind$?fin$1@?0??FrameUnwindToState@__FrameHandler3@@SAXPEA_KPEAU_xDISPATCHER_CONTEXT@@PEBU_s_FuncInfo@@H@Z@4HA 000000018003ec50     libvcruntime:frame.obj
 0002:0000dc50       $unwind$?filt$0@?0??FrameUnwindToState@__FrameHandler3@@SAXPEA_KPEAU_xDISPATCHER_CONTEXT@@PEBU_s_FuncInfo@@H@Z@4HA 000000018003ec50     libvcruntime:frame.obj
 0002:0000dc50       $unwind$?dtor$0@?0??DllMain_ProcessAttach@CPluginBase@@KAXPEAUHINSTANCE__@@@Z@4HA 000000018003ec50     ConEmuPluginBase.obj
 0002:0000dc50       $unwind$?dtor$1@?0??DllMain_ProcessAttach@CPluginBase@@KAXPEAUHINSTANCE__@@@Z@4HA 000000018003ec50     ConEmuPluginBase.obj
 0002:0000dc50       $unwind$common_flush_all$fin$0 000000018003ec50     libucrt:fflush.obj
 0002:0000dc50       $unwind$_write$fin$0       000000018003ec50     libucrt:write.obj
 0002:0000dc50       $unwind$common_flush_all$fin$1 000000018003ec50     libucrt:fflush.obj
 0002:0000dc50       $unwind$?fin$0@?0???$?RV<lambda_b8c45f8f788dd370798f47cfe8ac3a86>@@AEAV<lambda_4e60a939b0d047cfe11ddc22648dfba9>@@V<lambda_332c3edc96d0294ec56c57d38c1cdfd5>@@@?$__crt_seh_guarded_call@H@@QEAAH$$QEAV<lambda_b8c45f8f788dd370798f47cfe8ac3a86>@@AEAV<lambda_4e60a939b0d047cfe11ddc22648dfba9>@@$$QEAV<lambda_332c3edc96d0294ec56c57d38c1cdfd5>@@@Z@4HA 000000018003ec50     libucrt:onexit.obj
 0002:0000dc50       $unwind$_query_new_handler$fin$0 000000018003ec50     libucrt:new_handler.obj
 0002:0000dc50       $unwind$__acrt_lowio_ensure_fh_exists$fin$0 000000018003ec50     libucrt:osfinfo.obj
 0002:0000dc50       $unwind$?fin$0@?0???$?RV<lambda_bfedae4ebbf01fab1bb6dcc6a9e276e0>@@AEAV<lambda_2fe9b910cf3cbf4a0ab98a02ba45b3ec>@@V<lambda_237c231691f317818eb88cc1d5d642d6>@@@?$__crt_seh_guarded_call@H@@QEAAH$$QEAV<lambda_bfedae4ebbf01fab1bb6dcc6a9e276e0>@@AEAV<lambda_2fe9b910cf3cbf4a0ab98a02ba45b3ec>@@$$QEAV<lambda_237c231691f317818eb88cc1d5d642d6>@@@Z@4HA 000000018003ec50     libucrt:close.obj
 0002:0000dc50       $unwind$?dtor$0@?0??RegisterBackground@@YAHPEAURegisterBackgroundArg@@@Z@4HA 000000018003ec50     ConEmuPlugin.obj
 0002:0000dc50       $unwind$?fin$0@?0???$?RV<lambda_fb3a7dec4e47f37f22dae91bb15c9095>@@AEAV<lambda_698284760c8add0bfb0756c19673e34b>@@V<lambda_dfb8eca1e75fef3034a8fb18dd509707>@@@?$__crt_seh_guarded_call@X@@QEAAX$$QEAV<lambda_fb3a7dec4e47f37f22dae91bb15c9095>@@AEAV<lambda_698284760c8add0bfb0756c19673e34b>@@$$QEAV<lambda_dfb8eca1e75fef3034a8fb18dd509707>@@@Z@4HA 000000018003ec50     libucrt:per_thread_data.obj
 0002:0000dc50       $unwind$?dtor$0@?0??UpdateConEmuTabsApi@CPluginW2800@@UEAA_NH@Z@4HA 000000018003ec50     ConEmuPlugin2800.obj
 0002:0000dc50       $unwind$?fin$1@?0??common_exit@@YAXHW4_crt_exit_cleanup_mode@@W4_crt_exit_return_mode@@@Z@4HA 000000018003ec50     libucrt:exit.obj
 0002:0000dc50       $unwind$?fin$0@?0???$?RV<lambda_e24bbb7b643b32fcea6fa61b31d4c984>@@AEAV<lambda_275893d493268fdec8709772e3fcec0e>@@V<lambda_9d71df4d7cf3f480f8d633942495c3b0>@@@?$__crt_seh_guarded_call@H@@QEAAH$$QEAV<lambda_e24bbb7b643b32fcea6fa61b31d4c984>@@AEAV<lambda_275893d493268fdec8709772e3fcec0e>@@$$QEAV<lambda_9d71df4d7cf3f480f8d633942495c3b0>@@@Z@4HA 000000018003ec50     libucrt:onexit.obj
 0002:0000dc50       $unwind$?filt$0@?0??common_exit@@YAXHW4_crt_exit_cleanup_mode@@W4_crt_exit_return_mode@@@Z@4HA 000000018003ec50     libucrt:exit.obj
 0002:0000dc50       $unwind$raise$fin$0        000000018003ec50     libucrt:signal.obj
 0002:0000dc50       $unwind$fclose$fin$0       000000018003ec50     libucrt:fclose.obj
 0002:0000dc50       $unwind$__acrt_update_thread_multibyte_data$fin$0 000000018003ec50     libucrt:mbctype.obj
 0002:0000dc50       $unwind$common_control87$filt$0 000000018003ec50     libucrt:ieee.obj
 0002:0000dc50       $unwind$__DestructExceptionObject$filt$0 000000018003ec50     libvcruntime:ehhelpers.obj
 0002:0000dc50       $unwind$?fin$0@?0???$?RV<lambda_c36588078e9f5dfd39652860aa6b3aaf>@@AEAV<lambda_ec61778202f4f5fc7e7711acc23c3bca>@@V<lambda_dc9d2797ccde5d239b4a0efae8ebd7db>@@@?$__crt_seh_guarded_call@P6AXH@Z@@QEAAP6AXH@Z$$QEAV<lambda_c36588078e9f5dfd39652860aa6b3aaf>@@AEAV<lambda_ec61778202f4f5fc7e7711acc23c3bca>@@$$QEAV<lambda_dc9d2797ccde5d239b4a0efae8ebd7db>@@@Z@4HA 000000018003ec50     libucrt:signal.obj
 0002:0000dc50       $unwind$?dtor$3@?0??Plugin@@YAPEAVCPluginBase@@XZ@4HA 000000018003ec50     ConEmuPluginBase.obj
 0002:0000dc50       $unwind$?dtor$0@?0???0CPluginBackground@@QEAA@XZ@4HA 000000018003ec50     PluginBackground.obj
 0002:0000dc50       $unwind$?dtor$2@?0??Plugin@@YAPEAVCPluginBase@@XZ@4HA 000000018003ec50     ConEmuPluginBase.obj
 0002:0000dc50       $unwind$_ctrlfp$filt$0     000000018003ec50     libucrt:fpctrl.obj
 0002:0000dc50       $unwind$?fin$0@?0???$?RV<lambda_b521505b218e5242e90febf6bfebc422>@@AEAV<lambda_6978c1fb23f02e42e1d9e99668cc68aa>@@V<lambda_314360699dd331753a4119843814e9a7>@@@?$__crt_seh_guarded_call@H@@QEAAH$$QEAV<lambda_b521505b218e5242e90febf6bfebc422>@@AEAV<lambda_6978c1fb23f02e42e1d9e99668cc68aa>@@$$QEAV<lambda_314360699dd331753a4119843814e9a7>@@@Z@4HA 000000018003ec50     libucrt:commit.obj
 0002:0000dc50       $unwind$?dtor$0@?0??Plugin@@YAPEAVCPluginBase@@XZ@4HA 000000018003ec50     ConEmuPluginBase.obj
 0002:0000dc50       $unwind$?fin$0@?0???$?RV<lambda_99476a1ad63dd22509b5d3e65b0ffc95>@@AEAV<lambda_ad1ced32f4ac17aa236e5ef05d6b3b7c>@@V<lambda_f7424dd8d45958661754dc4f2697e9c3>@@@?$__crt_seh_guarded_call@X@@QEAAX$$QEAV<lambda_99476a1ad63dd22509b5d3e65b0ffc95>@@AEAV<lambda_ad1ced32f4ac17aa236e5ef05d6b3b7c>@@$$QEAV<lambda_f7424dd8d45958661754dc4f2697e9c3>@@@Z@4HA 000000018003ec50     libucrt:mbctype.obj
 0002:0000dc50       $unwind$?dtor$1@?0??Plugin@@YAPEAVCPluginBase@@XZ@4HA 000000018003ec50     ConEmuPluginBase.obj
 0002:0000dc50       $unwind$?fin$0@?0??dllmain_crt_process_attach@@YAHQEAUHINSTANCE__@@QEAX@Z@4HA 000000018003ec50     LIBCMT:dll_dllmain.obj
 0002:0000dc50       $unwind$?fin$0@?0??dllmain_crt_process_detach@@YAH_N@Z@4HA 000000018003ec50     LIBCMT:dll_dllmain.obj
 0002:0000dc58       $unwind$?SyncExecute@@YAHPEAUHINSTANCE__@@P6AX_J@Z1@Z 000000018003ec58     ConEmuPlugin.obj
 0002:0000dc60       $unwind$?ActivateConsole@@YAHXZ 000000018003ec60     ConEmuPlugin.obj
 0002:0000dc74       $unwind$?RedrawAll@CPluginW995@@UEAAXXZ 000000018003ec74     ConEmuPlugin995.obj
 0002:0000dc74       $unwind$_GetThrowImageBase 000000018003ec74     libvcruntime:risctrnsctrl.obj
 0002:0000dc74       $unwind$__acrt_uninitialize_critical 000000018003ec74     libucrt:initialization.obj
 0002:0000dc74       $unwind$?dllmain_crt_dispatch@@YAHQEAUHINSTANCE__@@KQEAX@Z 000000018003ec74     LIBCMT:dll_dllmain.obj
 0002:0000dc74       $unwind$__doserrno         000000018003ec74     libucrt:errno.obj
 0002:0000dc74       $unwind$__acrt_thread_attach 000000018003ec74     libucrt:initialization.obj
 0002:0000dc74       $unwind$_errno             000000018003ec74     libucrt:errno.obj
 0002:0000dc74       $unwind$?ProcessEditorInputPtr@CPluginW995@@UEAAHPEBX@Z 000000018003ec74     ConEmuPlugin995.obj
 0002:0000dc74       $unwind$__acrt_thread_detach 000000018003ec74     libucrt:initialization.obj
 0002:0000dc74       $unwind$?SetWindow@CPluginW995@@UEAAXH@Z 000000018003ec74     ConEmuPlugin995.obj
 0002:0000dc74       $unwind$initialize_c       000000018003ec74     libucrt:initialization.obj
 0002:0000dc74       $unwind$?initialize_multibyte@@YAHXZ 000000018003ec74     libucrt:multibyte_initializer.obj
 0002:0000dc74       $unwind$uninitialize_environment 000000018003ec74     libucrt:initialization.obj
 0002:0000dc74       $unwind$?GetMinFarVersion@@YAHXZ 000000018003ec74     ConEmuPlugin.obj
 0002:0000dc74       $unwind$_msize             000000018003ec74     libucrt:msize.obj
 0002:0000dc74       $unwind$_set_errno_from_matherr 000000018003ec74     libucrt:fpexcept.obj
 0002:0000dc74       $unwind$_invoke_watson     000000018003ec74     libucrt:invalid_parameter.obj
 0002:0000dc74       $unwind$_getfpcontrolword  000000018003ec74     libucrt:_fenvutils.obj
 0002:0000dc74       $unwind$?ProcessEditorInputPtr@CPluginW1900@@UEAAHPEBX@Z 000000018003ec74     ConEmuPlugin1900.obj
 0002:0000dc74       $unwind$_statfp            000000018003ec74     libucrt:fpctrl.obj
 0002:0000dc74       $unwind$__std_terminate    000000018003ec74     libvcruntime:ehhelpers.obj
 0002:0000dc74       $unwind$?ShowUserScreen@CPluginW2800@@UEAAX_N@Z 000000018003ec74     ConEmuPlugin2800.obj
 0002:0000dc74       $unwind$_getfpstatusword   000000018003ec74     libucrt:_fenvutils.obj
 0002:0000dc74       $unwind$?SetWindow@CPluginW1900@@UEAAXH@Z 000000018003ec74     ConEmuPlugin1900.obj
 0002:0000dc74       $unwind$__FrameUnwindFilter 000000018003ec74     libvcruntime:ehhelpers.obj
 0002:0000dc74       $unwind$?OnGetNumberOfConsoleInputEventsPost@CPluginBase@@SAHPEAUHookCallbackArg@@@Z 000000018003ec74     ConEmuPluginBase.obj
 0002:0000dc74       $unwind$abort              000000018003ec74     libucrt:abort.obj
 0002:0000dc74       $unwind$?PointToExt@@YAPEB_WPEB_W@Z 000000018003ec74     common-kernel64:CmdLine.obj
 0002:0000dc74       $unwind$?cmd_FarSetChanged@@YAXPEAUFAR_REQ_FARSETCHANGED@@@Z 000000018003ec74     PluginSrv.obj
 0002:0000dc74       $unwind$?RedrawAll@CPluginW2800@@UEAAXXZ 000000018003ec74     ConEmuPlugin2800.obj
 0002:0000dc74       $unwind$?ExitFar@CPluginAnsi@@UEAAXXZ 000000018003ec74     ConEmuPluginA.obj
 0002:0000dc74       $unwind$?ExecuteFreeResult@@YAXAEAPEAUCESERVER_REQ@@@Z 000000018003ec74     common-kernel64:ConEmuCheck.obj
 0002:0000dc74       $unwind$__acrt_initialize_multibyte 000000018003ec74     libucrt:mbctype.obj
 0002:0000dc74       $unwind$?ShowUserScreen@CPluginW995@@UEAAX_N@Z 000000018003ec74     ConEmuPlugin995.obj
 0002:0000dc74       $unwind$?__scrt_uninitialize_thread_safe_statics@@YAXXZ 000000018003ec74     LIBCMT:thread_safe_statics.obj
 0002:0000dc74       $unwind$?CheckPanelExist@CPluginAnsi@@UEAA_NXZ 000000018003ec74     ConEmuPluginA.obj
 0002:0000dc74       $unwind$_Init_thread_notify 000000018003ec74     LIBCMT:thread_safe_statics.obj
 0002:0000dc74       $unwind$__vcrt_initialize  000000018003ec74     libvcruntime:initialization.obj
 0002:0000dc74       $unwind$__vcrt_uninitialize 000000018003ec74     libvcruntime:initialization.obj
 0002:0000dc74       $unwind$__acrt_DownlevelLocaleNameToLCID 000000018003ec74     libucrt:lcidtoname_downlevel.obj
 0002:0000dc74       $unwind$tolower            000000018003ec74     libucrt:tolower_toupper.obj
 0002:0000dc74       $unwind$__vcrt_uninitialize_critical 000000018003ec74     libvcruntime:initialization.obj
 0002:0000dc74       $unwind$__vcrt_thread_attach 000000018003ec74     libvcruntime:initialization.obj
 0002:0000dc74       $unwind$?deallocate@?$MArrayAllocator@UWindowInfo@@@@QEAAXPEAUWindowInfo@@_K@Z 000000018003ec74     ConEmuPlugin2800.obj
 0002:0000dc74       $unwind$__vcrt_thread_detach 000000018003ec74     libvcruntime:initialization.obj
 0002:0000dc74       $unwind$__scrt_initialize_default_local_stdio_options 000000018003ec74     LIBCMT:default_local_stdio_options.obj
 0002:0000dc74       $unwind$?GetActiveWindowType@CPluginW2800@@UEAAHXZ 000000018003ec74     ConEmuPlugin2800.obj
 0002:0000dc74       $unwind$__vcrt_initialize_ptd 000000018003ec74     libvcruntime:per_thread_data.obj
 0002:0000dc74       $unwind$__vcrt_uninitialize_ptd 000000018003ec74     libvcruntime:per_thread_data.obj
 0002:0000dc74       $unwind$__vcrt_getptd      000000018003ec74     libvcruntime:per_thread_data.obj
 0002:0000dc74       $unwind$?StopWaitEndSynchro@CPluginW995@@UEAAXXZ 000000018003ec74     ConEmuPlugin995.obj
 0002:0000dc74       $unwind$?IsMacroActive@CPluginW2800@@UEAA_NXZ 000000018003ec74     ConEmuPlugin2800.obj
 0002:0000dc74       $unwind$?LocalSecurity@@YAPEAU_SECURITY_ATTRIBUTES@@XZ 000000018003ec74     common-kernel64:MSecurity.obj
 0002:0000dc74       $unwind$__vcrt_freefls     000000018003ec74     libvcruntime:per_thread_data.obj
 0002:0000dc74       $unwind$__GSHandlerCheck   000000018003ec74     LIBCMT:gshandler.obj
 0002:0000dc74       $unwind$?GetCurrentState@__FrameHandler3@@SAHPEA_KPEAU_xDISPATCHER_CONTEXT@@PEBU_s_FuncInfo@@@Z 000000018003ec74     libvcruntime:ehstate.obj
 0002:0000dc74       $unwind$?ExecuteSynchroApi@CPluginW2800@@UEAA_NXZ 000000018003ec74     ConEmuPlugin2800.obj
 0002:0000dc74       $unwind$?ShutdownSecurity@@YAXXZ 000000018003ec74     common-kernel64:MSecurity.obj
 0002:0000dc74       $unwind$?state_case_size@?$output_processor@_WV?$string_output_adapter@_W@__crt_stdio_output@@V?$standard_base@_WV?$string_output_adapter@_W@__crt_stdio_output@@@2@@__crt_stdio_output@@AEAA_NXZ 000000018003ec74     libucrt:output.obj
 0002:0000dc74       $unwind$__dcrt_terminate_console_output 000000018003ec74     libucrt:initcon.obj
 0002:0000dc74       $unwind$_get_osfhandle     000000018003ec74     libucrt:osfinfo.obj
 0002:0000dc74       $unwind$?ProcessEditorInputPtr@CPluginW2800@@UEAAHPEBX@Z 000000018003ec74     ConEmuPlugin2800.obj
 0002:0000dc74       $unwind$?ShowUserScreen@CPluginW1900@@UEAAX_N@Z 000000018003ec74     ConEmuPlugin1900.obj
 0002:0000dc74       $unwind$_isatty            000000018003ec74     libucrt:isatty.obj
 0002:0000dc74       $unwind$_purecall          000000018003ec74     libvcruntime:purevirt.obj
 0002:0000dc74       $unwind$?_Xlength@?$vector@UWindowInfo@@V?$MArrayAllocator@UWindowInfo@@@@@std@@CAXXZ 000000018003ec74     ConEmuPlugin2800.obj
 0002:0000dc74       $unwind$DllMain            000000018003ec74     ConEmuPlugin.obj
 0002:0000dc74       $unwind$_GetImageBase      000000018003ec74     libvcruntime:risctrnsctrl.obj
 0002:0000dc74       $unwind$atexit             000000018003ec74     LIBCMT:utility.obj
 0002:0000dc74       $unwind$__report_rangecheckfailure 000000018003ec74     LIBCMT:gs_report.obj
 0002:0000dc74       $unwind$__acrt_initialize_ptd 000000018003ec74     libucrt:per_thread_data.obj
 0002:0000dc74       $unwind$?CheckPanelExist@CPluginW2800@@UEAA_NXZ 000000018003ec74     ConEmuPlugin2800.obj
 0002:0000dc74       $unwind$__acrt_uninitialize_ptd 000000018003ec74     libucrt:per_thread_data.obj
 0002:0000dc74       $unwind$?HeapDeinitialize@@YAXXZ 000000018003ec74     common-kernel64:Memory.obj
 0002:0000dc74       $unwind$__scrt_acquire_startup_lock 000000018003ec74     LIBCMT:utility.obj
 0002:0000dc74       $unwind$?OnConsolePeekInputPost@CPluginBase@@SAHPEAUHookCallbackArg@@@Z 000000018003ec74     ConEmuPluginBase.obj
 0002:0000dc74       $unwind$?ExecuteSynchroApi@CPluginW995@@UEAA_NXZ 000000018003ec74     ConEmuPlugin995.obj
 0002:0000dc74       $unwind$?HeapInitialize@@YA_NXZ 000000018003ec74     common-kernel64:Memory.obj
 0002:0000dc74       $unwind$??2@YAPEAX_K@Z     000000018003ec74     common-kernel64:Memory.obj
 0002:0000dc74       $unwind$?CheckPanelExist@CPluginW995@@UEAA_NXZ 000000018003ec74     ConEmuPlugin995.obj
 0002:0000dc74       $unwind$__acrt_initialize_command_line 000000018003ec74     libucrt:argv_data.obj
 0002:0000dc74       $unwind$?OnConsoleWasAttached@CPluginBase@@SAHPEAUHookCallbackArg@@@Z 000000018003ec74     ConEmuPluginBase.obj
 0002:0000dc74       $unwind$?OnCurDirChanged@CPluginBase@@SAXXZ 000000018003ec74     ConEmuPluginBase.obj
 0002:0000dc74       $unwind$?apiShowWindowAsync@@YA_NPEAUHWND__@@H@Z 000000018003ec74     common-user64:WUser.obj
 0002:0000dc74       $unwind$?state_case_size@?$output_processor@DV?$string_output_adapter@D@__crt_stdio_output@@V?$standard_base@DV?$string_output_adapter@D@__crt_stdio_output@@@2@@__crt_stdio_output@@AEAA_NXZ 000000018003ec74     libucrt:output.obj
 0002:0000dc74       $unwind$?IsMacroActive@CPluginW1900@@UEAA_NXZ 000000018003ec74     ConEmuPlugin1900.obj
 0002:0000dc74       $unwind$?apiShowWindow@@YA_NPEAUHWND__@@H@Z 000000018003ec74     common-user64:WUser.obj
 0002:0000dc74       $unwind$??__FgsMapHelper@@YAXXZ 000000018003ec74     common-user64:WConsoleEx.obj
 0002:0000dc74       $unwind$?state_case_normal_tchar@?$output_processor@DV?$string_output_adapter@D@__crt_stdio_output@@V?$standard_base@DV?$string_output_adapter@D@__crt_stdio_output@@@2@@__crt_stdio_output@@AEAA_ND@Z 000000018003ec74     libucrt:output.obj
 0002:0000dc74       $unwind$?EmergencyShow@CPluginBase@@KAXXZ 000000018003ec74     ConEmuPluginBase.obj
 0002:0000dc74       $unwind$?Clear@CEStr@@QEAAXXZ 000000018003ec74     common-kernel64:CEStr.obj
 0002:0000dc74       $unwind$__pctype_func      000000018003ec74     libucrt:ctype.obj
 0002:0000dc74       $unwind$?TouchReadPeekConsoleInputs@CPluginBase@@SAXH@Z 000000018003ec74     ConEmuPluginBase.obj
 0002:0000dc74       $unwind$?CheckPanelExist@CPluginW1900@@UEAA_NXZ 000000018003ec74     ConEmuPlugin1900.obj
 0002:0000dc74       $unwind$?IsWin6@@YA_NXZ    000000018003ec74     common-kernel64:WObjects.obj
 0002:0000dc74       $unwind$?_Xlength@?$vector@UtagPROCESSENTRY32W@@V?$MArrayAllocator@UtagPROCESSENTRY32W@@@@@std@@CAXXZ 000000018003ec74     common-kernel64:MProcess.obj
 0002:0000dc74       $unwind$__dcrt_uninitialize_environments_nolock 000000018003ec74     libucrt:environment_initialization.obj
 0002:0000dc74       $unwind$?ShowUserScreen@CPluginAnsi@@UEAAX_N@Z 000000018003ec74     ConEmuPluginA.obj
 0002:0000dc74       $unwind$__acrt_initialize_heap 000000018003ec74     libucrt:heap_handle.obj
 0002:0000dc74       $unwind$?SetWindow@CPluginAnsi@@UEAAXH@Z 000000018003ec74     ConEmuPluginA.obj
 0002:0000dc74       $unwind$?RedrawAll@CPluginW1900@@UEAAXXZ 000000018003ec74     ConEmuPlugin1900.obj
 0002:0000dc74       $unwind$__scrt_dllmain_before_initialize_c 000000018003ec74     LIBCMT:utility.obj
 0002:0000dc74       $unwind$__scrt_dllmain_crt_thread_detach 000000018003ec74     LIBCMT:utility.obj
 0002:0000dc74       $unwind$??$uninitialize_environment_internal@D@@YAXAEAPEAPEAD@Z 000000018003ec74     libucrt:environment_initialization.obj
 0002:0000dc74       $unwind$_fileno            000000018003ec74     libucrt:fileno.obj
 0002:0000dc74       $unwind$?RedrawAll@CPluginAnsi@@UEAAXXZ 000000018003ec74     ConEmuPluginA.obj
 0002:0000dc74       $unwind$?PanelControlApi@CPluginAnsi@@UEAA_JPEAXH_J0@Z 000000018003ec74     ConEmuPluginA.obj
 0002:0000dc74       $unwind$?ExecuteSynchroApi@CPluginW1900@@UEAA_NXZ 000000018003ec74     ConEmuPlugin1900.obj
 0002:0000dc74       $unwind$__scrt_dllmain_crt_thread_attach 000000018003ec74     LIBCMT:utility.obj
 0002:0000dc74       $unwind$?GetActiveWindowType@CPluginW1900@@UEAAHXZ 000000018003ec74     ConEmuPlugin1900.obj
 0002:0000dc74       $unwind$__acrt_release_locale_ref 000000018003ec74     libucrt:locale_refcounting.obj
 0002:0000dc74       $unwind$??$uninitialize_environment_internal@_W@@YAXAEAPEAPEA_W@Z 000000018003ec74     libucrt:environment_initialization.obj
 0002:0000dc74       $unwind$__scrt_dllmain_uninitialize_critical 000000018003ec74     LIBCMT:utility.obj
 0002:0000dc74       $unwind$__scrt_dllmain_uninitialize_c 000000018003ec74     LIBCMT:utility.obj
 0002:0000dc74       $unwind$__scrt_dllmain_after_initialize_c 000000018003ec74     LIBCMT:utility.obj
 0002:0000dc7c       $unwind$?StopPipeServer@?$PipeServer@UCESERVER_REQ@@@@QEAAX_NAEA_N@Z 000000018003ec7c     PluginSrv.obj
 0002:0000dc7c       $unwind$?SetupExportsFar3@@YAXXZ 000000018003ec7c     ConEmuPlugin.obj
 0002:0000dc98       $unwind$?SetDcPanelRect@CPluginBackground@@IEAAXPEAUtagRECT@@PEAUBkPanelInfo@@PEAUPaintBackgroundArg@@@Z 000000018003ec98     PluginBackground.obj
 0002:0000dc98       $unwind$?Color2BgIndex@Far3Color@@SAXKHAEAGPEBK@Z 000000018003ec98     ConEmuPlugin1900.obj
 0002:0000dca4       $unwind$?FarColor_3_2@@YAEAEBUFarColor@@_N@Z 000000018003eca4     ConEmuPlugin1900.obj
 0002:0000dca4       $unwind$?parse_int_from_format_string@?$output_processor@_WV?$string_output_adapter@_W@__crt_stdio_output@@V?$standard_base@_WV?$string_output_adapter@_W@__crt_stdio_output@@@2@@__crt_stdio_output@@AEAA_NQEAH@Z 000000018003eca4     libucrt:output.obj
 0002:0000dcb8       $unwind$??0CPluginW2800@@QEAA@XZ 000000018003ecb8     ConEmuPlugin2800.obj
 0002:0000dcb8       $unwind$??0CPluginW1900@@QEAA@XZ 000000018003ecb8     ConEmuPlugin1900.obj
 0002:0000dcc8       $unwind$strtol             000000018003ecc8     libucrt:strtox.obj
 0002:0000dcc8       $unwind$?ExitFar@CPluginW995@@UEAAXXZ 000000018003ecc8     ConEmuPlugin995.obj
 0002:0000dcc8       $unwind$??0length_error@std@@QEAA@PEBD@Z 000000018003ecc8     libcpmt:xthrow.obj
 0002:0000dcc8       $unwind$?ExitFar@CPluginW1900@@UEAAXXZ 000000018003ecc8     ConEmuPlugin1900.obj
 0002:0000dcc8       $unwind$?ExitFar@CPluginW2800@@UEAAXXZ 000000018003ecc8     ConEmuPlugin2800.obj
 0002:0000dcc8       $unwind$wcstol             000000018003ecc8     libucrt:strtox.obj
 0002:0000dcd0       $unwind$?GetEditorModifiedState@CPluginAnsi@@UEAAKXZ 000000018003ecd0     ConEmuPluginA.obj
 0002:0000dcd0       $unwind$?GetEditorModifiedState@CPluginW1900@@UEAAKXZ 000000018003ecd0     ConEmuPlugin1900.obj
 0002:0000dce0       $unwind$?Open@CPluginW2800@@UEAAPEAXPEBX@Z 000000018003ece0     ConEmuPlugin2800.obj
 0002:0000dce0       $unwind$?LoadFarColors@CPluginW2800@@UEAAXAEAY0BAA@E@Z 000000018003ece0     ConEmuPlugin2800.obj
 0002:0000dce0       $unwind$?ToOem@CPluginBase@@SAPEADPEB_W@Z 000000018003ece0     ConEmuPluginBase.obj
 0002:0000dce0       $unwind$?apiSetCurrentConsoleFontEx@@YAHPEAXHPEAUMY_CONSOLE_FONT_INFOEX@@@Z 000000018003ece0     common-kernel64:WConsole.obj
 0002:0000dce0       $unwind$??0MWow64Disable@@QEAA@XZ 000000018003ece0     ConEmuPluginBase.obj
 0002:0000dce0       $unwind$?apiGetCurrentConsoleFontEx@@YAHPEAXHPEAUMY_CONSOLE_FONT_INFOEX@@@Z 000000018003ece0     common-kernel64:WConsole.obj
 0002:0000dce0       $unwind$?ProcessEditorViewerEvent@CPluginBase@@QEAAHHH@Z 000000018003ece0     ConEmuPluginBase.obj
 0002:0000dce0       $unwind$??$common_lseek_nolock@_J@@YA_JH_JH@Z 000000018003ece0     libucrt:lseek.obj
 0002:0000dce0       $unwind$_DllMainCRTStartup 000000018003ece0     LIBCMT:dll_dllmain.obj
 0002:0000dce0       $unwind$?CatchTryBlock@__FrameHandler3@@SAPEBU_s_TryBlockMapEntry@@PEBU_s_FuncInfo@@H@Z 000000018003ece0     libvcruntime:risctrnsctrl.obj
 0002:0000dce0       $unwind$?FrameUnwindToEmptyState@__FrameHandler3@@SAXPEA_KPEAU_xDISPATCHER_CONTEXT@@PEBU_s_FuncInfo@@@Z 000000018003ece0     libvcruntime:risctrnsctrl.obj
 0002:0000dce0       $unwind$?OutDataRealloc@CPluginBase@@SA_NK@Z 000000018003ece0     ConEmuPluginBase.obj
 0002:0000dce0       $unwind$?LoadFarColors@CPluginW1900@@UEAAXAEAY0BAA@E@Z 000000018003ece0     ConEmuPlugin1900.obj
 0002:0000dce0       $unwind$?SetRootRegKey@CPluginBase@@IEAAXPEA_W@Z 000000018003ece0     ConEmuPluginBase.obj
 0002:0000dce0       $unwind$??R<lambda_ad1ced32f4ac17aa236e5ef05d6b3b7c>@@QEBAXXZ 000000018003ece0     libucrt:mbctype.obj
 0002:0000dce0       $unwind$?OutDataWrite@CPluginBase@@SA_NPEAXK@Z 000000018003ece0     ConEmuPluginBase.obj
 0002:0000dce0       $unwind$_initterm_e        000000018003ece0     libucrt:initterm.obj
 0002:0000dce0       $unwind$__acrt_FlsSetValue 000000018003ece0     libucrt:winapi_thunks.obj
 0002:0000dce0       $unwind$memcpy_s           000000018003ece0     libucrt:cfout.obj
 0002:0000dce0       $unwind$?IsEnvBlockVariableValid@@YA_NPEB_WAEAPEB_W@Z 000000018003ece0     common-kernel64:Common.obj
 0002:0000dce0       $unwind$__vcrt_InitializeCriticalSectionEx 000000018003ece0     libvcruntime:winapi_downlevel.obj
 0002:0000dce0       $unwind$__acrt_execute_uninitializers 000000018003ece0     libucrt:shared_initialization.obj
 0002:0000dce0       $unwind$?CheckPanelFolders@CPluginBackground@@IEAAXH@Z 000000018003ece0     PluginBackground.obj
 0002:0000dce0       $unwind$?GetMsg@CPluginW1900@@UEAAPEB_WHPEA_W_K@Z 000000018003ece0     ConEmuPlugin1900.obj
 0002:0000dce0       $unwind$?Unquote@@YAPEB_WPEA_W_N@Z 000000018003ece0     common-kernel64:CmdLine.obj
 0002:0000dce0       $unwind$_exception_enabled 000000018003ece0     libucrt:libm_error.obj
 0002:0000dce0       $unwind$?AttachInt@CEStr@@AEAAPEB_WAEAPEA_W@Z 000000018003ece0     common-kernel64:CEStr.obj
 0002:0000dce0       $unwind$?type_case_n@?$output_processor@_WV?$string_output_adapter@_W@__crt_stdio_output@@V?$standard_base@_WV?$string_output_adapter@_W@__crt_stdio_output@@@2@@__crt_stdio_output@@AEAA_NXZ 000000018003ece0     libucrt:output.obj
 0002:0000dce0       $unwind$?GetMsg@CPluginW995@@UEAAPEB_WHPEA_W_K@Z 000000018003ece0     ConEmuPlugin995.obj
 0002:0000dce0       $unwind$?type_case_s@?$output_processor@_WV?$string_output_adapter@_W@__crt_stdio_output@@V?$standard_base@_WV?$string_output_adapter@_W@__crt_stdio_output@@@2@@__crt_stdio_output@@AEAA_NXZ 000000018003ece0     libucrt:output.obj
 0002:0000dce0       $unwind$__vcrt_getptd_noexit 000000018003ece0     libvcruntime:per_thread_data.obj
 0002:0000dce0       $unwind$?FillLoadedParm@CPluginBase@@SAXPEAUConEmuLoadedArg@@PEAUHINSTANCE__@@H@Z 000000018003ece0     ConEmuPluginBase.obj
 0002:0000dce0       $unwind$?type_case_Z@?$output_processor@_WV?$string_output_adapter@_W@__crt_stdio_output@@V?$standard_base@_WV?$string_output_adapter@_W@__crt_stdio_output@@@2@@__crt_stdio_output@@AEAA_NXZ 000000018003ece0     libucrt:output.obj
 0002:0000dce0       $unwind$?cmd_SetWindow@CPluginBase@@QEAA_NPEAX_N@Z 000000018003ece0     ConEmuPluginBase.obj
 0002:0000dce0       $unwind$__acrt_stdio_flush_nolock 000000018003ece0     libucrt:fflush.obj
 0002:0000dce0       $unwind$__acrt_LocaleNameToLCID 000000018003ece0     libucrt:winapi_thunks.obj
 0002:0000dce0       $unwind$?GetMsg@CPluginW2800@@UEAAPEB_WHPEA_W_K@Z 000000018003ece0     ConEmuPlugin2800.obj
 0002:0000dce0       $unwind$?ReallocItems@CPluginBackground@@IEAAXH@Z 000000018003ece0     PluginBackground.obj
 0002:0000dce0       $unwind$?free_crt_array_internal@@YAXQEAPEBX_K@Z 000000018003ece0     libucrt:inittime.obj
 0002:0000dce0       $unwind$?type_case_n@?$output_processor@DV?$string_output_adapter@D@__crt_stdio_output@@V?$standard_base@DV?$string_output_adapter@D@__crt_stdio_output@@@2@@__crt_stdio_output@@AEAA_NXZ 000000018003ece0     libucrt:output.obj
 0002:0000dce0       $unwind$?type_case_s@?$output_processor@DV?$string_output_adapter@D@__crt_stdio_output@@V?$standard_base@DV?$string_output_adapter@D@__crt_stdio_output@@@2@@__crt_stdio_output@@AEAA_NXZ 000000018003ece0     libucrt:output.obj
 0002:0000dce0       $unwind$?type_case_Z@?$output_processor@DV?$string_output_adapter@D@__crt_stdio_output@@V?$standard_base@DV?$string_output_adapter@D@__crt_stdio_output@@@2@@__crt_stdio_output@@AEAA_NXZ 000000018003ece0     libucrt:output.obj
 0002:0000dce0       $unwind$__acrt_getptd_noexit 000000018003ece0     libucrt:per_thread_data.obj
 0002:0000dcf0       $unwind$?GetPanelInfo@CPluginW1900@@UEAA_NKPEAUCEPanelInfo@@@Z 000000018003ecf0     ConEmuPlugin1900.obj
 0002:0000dcf0       $unwind$?GetPanelInfo@CPluginW2800@@UEAA_NKPEAUCEPanelInfo@@@Z 000000018003ecf0     ConEmuPlugin2800.obj
 0002:0000dd10       $unwind$?GetPanelItemInfo@CPluginW1900@@UEAA_NAEBUCEPanelInfo@@_N_JAEAU_WIN32_FIND_DATAW@@PEAPEA_W@Z 000000018003ed10     ConEmuPlugin1900.obj
 0002:0000dd24       $unwind$?GetPanelDir@CPluginW1900@@UEAAPEA_WKPEA_WH@Z 000000018003ed24     ConEmuPlugin1900.obj
 0002:0000dd24       $unwind$?GetPanelDir@CPluginW2800@@UEAAPEA_WKPEA_WH@Z 000000018003ed24     ConEmuPlugin2800.obj
 0002:0000dd44       $unwind$?InputBox@CPluginW1900@@UEAA_NPEB_W000AEAPEA_W@Z 000000018003ed44     ConEmuPlugin1900.obj
 0002:0000dd44       $unwind$?InputBox@CPluginW2800@@UEAA_NPEB_W000AEAPEA_W@Z 000000018003ed44     ConEmuPlugin2800.obj
 0002:0000dd58       $unwind$?LoadFarSettings@CPluginW2800@@UEAAXPEAUCEFarInterfaceSettings@@PEAUCEFarPanelSettings@@@Z 000000018003ed58     ConEmuPlugin2800.obj
 0002:0000dd58       $unwind$?LoadFarSettings@CPluginW1900@@UEAAXPEAUCEFarInterfaceSettings@@PEAUCEFarPanelSettings@@@Z 000000018003ed58     ConEmuPlugin1900.obj
 0002:0000dd70       $unwind$?OpenEditor@CPluginW2800@@UEAA_NPEB_W_N11HH@Z 000000018003ed70     ConEmuPlugin2800.obj
 0002:0000dd70       $unwind$?OpenEditor@CPluginW1900@@UEAA_NPEB_W_N11HH@Z 000000018003ed70     ConEmuPlugin1900.obj
 0002:0000dd70       $unwind$?OpenEditor@CPluginW995@@UEAA_NPEB_W_N11HH@Z 000000018003ed70     ConEmuPlugin995.obj
 0002:0000dd80       $unwind$?PanelControlApi@CPluginW2800@@UEAA_JPEAXH_J0@Z 000000018003ed80     ConEmuPlugin2800.obj
 0002:0000dd80       $unwind$__GSHandlerCheckCommon 000000018003ed80     LIBCMT:gshandler.obj
 0002:0000dd80       $unwind$?PanelControlApi@CPluginW1900@@UEAA_JPEAXH_J0@Z 000000018003ed80     ConEmuPlugin1900.obj
 0002:0000dd88       $unwind$?PostMacroApi@CPluginW1900@@UEAAXPEB_WPEAU_INPUT_RECORD@@_N@Z 000000018003ed88     ConEmuPlugin1900.obj
 0002:0000ddac       $unwind$?SetStartupInfoPtr@CPluginW2800@@UEAAXPEAX@Z 000000018003edac     ConEmuPlugin2800.obj
 0002:0000ddac       $unwind$?SetStartupInfoPtr@CPluginW1900@@UEAAXPEAX@Z 000000018003edac     ConEmuPlugin1900.obj
 0002:0000ddc8       $unwind$__dcrt_lowio_initialize_console_output 000000018003edc8     libucrt:initcon.obj
 0002:0000ddc8       $unwind$?ToOem@CPluginBase@@SAXPEB_WPEAD_J@Z 000000018003edc8     ConEmuPluginBase.obj
 0002:0000ddc8       $unwind$?ShowMessage@CPluginW2800@@UEAAHPEB_WH_N@Z 000000018003edc8     ConEmuPlugin2800.obj
 0002:0000ddc8       $unwind$?_Xlength_error@std@@YAXPEBD@Z 000000018003edc8     libcpmt:xthrow.obj
 0002:0000ddc8       $unwind$_raise_exc         000000018003edc8     libucrt:fpexcept.obj
 0002:0000ddc8       $unwind$?ShowMessage@CPluginW1900@@UEAAHPEB_WH_N@Z 000000018003edc8     ConEmuPlugin1900.obj
 0002:0000ddd0       $unwind$?ShowPluginMenu@CPluginW2800@@UEAAHPEAUConEmuPluginMenuItem@@HH@Z 000000018003edd0     ConEmuPlugin2800.obj
 0002:0000ddd0       $unwind$?ShowPluginMenu@CPluginW1900@@UEAAHPEAUConEmuPluginMenuItem@@HH@Z 000000018003edd0     ConEmuPlugin1900.obj
 0002:0000dde8       $unwind$?UpdateConEmuTabsApi@CPluginW1900@@UEAA_NH@Z 000000018003ede8     ConEmuPlugin1900.obj
 0002:0000de10       $unwind$?GetFarSetting@@YAHPEAX_KPEB_W@Z 000000018003ee10     ConEmuPlugin2800.obj
 0002:0000de10       $unwind$_call_matherr      000000018003ee10     libucrt:libm_error.obj
 0002:0000de10       $unwind$?GetFarSetting@@YAHPEAX_KPEB_W@Z 000000018003ee10     ConEmuPlugin1900.obj
 0002:0000de18       $unwind$?CallGuiMacroDlg@@YA_JPEAXHH0@Z 000000018003ee18     ConEmuPlugin1900.obj
 0002:0000de38       $unwind$?CallGuiMacroProc@@YAXXZ 000000018003ee38     ConEmuPlugin1900.obj
 0002:0000de58       $unwind$GetGlobalInfoW     000000018003ee58     ConEmuPlugin2800.obj
 0002:0000de60       $unwind$?GetEditorModifiedState@CPluginW2800@@UEAAKXZ 000000018003ee60     ConEmuPlugin2800.obj
 0002:0000de70       $unwind$__acrt_LCMapStringEx 000000018003ee70     libucrt:winapi_thunks.obj
 0002:0000de70       $unwind$?GetPanelItemInfo@CPluginW2800@@UEAA_NAEBUCEPanelInfo@@_N_JAEAU_WIN32_FIND_DATAW@@PEAPEA_W@Z 000000018003ee70     ConEmuPlugin2800.obj
 0002:0000de70       $unwind$_mbtowc_l          000000018003ee70     libucrt:mbtowc.obj
 0002:0000de70       $unwind$??$__InternalCxxFrameHandler@V__FrameHandler3@@@@YA?AW4_EXCEPTION_DISPOSITION@@PEAUEHExceptionRecord@@PEA_KPEAU_CONTEXT@@PEAU_xDISPATCHER_CONTEXT@@PEBU_s_FuncInfo@@H1E@Z 000000018003ee70     libvcruntime:frame.obj
 0002:0000de88       $unwind$?PostMacroApi@CPluginW2800@@UEAAXPEB_WPEAU_INPUT_RECORD@@_N@Z 000000018003ee88     ConEmuPlugin2800.obj
 0002:0000deac       $unwind$?SetWindow@CPluginW2800@@UEAAXH@Z 000000018003eeac     ConEmuPlugin2800.obj
 0002:0000dec4       $stateUnwindMap$?SetWindow@CPluginW2800@@UEAAXH@Z 000000018003eec4     ConEmuPlugin2800.obj
 0002:0000ded8       $ip2state$?SetWindow@CPluginW2800@@UEAAXH@Z 000000018003eed8     ConEmuPlugin2800.obj
 0002:0000def8       $unwind$?UpdateConEmuTabsApi@CPluginW2800@@UEAA_NH@Z 000000018003eef8     ConEmuPlugin2800.obj
 0002:0000df48       $stateUnwindMap$?UpdateConEmuTabsApi@CPluginW2800@@UEAA_NH@Z 000000018003ef48     ConEmuPlugin2800.obj
 0002:0000df60       $ip2state$?UpdateConEmuTabsApi@CPluginW2800@@UEAA_NH@Z 000000018003ef60     ConEmuPlugin2800.obj
 0002:0000df90       $unwind$?insert@?$vector@UWindowInfo@@V?$MArrayAllocator@UWindowInfo@@@@@std@@QEAA?AV?$_Vector_iterator@V?$_Vector_val@U?$_Simple_types@UWindowInfo@@@std@@@std@@@2@V?$_Vector_const_iterator@V?$_Vector_val@U?$_Simple_types@UWindowInfo@@@std@@@std@@@2@_KAEBUWindowInfo@@@Z 000000018003ef90     ConEmuPlugin2800.obj
 0002:0000dfac       $stateUnwindMap$?insert@?$vector@UWindowInfo@@V?$MArrayAllocator@UWindowInfo@@@@@std@@QEAA?AV?$_Vector_iterator@V?$_Vector_val@U?$_Simple_types@UWindowInfo@@@std@@@std@@@2@V?$_Vector_const_iterator@V?$_Vector_val@U?$_Simple_types@UWindowInfo@@@std@@@std@@@2@_KAEBUWindowInfo@@@Z 000000018003efac     ConEmuPlugin2800.obj
 0002:0000dfac       $stateUnwindMap$??$_Emplace_reallocate@AEBUWindowInfo@@@?$vector@UWindowInfo@@V?$MArrayAllocator@UWindowInfo@@@@@std@@QEAAPEAUWindowInfo@@QEAU2@AEBU2@@Z 000000018003efac     ConEmuPlugin2800.obj
 0002:0000dfbc       $tryMap$?insert@?$vector@UWindowInfo@@V?$MArrayAllocator@UWindowInfo@@@@@std@@QEAA?AV?$_Vector_iterator@V?$_Vector_val@U?$_Simple_types@UWindowInfo@@@std@@@std@@@2@V?$_Vector_const_iterator@V?$_Vector_val@U?$_Simple_types@UWindowInfo@@@std@@@std@@@2@_KAEBUWindowInfo@@@Z 000000018003efbc     ConEmuPlugin2800.obj
 0002:0000dfd0       $handlerMap$0$?insert@?$vector@UWindowInfo@@V?$MArrayAllocator@UWindowInfo@@@@@std@@QEAA?AV?$_Vector_iterator@V?$_Vector_val@U?$_Simple_types@UWindowInfo@@@std@@@std@@@2@V?$_Vector_const_iterator@V?$_Vector_val@U?$_Simple_types@UWindowInfo@@@std@@@std@@@2@_KAEBUWindowInfo@@@Z 000000018003efd0     ConEmuPlugin2800.obj
 0002:0000dfe8       $ip2state$?insert@?$vector@UWindowInfo@@V?$MArrayAllocator@UWindowInfo@@@@@std@@QEAA?AV?$_Vector_iterator@V?$_Vector_val@U?$_Simple_types@UWindowInfo@@@std@@@std@@@2@V?$_Vector_const_iterator@V?$_Vector_val@U?$_Simple_types@UWindowInfo@@@std@@@std@@@2@_KAEBUWindowInfo@@@Z 000000018003efe8     ConEmuPlugin2800.obj
 0002:0000dff8       $unwind$?catch$0@?0??insert@?$vector@UWindowInfo@@V?$MArrayAllocator@UWindowInfo@@@@@std@@QEAA?AV?$_Vector_iterator@V?$_Vector_val@U?$_Simple_types@UWindowInfo@@@std@@@std@@@2@V?$_Vector_const_iterator@V?$_Vector_val@U?$_Simple_types@UWindowInfo@@@std@@@std@@@2@_KAEBUWindowInfo@@@Z@4HA 000000018003eff8     ConEmuPlugin2800.obj
 0002:0000e008       $unwind$?erase@?$MArray@UWindowInfo@@@@QEAAX_J0@Z 000000018003f008     ConEmuPlugin2800.obj
 0002:0000e018       $unwind$??1?$MArray@UWindowInfo@@@@QEAA@XZ 000000018003f018     ConEmuPlugin2800.obj
 0002:0000e028       $stateUnwindMap$?__scrt_initialize_thread_safe_statics@@YAHXZ 000000018003f028     LIBCMT:thread_safe_statics.obj
 0002:0000e028       $stateUnwindMap$??1?$MArray@UWindowInfo@@@@QEAA@XZ 000000018003f028     ConEmuPlugin2800.obj
 0002:0000e030       $ip2state$??1?$MArray@UWindowInfo@@@@QEAA@XZ 000000018003f030     ConEmuPlugin2800.obj
 0002:0000e038       $unwind$?WLoadWindows@@YA_JAEAV?$MArray@UWindowInfo@@@@H@Z 000000018003f038     ConEmuPlugin2800.obj
 0002:0000e050       $unwind$?CallGuiMacroDlg@@YA_JPEAX_J10@Z 000000018003f050     ConEmuPlugin2800.obj
 0002:0000e06c       $unwind$?CallGuiMacroProc@@YAXXZ 000000018003f06c     ConEmuPlugin2800.obj
 0002:0000e090       $unwind$??$_Emplace_reallocate@AEBUWindowInfo@@@?$vector@UWindowInfo@@V?$MArrayAllocator@UWindowInfo@@@@@std@@QEAAPEAUWindowInfo@@QEAU2@AEBU2@@Z 000000018003f090     ConEmuPlugin2800.obj
 0002:0000e0ac       $tryMap$??$_Emplace_reallocate@AEBUWindowInfo@@@?$vector@UWindowInfo@@V?$MArrayAllocator@UWindowInfo@@@@@std@@QEAAPEAUWindowInfo@@QEAU2@AEBU2@@Z 000000018003f0ac     ConEmuPlugin2800.obj
 0002:0000e0c0       $handlerMap$0$??$_Emplace_reallocate@AEBUWindowInfo@@@?$vector@UWindowInfo@@V?$MArrayAllocator@UWindowInfo@@@@@std@@QEAAPEAUWindowInfo@@QEAU2@AEBU2@@Z 000000018003f0c0     ConEmuPlugin2800.obj
 0002:0000e0d8       $ip2state$??$_Emplace_reallocate@AEBUWindowInfo@@@?$vector@UWindowInfo@@V?$MArrayAllocator@UWindowInfo@@@@@std@@QEAAPEAUWindowInfo@@QEAU2@AEBU2@@Z 000000018003f0d8     ConEmuPlugin2800.obj
 0002:0000e0e8       $unwind$?catch$0@?0???$_Emplace_reallocate@AEBUWindowInfo@@@?$vector@UWindowInfo@@V?$MArrayAllocator@UWindowInfo@@@@@std@@QEAAPEAUWindowInfo@@QEAU2@AEBU2@@Z@4HA 000000018003f0e8     ConEmuPlugin2800.obj
 0002:0000e0f8       $unwind$??0CPluginW995@@QEAA@XZ 000000018003f0f8     ConEmuPlugin995.obj
 0002:0000e114       $stateUnwindMap$??0CPluginAnsi@@QEAA@XZ 000000018003f114     ConEmuPluginA.obj
 0002:0000e114       $stateUnwindMap$??0CPluginW995@@QEAA@XZ 000000018003f114     ConEmuPlugin995.obj
 0002:0000e120       $ip2state$??0CPluginW995@@QEAA@XZ 000000018003f120     ConEmuPlugin995.obj
 0002:0000e130       $unwind$?GetActiveWindowType@CPluginW995@@UEAAHXZ 000000018003f130     ConEmuPlugin995.obj
 0002:0000e130       $unwind$?GetMacroArea@CPluginW995@@UEAAHXZ 000000018003f130     ConEmuPlugin995.obj
 0002:0000e130       $unwind$?IsMacroActive@CPluginW995@@UEAA_NXZ 000000018003f130     ConEmuPlugin995.obj
 0002:0000e130       $unwind$?IsMacroActive@CPluginAnsi@@UEAA_NXZ 000000018003f130     ConEmuPluginA.obj
 0002:0000e140       $unwind$?GetEditorModifiedState@CPluginW995@@UEAAKXZ 000000018003f140     ConEmuPlugin995.obj
 0002:0000e150       $unwind$?GetPanelInfo@CPluginW995@@UEAA_NKPEAUCEPanelInfo@@@Z 000000018003f150     ConEmuPlugin995.obj
 0002:0000e16c       $unwind$?GetPanelItemInfo@CPluginW995@@UEAA_NAEBUCEPanelInfo@@_N_JAEAU_WIN32_FIND_DATAW@@PEAPEA_W@Z 000000018003f16c     ConEmuPlugin995.obj
 0002:0000e180       $unwind$?GetPanelDir@CPluginW995@@UEAAPEA_WKPEA_WH@Z 000000018003f180     ConEmuPlugin995.obj
 0002:0000e19c       $unwind$?InputBox@CPluginW995@@UEAA_NPEB_W000AEAPEA_W@Z 000000018003f19c     ConEmuPlugin995.obj
 0002:0000e1b4       $unwind$?LoadFarColors@CPluginAnsi@@UEAAXAEAY0BAA@E@Z 000000018003f1b4     ConEmuPluginA.obj
 0002:0000e1b4       $unwind$?LoadFarColors@CPluginW995@@UEAAXAEAY0BAA@E@Z 000000018003f1b4     ConEmuPlugin995.obj
 0002:0000e1cc       $unwind$?PostMacroApi@CPluginW995@@UEAAXPEB_WPEAU_INPUT_RECORD@@_N@Z 000000018003f1cc     ConEmuPlugin995.obj
 0002:0000e1cc       $unwind$strpbrk            000000018003f1cc     libucrt:strpbrk.obj
 0002:0000e1dc       $unwind$?SetStartupInfoPtr@CPluginAnsi@@UEAAXPEAX@Z 000000018003f1dc     ConEmuPluginA.obj
 0002:0000e1dc       $unwind$?SetStartupInfoPtr@CPluginW995@@UEAAXPEAX@Z 000000018003f1dc     ConEmuPlugin995.obj
 0002:0000e1f0       $unwind$?ShowPluginMenu@CPluginW995@@UEAAHPEAUConEmuPluginMenuItem@@HH@Z 000000018003f1f0     ConEmuPlugin995.obj
 0002:0000e208       $unwind$?UpdateConEmuTabsApi@CPluginW995@@UEAA_NH@Z 000000018003f208     ConEmuPlugin995.obj
 0002:0000e22c       $unwind$?WaitEndSynchro@CPluginW995@@UEAAXXZ 000000018003f22c     ConEmuPlugin995.obj
 0002:0000e240       $unwind$?CallGuiMacroDlg@@YA_JPEAXHH_J@Z 000000018003f240     ConEmuPlugin995.obj
 0002:0000e25c       $unwind$?CallGuiMacroProc@@YAXXZ 000000018003f25c     ConEmuPlugin995.obj
 0002:0000e27c       $unwind$??0CPluginAnsi@@QEAA@XZ 000000018003f27c     ConEmuPluginA.obj
 0002:0000e290       $ip2state$??0CPluginAnsi@@QEAA@XZ 000000018003f290     ConEmuPluginA.obj
 0002:0000e2a0       $unwind$?GetActiveWindowType@CPluginAnsi@@UEAAHXZ 000000018003f2a0     ConEmuPluginA.obj
 0002:0000e2b4       $unwind$?InitName@?$MFileMapping@UPanelViewSetMapping@@@@QEAAPEB_WPEB_WKK@Z 000000018003f2b4     PluginBackground.obj
 0002:0000e2b4       $unwind$?GetMsg@CPluginAnsi@@UEAAPEB_WHPEA_W_K@Z 000000018003f2b4     ConEmuPluginA.obj
 0002:0000e2b4       $unwind$?InitName@?$MFileMapping@UConEmuGuiMapping@@@@QEAAPEB_WPEB_WKK@Z 000000018003f2b4     common-kernel64:ConEmuCheck.obj
 0002:0000e2b4       $unwind$?cmd_RedrawFarCall@CPluginBase@@QEAA_NAEAPEAUCESERVER_REQ@@PEAPEAU2@@Z 000000018003f2b4     ConEmuPluginBase.obj
 0002:0000e2b4       $unwind$?InitName@?$MFileMapping@UCESERVER_CONSOLE_MAPPING_HDR@@@@QEAAPEB_WPEB_WKK@Z 000000018003f2b4     ConEmuPluginBase.obj
 0002:0000e2c8       $unwind$?GetPanelDir@CPluginAnsi@@UEAAPEA_WKPEA_WH@Z 000000018003f2c8     ConEmuPluginA.obj
 0002:0000e2e4       $unwind$?GetPanelInfo@CPluginAnsi@@UEAA_NKPEAUCEPanelInfo@@@Z 000000018003f2e4     ConEmuPluginA.obj
 0002:0000e308       $unwind$?GetPanelItemInfo@CPluginAnsi@@UEAA_NAEBUCEPanelInfo@@_N_JAEAU_WIN32_FIND_DATAW@@PEAPEA_W@Z 000000018003f308     ConEmuPluginA.obj
 0002:0000e308       $unwind$?_VerifyVersionInfo@@YA_NPEAU_OSVERSIONINFOEXW@@K_K@Z 000000018003f308     common-kernel64:WObjects.obj
 0002:0000e308       $unwind$?ToUnicode@CPluginBase@@SAPEA_WPEBD@Z 000000018003f308     ConEmuPluginBase.obj
 0002:0000e318       $unwind$?InputBox@CPluginAnsi@@UEAA_NPEB_W000AEAPEA_W@Z 000000018003f318     ConEmuPluginA.obj
 0002:0000e33c       $unwind$?OpenEditor@CPluginAnsi@@UEAA_NPEB_W_N11HH@Z 000000018003f33c     ConEmuPluginA.obj
 0002:0000e358       $unwind$?PostMacroApi@CPluginAnsi@@UEAAXPEB_WPEAU_INPUT_RECORD@@_N@Z 000000018003f358     ConEmuPluginA.obj
 0002:0000e36c       $unwind$?apiCreateThread@@YAPEAXP6AKPEAX@Z0PEAKPEBDH@Z 000000018003f36c     common-kernel64:WThreads.obj
 0002:0000e36c       $unwind$?StringCchVPrintfA@@YAJPEAD_KPEBD0@Z 000000018003f36c     common-kernel64:MStrSafe.obj
 0002:0000e36c       $unwind$?PanelControl@CPluginBase@@QEAA_JPEAXH_J0@Z 000000018003f36c     ConEmuPluginBase.obj
 0002:0000e36c       $unwind$?OnWriteConsoleOutput@CPluginBase@@SAHPEAUHookCallbackArg@@@Z 000000018003f36c     ConEmuPluginBase.obj
 0002:0000e36c       $unwind$?ShowMessage@CPluginAnsi@@UEAAHPEB_WH_N@Z 000000018003f36c     ConEmuPluginA.obj
 0002:0000e36c       $unwind$_invalid_parameter 000000018003f36c     libucrt:invalid_parameter.obj
 0002:0000e384       $unwind$?ShowPluginMenu@CPluginAnsi@@UEAAHPEAUConEmuPluginMenuItem@@HH@Z 000000018003f384     ConEmuPluginA.obj
 0002:0000e3a0       $unwind$?UpdateConEmuTabsApi@CPluginAnsi@@UEAA_NH@Z 000000018003f3a0     ConEmuPluginA.obj
 0002:0000e3c8       $unwind$?CallGuiMacroDlg@@YA_JPEAXHH_J@Z 000000018003f3c8     ConEmuPluginA.obj
 0002:0000e3e4       $unwind$?CallGuiMacroProc@@YAXXZ 000000018003f3e4     ConEmuPluginA.obj
 0002:0000e404       $unwind$?InitRootRegKey@CPluginBase@@IEAAXXZ 000000018003f404     ConEmuPluginBase.obj
 0002:0000e420       $unwind$?DllMain_ProcessAttach@CPluginBase@@KAXPEAUHINSTANCE__@@@Z 000000018003f420     ConEmuPluginBase.obj
 0002:0000e430       $stateUnwindMap$?DllMain_ProcessAttach@CPluginBase@@KAXPEAUHINSTANCE__@@@Z 000000018003f430     ConEmuPluginBase.obj
 0002:0000e440       $ip2state$?DllMain_ProcessAttach@CPluginBase@@KAXPEAUHINSTANCE__@@@Z 000000018003f440     ConEmuPluginBase.obj
 0002:0000e468       $unwind$?DllCheckUnique@CPluginBase@@KA_N_N@Z 000000018003f468     ConEmuPluginBase.obj
 0002:0000e494       $stateUnwindMap$?DllCheckUnique@CPluginBase@@KA_N_N@Z 000000018003f494     ConEmuPluginBase.obj
 0002:0000e4a8       $ip2state$?DllCheckUnique@CPluginBase@@KA_N_N@Z 000000018003f4a8     ConEmuPluginBase.obj
 0002:0000e4d0       $unwind$?ShowProtocolWarning@CPluginBase@@KAXXZ 000000018003f4d0     ConEmuPluginBase.obj
 0002:0000e4e8       $stateUnwindMap$?ShowProtocolWarning@CPluginBase@@KAXXZ 000000018003f4e8     ConEmuPluginBase.obj
 0002:0000e4f0       $ip2state$?ShowProtocolWarning@CPluginBase@@KAXXZ 000000018003f4f0     ConEmuPluginBase.obj
 0002:0000e508       $unwind$?ShowMessageBox@CPluginBase@@KAHPEB_WI@Z 000000018003f508     ConEmuPluginBase.obj
 0002:0000e524       $unwind$?ShowMessageGui@CPluginBase@@QEAAHHH@Z 000000018003f524     ConEmuPluginBase.obj
 0002:0000e53c       $unwind$?UpdatePanelDirs@CPluginBase@@QEAAXXZ 000000018003f53c     ConEmuPluginBase.obj
 0002:0000e55c       $unwind$?IsInExceptionSpec@@YAEPEAUEHExceptionRecord@@PEBU_s_ESTypeList@@@Z 000000018003f55c     libvcruntime:frame.obj
 0002:0000e55c       $unwind$?write_string@?$string_output_adapter@_W@__crt_stdio_output@@QEBAXQEB_WHQEAH1@Z 000000018003f55c     libucrt:output.obj
 0002:0000e55c       $unwind$?StorePanelDirs@CPluginBase@@QEAA_NPEB_W0@Z 000000018003f55c     ConEmuPluginBase.obj
 0002:0000e55c       $unwind$?try_get_function@@YAPEAXW4function_id@?A0xbfd18cd1@@QEBDQEBW4module_id@2@2@Z 000000018003f55c     libvcruntime:winapi_downlevel.obj
 0002:0000e55c       $unwind$?try_get_function@@YAPEAXW4function_id@?A0x63058377@@QEBDQEBW4module_id@2@2@Z 000000018003f55c     libucrt:winapi_thunks.obj
 0002:0000e578       $unwind$?RunExternalProgram@CPluginBase@@QEAA_NPEA_W@Z 000000018003f578     ConEmuPluginBase.obj
 0002:0000e598       $stateUnwindMap$?RunExternalProgram@CPluginBase@@QEAA_NPEA_W@Z 000000018003f598     ConEmuPluginBase.obj
 0002:0000e5b0       $ip2state$?RunExternalProgram@CPluginBase@@QEAA_NPEA_W@Z 000000018003f5b0     ConEmuPluginBase.obj
 0002:0000e5d8       $unwind$?ShowPluginMenu@CPluginBase@@QEAAXW4PluginCallCommands@@@Z 000000018003f5d8     ConEmuPluginBase.obj
 0002:0000e5f8       $unwind$?ShowConsoleInfo@CPluginBase@@QEAAXXZ 000000018003f5f8     ConEmuPluginBase.obj
 0002:0000e620       $unwind$?StartDebugger@CPluginBase@@QEAA_NXZ 000000018003f620     ConEmuPluginBase.obj
 0002:0000e644       $unwind$?Attach2Gui@CPluginBase@@QEAA_N_N@Z 000000018003f644     ConEmuPluginBase.obj
 0002:0000e668       $unwind$?FindServerCmd@CPluginBase@@QEAA_NKAEAK_N@Z 000000018003f668     ConEmuPluginBase.obj
 0002:0000e684       $unwind$?ShowMessage@CPluginBase@@QEAAHHH@Z 000000018003f684     ConEmuPluginBase.obj
 0002:0000e69c       $unwind$?UpdateConEmuTabs@CPluginBase@@QEAA_N_N@Z 000000018003f69c     ConEmuPluginBase.obj
 0002:0000e6c0       $stateUnwindMap$?UpdateConEmuTabs@CPluginBase@@QEAA_N_N@Z 000000018003f6c0     ConEmuPluginBase.obj
 0002:0000e6c8       $ip2state$?UpdateConEmuTabs@CPluginBase@@QEAA_N_N@Z 000000018003f6c8     ConEmuPluginBase.obj
 0002:0000e6e0       $unwind$?CheckResources@CPluginBase@@QEAAX_N@Z 000000018003f6e0     ConEmuPluginBase.obj
 0002:0000e6fc       $unwind$?InitResources@CPluginBase@@QEAAXXZ 000000018003f6fc     ConEmuPluginBase.obj
 0002:0000e720       $unwind$?OpenPluginCommon@CPluginBase@@QEAAPEAXH_J_N@Z 000000018003f720     ConEmuPluginBase.obj
 0002:0000e738       $unwind$?ProcessSetWindowCommand@CPluginBase@@QEAAXXZ 000000018003f738     ConEmuPluginBase.obj
 0002:0000e74c       $unwind$?CommonPluginStartup@CPluginBase@@QEAAXXZ 000000018003f74c     ConEmuPluginBase.obj
 0002:0000e760       $unwind$?ProcessCommand@CPluginBase@@QEAA_NKHPEAXPEAPEAUCESERVER_REQ@@_N@Z 000000018003f760     ConEmuPluginBase.obj
 0002:0000e784       $stateUnwindMap$?ProcessCommand@CPluginBase@@QEAA_NKHPEAXPEAPEAUCESERVER_REQ@@_N@Z 000000018003f784     ConEmuPluginBase.obj
 0002:0000e784       $stateUnwindMap$?MonitorThreadProcW@CPluginBase@@SAKPEAX@Z 000000018003f784     ConEmuPluginBase.obj
 0002:0000e790       $ip2state$?ProcessCommand@CPluginBase@@QEAA_NKHPEAXPEAPEAUCESERVER_REQ@@_N@Z 000000018003f790     ConEmuPluginBase.obj
 0002:0000e7a8       $unwind$?FarSetConsoleSize@CPluginBase@@SA_NFF@Z 000000018003f7a8     ConEmuPluginBase.obj
 0002:0000e7c4       $unwind$?ReloadFarInfo@CPluginBase@@QEAA_N_N@Z 000000018003f7c4     ConEmuPluginBase.obj
 0002:0000e7e4       $unwind$?FillUpdateBackground@CPluginBase@@QEAAXPEAUPaintBackgroundArg@@@Z 000000018003f7e4     ConEmuPluginBase.obj
 0002:0000e7fc       $unwind$?GetPanelInfo@CPluginBase@@QEAA_NKPEAUBkPanelInfo@@@Z 000000018003f7fc     ConEmuPluginBase.obj
 0002:0000e814       $unwind$?ProcessDragFrom@CPluginBase@@QEAAXXZ 000000018003f814     ConEmuPluginBase.obj
 0002:0000e83c       $unwind$?ProcessDragTo@CPluginBase@@QEAAXXZ 000000018003f83c     ConEmuPluginBase.obj
 0002:0000e860       $unwind$?IsCurrentTabModal@CPluginBase@@QEAA_NXZ 000000018003f860     ConEmuPluginBase.obj
 0002:0000e870       $stateUnwindMap$?CreateTabs@CPluginBase@@SA_NH@Z 000000018003f870     ConEmuPluginBase.obj
 0002:0000e870       $stateUnwindMap$?SendTabs@CPluginBase@@SAXH_N@Z 000000018003f870     ConEmuPluginBase.obj
 0002:0000e870       $stateUnwindMap$?IsCurrentTabModal@CPluginBase@@QEAA_NXZ 000000018003f870     ConEmuPluginBase.obj
 0002:0000e878       $ip2state$?IsCurrentTabModal@CPluginBase@@QEAA_NXZ 000000018003f878     ConEmuPluginBase.obj
 0002:0000e888       $unwind$?ShowTabsList@CPluginBase@@QEAAXXZ 000000018003f888     ConEmuPluginBase.obj
 0002:0000e89c       $unwind$?ShowPanelsList@CPluginBase@@QEAAXXZ 000000018003f89c     ConEmuPluginBase.obj
 0002:0000e8b4       $unwind$?x_ismbbtype_l@@YAHPEAU__crt_locale_pointers@@IHH@Z 000000018003f8b4     libucrt:ismbbyte.obj
 0002:0000e8b4       $unwind$?EditViewConsoleOutput@CPluginBase@@QEAAX_N@Z 000000018003f8b4     ConEmuPluginBase.obj
 0002:0000e8c4       $unwind$?PrintText@CPluginBase@@QEAA_NPEB_W@Z 000000018003f8c4     ConEmuPluginBase.obj
 0002:0000e8dc       $unwind$?cmd_OpenEditorLine@CPluginBase@@QEAA_NPEAUCESERVER_REQ_FAREDITOR@@@Z 000000018003f8dc     ConEmuPluginBase.obj
 0002:0000e8f8       $stateUnwindMap$?cmd_OpenEditorLine@CPluginBase@@QEAA_NPEAUCESERVER_REQ_FAREDITOR@@@Z 000000018003f8f8     ConEmuPluginBase.obj
 0002:0000e900       $ip2state$?cmd_OpenEditorLine@CPluginBase@@QEAA_NPEAUCESERVER_REQ_FAREDITOR@@@Z 000000018003f900     ConEmuPluginBase.obj
 0002:0000e918       $unwind$?cmd_LeftClickSync@CPluginBase@@QEAAXPEAX@Z 000000018003f918     ConEmuPluginBase.obj
 0002:0000e92c       $unwind$?cmd_EMenu@CPluginBase@@QEAAXPEAX@Z 000000018003f92c     ConEmuPluginBase.obj
 0002:0000e948       $unwind$?cmd_ExternalCallback@CPluginBase@@QEAA_NPEAX@Z 000000018003f948     ConEmuPluginBase.obj
 0002:0000e958       $unwind$?cmd_ConSetFont@CPluginBase@@QEAAXPEAX@Z 000000018003f958     ConEmuPluginBase.obj
 0002:0000e968       $unwind$?OnPanelViewCallbacks@CPluginBase@@SA_NPEAUHookCallbackArg@@P6AHPEAXPEAU_INPUT_RECORD@@KPEAKPEAH@Z5@Z 000000018003f968     ConEmuPluginBase.obj
 0002:0000e980       $unwind$?OnConsoleReadInputPost@CPluginBase@@SAHPEAUHookCallbackArg@@@Z 000000018003f980     ConEmuPluginBase.obj
 0002:0000e9a0       $unwind$?OnConsoleDetaching@CPluginBase@@SAHPEAUHookCallbackArg@@@Z 000000018003f9a0     ConEmuPluginBase.obj
 0002:0000e9b0       $unwind$?OnLibraryLoaded@CPluginBase@@SAXPEAUHINSTANCE__@@@Z 000000018003f9b0     ConEmuPluginBase.obj
 0002:0000e9c0       $unwind$?NotifyConEmuUnloaded@CPluginBase@@SAXXZ 000000018003f9c0     ConEmuPluginBase.obj
 0002:0000e9dc       $unwind$?LoadFarVersion@CPluginBase@@SA_NXZ 000000018003f9dc     ConEmuPluginBase.obj
 0002:0000e9f4       $unwind$?UngetDummyMouseEvent@CPluginBase@@SA_N_NPEAUHookCallbackArg@@@Z 000000018003f9f4     ConEmuPluginBase.obj
 0002:0000ea08       $unwind$?OnConsolePeekReadInput@CPluginBase@@SAX_N@Z 000000018003fa08     ConEmuPluginBase.obj
 0002:0000ea20       $unwind$?ActivatePlugin@CPluginBase@@QEAA_NKPEAXK@Z 000000018003fa20     ConEmuPluginBase.obj
 0002:0000ea34       $unwind$?WaitPluginActivation@CPluginBase@@SAKKPEAPEAXHK@Z 000000018003fa34     ConEmuPluginBase.obj
 0002:0000ea50       $unwind$?MonitorThreadProcW@CPluginBase@@SAKPEAX@Z 000000018003fa50     ConEmuPluginBase.obj
 0002:0000ea78       $ip2state$?MonitorThreadProcW@CPluginBase@@SAKPEAX@Z 000000018003fa78     ConEmuPluginBase.obj
 0002:0000ea90       $unwind$?CheckConEmuDetached@CPluginBase@@SAXXZ 000000018003fa90     ConEmuPluginBase.obj
 0002:0000eaac       $stateUnwindMap$?LoadThSet@CPluginBackground@@IEAAHH@Z 000000018003faac     PluginBackground.obj
 0002:0000eaac       $stateUnwindMap$?CheckConEmuDetached@CPluginBase@@SAXXZ 000000018003faac     ConEmuPluginBase.obj
 0002:0000eab8       $ip2state$?CheckConEmuDetached@CPluginBase@@SAXXZ 000000018003fab8     ConEmuPluginBase.obj
 0002:0000eac8       $unwind$iswctype           000000018003fac8     libucrt:iswctype.obj
 0002:0000eac8       $unwind$__acrt_is_packaged_app 000000018003fac8     libucrt:winapi_thunks.obj
 0002:0000eac8       $unwind$?OpenMapHeader@CPluginBase@@SAHXZ 000000018003fac8     ConEmuPluginBase.obj
 0002:0000ead4       $unwind$?InitHWND@CPluginBase@@SAXXZ 000000018003fad4     ConEmuPluginBase.obj
 0002:0000eaec       $unwind$?GetMainThreadId@CPluginBase@@SAKXZ 000000018003faec     ConEmuPluginBase.obj
 0002:0000eb04       $unwind$?RunExternalProgramW@CPluginBase@@SA_NPEA_W0_N@Z 000000018003fb04     ConEmuPluginBase.obj
 0002:0000eb24       $stateUnwindMap$?RunExternalProgramW@CPluginBase@@SA_NPEA_W0_N@Z 000000018003fb24     ConEmuPluginBase.obj
 0002:0000eb40       $ip2state$?RunExternalProgramW@CPluginBase@@SA_NPEA_W0_N@Z 000000018003fb40     ConEmuPluginBase.obj
 0002:0000eb70       $unwind$?CreateTabs@CPluginBase@@SA_NH@Z 000000018003fb70     ConEmuPluginBase.obj
 0002:0000eb80       $ip2state$?CreateTabs@CPluginBase@@SA_NH@Z 000000018003fb80     ConEmuPluginBase.obj
 0002:0000eb98       $unwind$?AddTab@CPluginBase@@QEAA_NAEAHH_N1HPEB_W2HHHH@Z 000000018003fb98     ConEmuPluginBase.obj
 0002:0000ebbc       $unwind$?SendTabs@CPluginBase@@SAXH_N@Z 000000018003fbbc     ConEmuPluginBase.obj
 0002:0000ebd0       $ip2state$?SendTabs@CPluginBase@@SAXH_N@Z 000000018003fbd0     ConEmuPluginBase.obj
 0002:0000ebe8       $unwind$?CloseTabs@CPluginBase@@SAXXZ 000000018003fbe8     ConEmuPluginBase.obj
 0002:0000ebf8       $unwind$?LoadPanelTabsFromRegistry@CPluginBase@@IEAAXXZ 000000018003fbf8     ConEmuPluginBase.obj
 0002:0000ec04       $unwind$?Plugin@@YAPEAVCPluginBase@@XZ 000000018003fc04     ConEmuPluginBase.obj
 0002:0000ec14       $stateUnwindMap$?Plugin@@YAPEAVCPluginBase@@XZ 000000018003fc14     ConEmuPluginBase.obj
 0002:0000ec40       $ip2state$?Plugin@@YAPEAVCPluginBase@@XZ 000000018003fc40     ConEmuPluginBase.obj
 0002:0000ec88       $unwind$?LoadModuleVersion@@YA_NPEB_WAEAUtagVS_FIXEDFILEINFO@@PEA_W_K@Z 000000018003fc88     ConEmuPluginBase.obj
 0002:0000eca8       $unwind$?LoadFarVersion@@YA_NAEAUFarVersion@@AEAY0CAA@_W@Z 000000018003fca8     ConEmuPluginBase.obj
 0002:0000ecc4       $unwind$??1MWow64Disable@@QEAA@XZ 000000018003fcc4     ConEmuPluginBase.obj
 0002:0000ecd8       $ip2state$??1MWow64Disable@@QEAA@XZ 000000018003fcd8     ConEmuPluginBase.obj
 0002:0000ece0       $unwind$??$_Emplace_reallocate@AEBUtagPROCESSENTRY32W@@@?$vector@UtagPROCESSENTRY32W@@V?$MArrayAllocator@UtagPROCESSENTRY32W@@@@@std@@QEAAPEAUtagPROCESSENTRY32W@@QEAU2@AEBU2@@Z 000000018003fce0     common-kernel64:MProcess.obj
 0002:0000ece0       $unwind$?InternalOpenCreate@?$MFileMapping@UCESERVER_CONSOLE_MAPPING_HDR@@@@IEAAPEAUCESERVER_CONSOLE_MAPPING_HDR@@HHH@Z 000000018003fce0     ConEmuPluginBase.obj
 0002:0000ece0       $unwind$?InternalOpenCreate@?$MFileMapping@UPanelViewSetMapping@@@@IEAAPEAUPanelViewSetMapping@@HHH@Z 000000018003fce0     PluginBackground.obj
 0002:0000ece0       $unwind$?InternalOpenCreate@?$MFileMapping@UConEmuGuiMapping@@@@IEAAPEAUConEmuGuiMapping@@HHH@Z 000000018003fce0     common-kernel64:ConEmuCheck.obj
 0002:0000ece0       $unwind$??$copy_and_add_argument_to_buffer@D@@YAHQEBD0_KAEAV?$argument_list@D@?A0xca0879c4@@@Z 000000018003fce0     libucrt:argv_wildcards.obj
 0002:0000ecfc       $unwind$?LoadThSet@CPluginBackground@@IEAAHH@Z 000000018003fcfc     PluginBackground.obj
 0002:0000ed28       $ip2state$?LoadThSet@CPluginBackground@@IEAAHH@Z 000000018003fd28     PluginBackground.obj
 0002:0000ed38       $unwind$?UpdateBackground@CPluginBackground@@IEAAXXZ 000000018003fd38     PluginBackground.obj
 0002:0000ed64       $stateUnwindMap$?UpdateBackground@CPluginBackground@@IEAAXXZ 000000018003fd64     PluginBackground.obj
 0002:0000ed70       $ip2state$?UpdateBackground@CPluginBackground@@IEAAXXZ 000000018003fd70     PluginBackground.obj
 0002:0000ed88       $unwind$??0CPluginBackground@@QEAA@XZ 000000018003fd88     PluginBackground.obj
 0002:0000eda4       $stateUnwindMap$??0CPluginBackground@@QEAA@XZ 000000018003fda4     PluginBackground.obj
 0002:0000edb0       $ip2state$??0CPluginBackground@@QEAA@XZ 000000018003fdb0     PluginBackground.obj
 0002:0000edc8       $unwind$??1CPluginBackground@@QEAA@XZ 000000018003fdc8     PluginBackground.obj
 0002:0000ede0       $ip2state$??1CPluginBackground@@QEAA@XZ 000000018003fde0     PluginBackground.obj
 0002:0000ede8       $unwind$?RegisterSubplugin@CPluginBackground@@QEAAHPEAURegisterBackgroundArg@@@Z 000000018003fde8     PluginBackground.obj
 0002:0000ee08       $stateUnwindMap$?RegisterSubplugin@CPluginBackground@@QEAAHPEAURegisterBackgroundArg@@@Z 000000018003fe08     PluginBackground.obj
 0002:0000ee10       $ip2state$?RegisterSubplugin@CPluginBackground@@QEAAHPEAURegisterBackgroundArg@@@Z 000000018003fe10     PluginBackground.obj
 0002:0000ee28       $unwind$?PlugServerStart@@YA_NXZ 000000018003fe28     PluginSrv.obj
 0002:0000ee30       $unwind$?PlugServerCommand@@YAHPEAXPEAUCESERVER_REQ@@AEAPEAU1@AEAK3_J@Z 000000018003fe30     PluginSrv.obj
 0002:0000ee54       $stateUnwindMap$?PlugServerCommand@@YAHPEAXPEAUCESERVER_REQ@@AEAPEAU1@AEAK3_J@Z 000000018003fe54     PluginSrv.obj
 0002:0000ee68       $ip2state$?PlugServerCommand@@YAHPEAXPEAUCESERVER_REQ@@AEAPEAU1@AEAK3_J@Z 000000018003fe68     PluginSrv.obj
 0002:0000ee90       $unwind$?PlugServerFree@@YAXPEAUCESERVER_REQ@@_J@Z 000000018003fe90     PluginSrv.obj
 0002:0000ee98       $unwind$?DumpError@?$PipeServer@UCESERVER_REQ@@@@IEAAXPEAUPipeInst@1@PEB_WH@Z 000000018003fe98     PluginSrv.obj
 0002:0000eeb4       $unwind$?PipeServerRead@?$PipeServer@UCESERVER_REQ@@@@IEAAHPEAUPipeInst@1@@Z 000000018003feb4     PluginSrv.obj
 0002:0000eed8       $unwind$?PipeServerWrite@?$PipeServer@UCESERVER_REQ@@@@IEAAHPEAUPipeInst@1@PEBXKPEAKH@Z 000000018003fed8     PluginSrv.obj
 0002:0000eef4       $unwind$?WaitForClient@?$PipeServer@UCESERVER_REQ@@@@IEAA_NPEAUPipeInst@1@AEAH1@Z 000000018003fef4     PluginSrv.obj
 0002:0000ef10       $unwind$?WriteDummyAnswer@?$PipeServer@UCESERVER_REQ@@@@IEAAHPEAUPipeInst@1@@Z 000000018003ff10     PluginSrv.obj
 0002:0000ef24       $unwind$?PipeServerThread@?$PipeServer@UCESERVER_REQ@@@@IEAAKPEAUPipeInst@1@@Z 000000018003ff24     PluginSrv.obj
 0002:0000ef3c       $unwind$?StartPipeInstance@?$PipeServer@UCESERVER_REQ@@@@IEAA_NPEAUPipeInst@1@@Z 000000018003ff3c     PluginSrv.obj
 0002:0000ef54       $unwind$?StartPipeServer@?$PipeServer@UCESERVER_REQ@@@@QEAA_N_NPEB_W_JPEAU_SECURITY_ATTRIBUTES@@P6AHPEAXPEAUCESERVER_REQ@@AEAPEAU3@AEAK72@ZP6AX52@ZP6AH42@ZP6AH42@ZP6AH42@Z@Z 000000018003ff54     PluginSrv.obj
 0002:0000ef54       $unwind$?process@?$output_processor@_WV?$string_output_adapter@_W@__crt_stdio_output@@V?$standard_base@_WV?$string_output_adapter@_W@__crt_stdio_output@@@2@@__crt_stdio_output@@QEAAHXZ 000000018003ff54     libucrt:output.obj
 0002:0000ef54       $unwind$?ExecuteNewCmd@@YA_NAEAPEAUCESERVER_REQ@@AEAKK_K@Z 000000018003ff54     common-kernel64:ConEmuCheck.obj
 0002:0000ef54       $unwind$__acrt_initialize_stdio 000000018003ff54     libucrt:_file.obj
 0002:0000ef54       $unwind$_initterm          000000018003ff54     libucrt:initterm.obj
 0002:0000ef54       $unwind$?WaitUnlocked@MSection@@IEAAXKK@Z 000000018003ff54     common-kernel64:MSection.obj
 0002:0000ef54       $unwind$?GetBuffer@CEStr@@QEAAPEA_W_J@Z 000000018003ff54     common-kernel64:CEStr.obj
 0002:0000ef54       $unwind$?xf_realloc@@YAPEAXPEAX_KPEBDH@Z 000000018003ff54     common-kernel64:Memory.obj
 0002:0000ef54       $unwind$__GSHandlerCheck_EH 000000018003ff54     LIBCMT:gshandlereh.obj
 0002:0000ef54       $unwind$??$TypeMatchHelper@V__FrameHandler3@@@@YAHPEBU_s_HandlerType@@PEBU_s_CatchableType@@PEBU_s_ThrowInfo@@@Z 000000018003ff54     libvcruntime:frame.obj
 0002:0000ef6c       $unwind$?xf_calloc@@YAPEAX_K0PEBDH@Z 000000018003ff6c     common-kernel64:Memory.obj
 0002:0000ef6c       $unwind$?xf_malloc@@YAPEAX_KPEBDH@Z 000000018003ff6c     common-kernel64:Memory.obj
 0002:0000ef84       $unwind$__acrt_locale_free_monetary 000000018003ff84     libucrt:initmon.obj
 0002:0000ef84       $unwind$?xf_free@@YAXPEAXPEBDH@Z 000000018003ff84     common-kernel64:Memory.obj
 0002:0000ef8c       $unwind$?Is_bad_exception_allowed@@YAEPEBU_s_ESTypeList@@@Z 000000018003ff8c     libvcruntime:frame.obj
 0002:0000ef8c       $unwind$?AddRef@MSection@@IEAAXK@Z 000000018003ff8c     common-kernel64:MSection.obj
 0002:0000ef8c       $unwind$_recalloc_base     000000018003ff8c     libucrt:recalloc.obj
 0002:0000ef8c       $unwind$?expand_if_necessary@?$argument_list@D@?A0xca0879c4@@AEAAHXZ 000000018003ff8c     libucrt:argv_wildcards.obj
 0002:0000ef8c       $unwind$?GetEnvVar@@YAPEA_WPEB_W@Z 000000018003ff8c     common-kernel64:EnvVar.obj
 0002:0000ef8c       $unwind$?setSBCS@@YAXPEAU__crt_multibyte_data@@@Z 000000018003ff8c     libucrt:mbctype.obj
 0002:0000ef8c       $unwind$?ExecuteNewCmd@@YAPEAUCESERVER_REQ@@K_K@Z 000000018003ff8c     common-kernel64:ConEmuCheck.obj
 0002:0000ef8c       $unwind$??0CEnvStrings@@QEAA@PEA_W@Z 000000018003ff8c     common-kernel64:EnvVar.obj
 0002:0000ef8c       $unwind$__scrt_dllmain_exception_filter 000000018003ff8c     LIBCMT:utility.obj
 0002:0000ef8c       $unwind$?ExpandEnvStr@@YAPEA_WPEB_W@Z 000000018003ff8c     common-kernel64:EnvVar.obj
 0002:0000ef8c       $unwind$__acrt_lowio_create_handle_array 000000018003ff8c     libucrt:osfinfo.obj
 0002:0000ef8c       $unwind$?GetHandlerSearchState@__FrameHandler3@@SAHPEA_KPEAU_xDISPATCHER_CONTEXT@@PEBU_s_FuncInfo@@@Z 000000018003ff8c     libvcruntime:frame.obj
 0002:0000ef8c       $unwind$?lstrdup@@YAPEA_WPEB_W_K@Z 000000018003ff8c     common-kernel64:MStrDup.obj
 0002:0000ef8c       $unwind$?ReleaseRef@MSection@@IEAAHK@Z 000000018003ff8c     common-kernel64:MSection.obj
 0002:0000ef8c       $unwind$??$ensure_buffer_is_big_enough@D@formatting_buffer@__crt_stdio_output@@QEAA_N_K@Z 000000018003ff8c     libucrt:output.obj
 0002:0000ef8c       $unwind$?xf_set_tag@@YAXPEAXPEBDH_N@Z 000000018003ff8c     common-kernel64:Memory.obj
 0002:0000ef8c       $unwind$?Init@HkFunc@@QEAA_NPEB_WPEAUHINSTANCE__@@@Z 000000018003ff8c     common-kernel64:HkFunc.obj
 0002:0000ef8c       $unwind$?Set@CEStr@@QEAAPEB_WPEB_W_J@Z 000000018003ff8c     common-kernel64:CEStr.obj
 0002:0000ef8c       $unwind$?IsModuleValid@@YA_NPEAUHINSTANCE__@@H@Z 000000018003ff8c     common-kernel64:WModuleCheck.obj
 0002:0000ef8c       $unwind$__acrt_free_locale 000000018003ff8c     libucrt:locale_refcounting.obj
 0002:0000ef8c       $unwind$_seh_filter_exe    000000018003ff8c     libucrt:exception_filter.obj
 0002:0000ef8c       $unwind$?Lock@MSection@@IEAAHHK@Z 000000018003ff8c     common-kernel64:MSection.obj
 0002:0000ef8c       $unwind$__acrt_InitializeCriticalSectionEx 000000018003ff8c     libucrt:winapi_thunks.obj
 0002:0000ef8c       $unwind$__acrt_execute_initializers 000000018003ff8c     libucrt:shared_initialization.obj
 0002:0000efa0       $unwind$?GetConEmuHWND@@YAPEAUHWND__@@H@Z 000000018003ffa0     common-kernel64:ConEmuCheck.obj
 0002:0000efbc       $unwind$?isConsoleWindow@@YA_NPEAUHWND__@@@Z 000000018003ffbc     common-kernel64:ConEmuCheck.obj
 0002:0000efd4       $unwind$?GuiMessageBox@@YAHPEAUHWND__@@PEB_W1H@Z 000000018003ffd4     common-kernel64:ConEmuCheck.obj
 0002:0000eff4       $unwind$?ExecuteOpenPipe@@YAPEAXPEB_WAEAY0CAI@_W0KKHPEAXH@Z 000000018003fff4     common-kernel64:ConEmuCheck.obj
 0002:0000f00c       $unwind$?ExecutePrepareCmd@@YAXPEAUCESERVER_REQ@@K_K@Z 000000018004000c     common-kernel64:ConEmuCheck.obj
 0002:0000f00c       $unwind$??$free_environment@_W@@YAXQEAPEA_W@Z 000000018004000c     libucrt:environment_initialization.obj
 0002:0000f00c       $unwind$??$free_environment@D@@YAXQEAPEAD@Z 000000018004000c     libucrt:environment_initialization.obj
 0002:0000f00c       $unwind$?SetCommand@CESERVER_REQ_NEWCMD@@QEAAXPEB_W@Z 000000018004000c     common-kernel64:Common.obj
 0002:0000f00c       $unwind$?ExecutePrepareCmd@@YAXPEAUCESERVER_REQ_HDR@@K_K@Z 000000018004000c     common-kernel64:ConEmuCheck.obj
 0002:0000f018       $unwind$?ExecuteGuiCmd@@YAPEAUCESERVER_REQ@@PEAUHWND__@@PEAU1@0H@Z 0000000180040018     common-kernel64:ConEmuCheck.obj
 0002:0000f038       $unwind$?ExecuteSrvCmd@@YAPEAUCESERVER_REQ@@KPEAU1@PEAUHWND__@@HKH@Z 0000000180040038     common-kernel64:ConEmuCheck.obj
 0002:0000f05c       $unwind$?ExecuteCmd@@YAPEAUCESERVER_REQ@@PEB_WPEAU1@KPEAUHWND__@@HKH@Z 000000018004005c     common-kernel64:ConEmuCheck.obj
 0002:0000f080       $unwind$?LoadSrvMapping@@YAHPEAUHWND__@@AEAUCESERVER_CONSOLE_MAPPING_HDR@@@Z 0000000180040080     common-kernel64:ConEmuCheck.obj
 0002:0000f09c       $unwind$?ModuleName@@YAPEB_WPEB_W@Z 000000018004009c     common-kernel64:ConEmuCheck.obj
 0002:0000f0b0       $unwind$?sprintf_c@@YAHPEAD_JPEBDZZ 00000001800400b0     common-kernel64:MStrSafe.obj
 0002:0000f0b0       $unwind$?swprintf_c@@YAHPEA_W_JPEB_WZZ 00000001800400b0     common-kernel64:MStrSafe.obj
 0002:0000f0bc       $unwind$?msprintf@@YAPEB_WPEA_W_KPEB_WZZ 00000001800400bc     common-kernel64:MStrSafe.obj
 0002:0000f0dc       $unwind$?lstrcmpni@@YAHPEB_W0H@Z 00000001800400dc     common-kernel64:MStrSafe.obj
 0002:0000f0fc       $unwind$?IsFilePath@@YA_NPEB_W_N@Z 00000001800400fc     common-kernel64:CmdLine.obj
 0002:0000f114       $unwind$?apiTerminateThreadEx@@YAHPEAXKPEBDH@Z 0000000180040114     common-kernel64:WThreads.obj
 0002:0000f130       $unwind$?SetThreadName@@YAXKPEAD@Z 0000000180040130     common-kernel64:WThreads.obj
 0002:0000f150       $unwind$?apiThreadHelper@@YAKPEAX@Z 0000000180040150     common-kernel64:WThreads.obj
 0002:0000f164       $unwind$?lstrmerge@@YAPEA_WPEB_W00000000@Z 0000000180040164     common-kernel64:MStrDup.obj
 0002:0000f184       $unwind$?lstrmerge@@YA_NPEAPEA_WPEB_W1111111@Z 0000000180040184     common-kernel64:MStrDup.obj
 0002:0000f190       $unwind$?SetEnvStrings@CESERVER_REQ_NEWCMD@@QEAAXPEB_WK@Z 0000000180040190     common-kernel64:Common.obj
 0002:0000f1ac       $unwind$?LoadAdvApi@MNullDesc@@IEAAHXZ 00000001800401ac     common-kernel64:MSecurity.obj
 0002:0000f1c0       $unwind$?LocalSecurity@MNullDesc@@QEAAPEAU_SECURITY_ATTRIBUTES@@XZ 00000001800401c0     common-kernel64:MSecurity.obj
 0002:0000f1dc       $unwind$?type_case_a@?$output_processor@DV?$string_output_adapter@D@__crt_stdio_output@@V?$standard_base@DV?$string_output_adapter@D@__crt_stdio_output@@@2@@__crt_stdio_output@@AEAA_NXZ 00000001800401dc     libucrt:output.obj
 0002:0000f1dc       $unwind$??0CEStr@@QEAA@PEB_W00000000@Z 00000001800401dc     common-kernel64:CEStr.obj
 0002:0000f1e8       $unwind$?FileExists@@YA_NPEB_WPEAK@Z 00000001800401e8     common-kernel64:WObjects.obj
 0002:0000f208       $unwind$?IsWinVerOrHigher@@YA_NG@Z 0000000180040208     common-kernel64:WObjects.obj
 0002:0000f218       $unwind$?isTerminalMode@@YA_NXZ 0000000180040218     common-kernel64:MProcess.obj
 0002:0000f230       $unwind$?getSystemCP@@YAHH@Z 0000000180040230     libucrt:mbctype.obj
 0002:0000f230       $unwind$_isleadbyte_l      0000000180040230     libucrt:_wctype.obj
 0002:0000f230       $unwind$isdigit            0000000180040230     libucrt:_ctype.obj
 0002:0000f230       $unwind$?Close@?$MToolHelp@UtagPROCESSENTRY32W@@$1?Process32FirstW@@YAHPEAXPEAU1@@Z$1?Process32NextW@@YAH01@Z@@QEAAX_N@Z 0000000180040230     common-kernel64:MProcess.obj
 0002:0000f230       $unwind$__scrt_initialize_onexit_tables 0000000180040230     LIBCMT:utility.obj
 0002:0000f238       $unwind$?Find@?$MToolHelp@UtagPROCESSENTRY32W@@$1?Process32FirstW@@YAHPEAXPEAU1@@Z$1?Process32NextW@@YAH01@Z@@QEAA_NP6A_NPEAUtagPROCESSENTRY32W@@_J@Z10@Z 0000000180040238     common-kernel64:MProcess.obj
 0002:0000f250       $unwind$?MyEnterCriticalSection@MSection@@IEAA_NK@Z 0000000180040250     common-kernel64:MSection.obj
 0002:0000f250       $unwind$?write_string@?$string_output_adapter@D@__crt_stdio_output@@QEBAXQEBDHQEAH1@Z 0000000180040250     libucrt:output.obj
 0002:0000f250       $unwind$??R<lambda_4e60a939b0d047cfe11ddc22648dfba9>@@QEBAHXZ 0000000180040250     libucrt:onexit.obj
 0002:0000f250       $unwind$??$parse_command_line@D@@YAXPEADPEAPEAD0PEA_K2@Z 0000000180040250     libucrt:argv_parsing.obj
 0002:0000f250       $unwind$?CheckCallbackPtr@@YA_NPEAUHINSTANCE__@@_KPEAP6A_JXZHHH@Z 0000000180040250     common-kernel64:WModuleCheck.obj
 0002:0000f26c       $unwind$?RecreateAndLock@MSectionSimple@@QEAA_NXZ 000000018004026c     common-kernel64:MSectionSimple.obj
 0002:0000f274       $unwind$?SetConEmuEnvVar@@YAXPEAUHWND__@@@Z 0000000180040274     common-user64:SetEnvVar.obj
 0002:0000f284       $unwind$?SetConEmuEnvHWND@@YAXPEB_WPEAUHWND__@@@Z 0000000180040284     common-user64:SetEnvVar.obj
 0002:0000f294       $unwind$?FindConEmuBaseDir@@YAHAEAY0BAF@_W0PEAUHINSTANCE__@@@Z 0000000180040294     common-user64:ConEmuCheckEx.obj
 0002:0000f2bc       $stateUnwindMap$?FindConEmuBaseDir@@YAHAEAY0BAF@_W0PEAUHINSTANCE__@@@Z 00000001800402bc     common-user64:ConEmuCheckEx.obj
 0002:0000f2d0       $ip2state$?FindConEmuBaseDir@@YAHAEAY0BAF@_W0PEAUHINSTANCE__@@@Z 00000001800402d0     common-user64:ConEmuCheckEx.obj
 0002:0000f2f0       $unwind$?EvaluateDefaultFontWidth@@YAHHPEB_W@Z 00000001800402f0     common-user64:EmergencyShow.obj
 0002:0000f30c       $unwind$?SetUserFriendlyFont@@YAXPEAUHWND__@@HH@Z 000000018004030c     common-user64:EmergencyShow.obj
 0002:0000f330       $unwind$?CorrectConsolePos@@YAXPEAUHWND__@@@Z 0000000180040330     common-user64:EmergencyShow.obj
 0002:0000f348       $unwind$?EmergencyShow@@YAXPEAUHWND__@@HH@Z 0000000180040348     common-user64:EmergencyShow.obj
 0002:0000f364       $unwind$?SearchAppPaths@@YA_NPEB_WAEAUCEStr@@_NPEAVCEnvRestorer@@@Z 0000000180040364     common-user64:WFiles.obj
 0002:0000f38c       $stateUnwindMap$?SearchAppPaths@@YA_NPEB_WAEAUCEStr@@_NPEAVCEnvRestorer@@@Z 000000018004038c     common-user64:WFiles.obj
 0002:0000f398       $ip2state$?SearchAppPaths@@YA_NPEB_WAEAUCEStr@@_NPEAVCEnvRestorer@@@Z 0000000180040398     common-user64:WFiles.obj
 0002:0000f3b0       $unwind$?SetConsoleInfo@@YAHPEAUHWND__@@PEAUCONSOLE_INFO@@@Z 00000001800403b0     common-user64:WConsoleEx.obj
 0002:0000f3cc       $unwind$?GetConsoleSizeInfo@@YAXPEAUCONSOLE_INFO@@@Z 00000001800403cc     common-user64:WConsoleEx.obj
 0002:0000f3dc       $unwind$?SetConsoleFontSizeTo@@YAXPEAUHWND__@@HHPEB_WGG@Z 00000001800403dc     common-user64:WConsoleEx.obj
 0002:0000f3fc       $unwind$?UpdateComspec@@YAXPEAUConEmuComspec@@_N@Z 00000001800403fc     common-user64:WUser.obj
 0002:0000f414       $unwind$?SetEnvVarExpanded@@YAXPEB_W0@Z 0000000180040414     common-user64:WUser.obj
 0002:0000f430       $xdatasym                  0000000180040430     LIBCMT:amdsecgs.obj
 0002:0000f438       $xdatasym                  0000000180040438     LIBCMT:chkstk.obj
 0002:0000f440       $unwind$?__scrt_initialize_thread_safe_statics@@YAHXZ 0000000180040440     LIBCMT:thread_safe_statics.obj
 0002:0000f458       $ip2state$?__scrt_initialize_thread_safe_statics@@YAHXZ 0000000180040458     LIBCMT:thread_safe_statics.obj
 0002:0000f460       $unwind$?dllmain_crt_process_attach@@YAHQEAUHINSTANCE__@@QEAX@Z 0000000180040460     LIBCMT:dll_dllmain.obj
 0002:0000f49c       $unwind$?dllmain_crt_process_detach@@YAH_N@Z 000000018004049c     LIBCMT:dll_dllmain.obj
 0002:0000f4d4       $unwind$?dllmain_dispatch@@YAHQEAUHINSTANCE__@@KQEAX@Z 00000001800404d4     LIBCMT:dll_dllmain.obj
 0002:0000f4fc       $unwind$?filt$0@?0??dllmain_dispatch@@YAHQEAUHINSTANCE__@@KQEAX@Z@4HA 00000001800404fc     LIBCMT:dll_dllmain.obj
 0002:0000f504       $unwind$__scrt_is_nonwritable_in_current_image 0000000180040504     LIBCMT:utility.obj
 0002:0000f524       $unwind$__scrt_is_nonwritable_in_current_image$filt$0 0000000180040524     LIBCMT:utility.obj
 0002:0000f52c       $unwind$__report_securityfailure 000000018004052c     LIBCMT:gs_report.obj
 0002:0000f534       $unwind$__report_gsfailure 0000000180040534     LIBCMT:gs_report.obj
 0002:0000f534       $unwind$_putwch_nolock     0000000180040534     libucrt:putwch.obj
 0002:0000f53c       $unwind$capture_current_context 000000018004053c     LIBCMT:gs_report.obj
 0002:0000f548       $unwind$capture_previous_context 0000000180040548     LIBCMT:gs_report.obj
 0002:0000f554       $unwind$__scrt_fastfail    0000000180040554     LIBCMT:utility_desktop.obj
 0002:0000f564       $unwind$__security_init_cookie 0000000180040564     LIBCMT:gs_support.obj
 0002:0000f570       $unwind$__isa_available_init 0000000180040570     LIBCMT:cpu_disp.obj
 0002:0000f588       $xdatasym                  0000000180040588     LIBCMT:guard_dispatch.obj
 0002:0000f58c       $unwind$?GetEstablisherFrame@__FrameHandler3@@SAPEA_KPEA_KPEAU_xDISPATCHER_CONTEXT@@PEBU_s_FuncInfo@@0@Z 000000018004058c     libvcruntime:risctrnsctrl.obj
 0002:0000f5a4       $unwind$?UnwindNestedFrames@__FrameHandler3@@SAXPEA_KPEAUEHExceptionRecord@@PEAU_CONTEXT@@0PEAXPEBU_s_FuncInfo@@HHPEBU_s_HandlerType@@PEAU_xDISPATCHER_CONTEXT@@E@Z 00000001800405a4     libvcruntime:risctrnsctrl.obj
 0002:0000f5b8       $unwind$?GetRangeOfTrysToCheck@__FrameHandler3@@SA?AU?$pair@Viterator@TryBlockMap@__FrameHandler3@@V123@@std@@AEAVTryBlockMap@1@HH@Z 00000001800405b8     libvcruntime:risctrnsctrl.obj
 0002:0000f5d0       $unwind$__CxxFrameHandler3 00000001800405d0     libvcruntime:risctrnsctrl.obj
 0002:0000f5e0       $unwind$??$_CallSETranslator@V__FrameHandler3@@@@YAHPEAUEHExceptionRecord@@PEA_KPEAU_CONTEXT@@PEAU_xDISPATCHER_CONTEXT@@PEBU_s_FuncInfo@@K1@Z 00000001800405e0     libvcruntime:risctrnsctrl.obj
 0002:0000f600       $unwind$?filt$0@?0???$_CallSETranslator@V__FrameHandler3@@@@YAHPEAUEHExceptionRecord@@PEA_KPEAU_CONTEXT@@PEAU_xDISPATCHER_CONTEXT@@PEBU_s_FuncInfo@@K1@Z@4HA 0000000180040600     libvcruntime:risctrnsctrl.obj
 0002:0000f610       $xdatasym                  0000000180040610     libvcruntime:memcpy.obj
 0002:0000f620       $unwind$strrchr            0000000180040620     libvcruntime:strrchr.obj
 0002:0000f620       $unwind$wcschr             0000000180040620     libvcruntime:wcschr.obj
 0002:0000f620       $unwind$strchr             0000000180040620     libvcruntime:strchr.obj
 0002:0000f628       $unwind$wcsstr             0000000180040628     libvcruntime:wcsstr.obj
 0002:0000f640       $xdatasym                  0000000180040640     libvcruntime:memset.obj
 0002:0000f650       $unwind$__DestructExceptionObject 0000000180040650     libvcruntime:ehhelpers.obj
 0002:0000f670       $unwind$__std_exception_copy 0000000180040670     libvcruntime:std_exception.obj
 0002:0000f670       $unwind$_free_osfhnd       0000000180040670     libucrt:osfinfo.obj
 0002:0000f670       $unwind$?initialize_stdio_handles_nolock@@YAXXZ 0000000180040670     libucrt:ioinit.obj
 0002:0000f684       $unwind$_CxxThrowException 0000000180040684     libvcruntime:throw.obj
 0002:0000f698       $xdatasym                  0000000180040698     libvcruntime:memcmp.obj
 0002:0000f69c       $unwind$__C_specific_handler 000000018004069c     libvcruntime:riscchandler.obj
 0002:0000f6b8       $unwind$?FrameUnwindToState@__FrameHandler3@@SAXPEA_KPEAU_xDISPATCHER_CONTEXT@@PEBU_s_FuncInfo@@H@Z 00000001800406b8     libvcruntime:frame.obj
 0002:0000f704       $unwind$?CxxCallCatchBlock@__FrameHandler3@@SAPEAXPEAU_EXCEPTION_RECORD@@@Z 0000000180040704     libvcruntime:frame.obj
 0002:0000f740       $unwind$?fin$1@?0??CxxCallCatchBlock@__FrameHandler3@@SAPEAXPEAU_EXCEPTION_RECORD@@@Z@4HA 0000000180040740     libvcruntime:frame.obj
 0002:0000f74c       $unwind$??$BuildCatchObjectHelperInternal@V__FrameHandler3@@@@YAHPEAUEHExceptionRecord@@PEAXPEBU_s_HandlerType@@PEBU_s_CatchableType@@@Z 000000018004074c     libvcruntime:frame.obj
 0002:0000f78c       $unwind$??$BuildCatchObjectInternal@V__FrameHandler3@@@@YAXPEAUEHExceptionRecord@@PEAXPEBU_s_HandlerType@@PEBU_s_CatchableType@@@Z 000000018004078c     libvcruntime:frame.obj
 0002:0000f7b8       $unwind$??$FindHandler@V__FrameHandler3@@@@YAXPEAUEHExceptionRecord@@PEA_KPEAU_CONTEXT@@PEAU_xDISPATCHER_CONTEXT@@PEBU_s_FuncInfo@@EH1@Z 00000001800407b8     libvcruntime:frame.obj
 0002:0000f7d4       $unwind$??$CatchIt@V__FrameHandler3@@@@YAXPEAUEHExceptionRecord@@PEA_KPEAU_CONTEXT@@PEAU_xDISPATCHER_CONTEXT@@PEBU_s_FuncInfo@@PEBU_s_HandlerType@@PEBU_s_CatchableType@@PEBU_s_TryBlockMapEntry@@H1EE@Z 00000001800407d4     libvcruntime:frame.obj
 0002:0000f7ec       $unwind$??$FindHandlerForForeignException@V__FrameHandler3@@@@YAXPEAUEHExceptionRecord@@PEA_KPEAU_CONTEXT@@PEAU_xDISPATCHER_CONTEXT@@PEBU_s_FuncInfo@@HH1@Z 00000001800407ec     libvcruntime:frame.obj
 0002:0000f808       $xdatasym                  0000000180040808     libvcruntime:notify.obj
 0002:0000f814       $unwind$__acrt_initialize_winapi_thunks 0000000180040814     libucrt:winapi_thunks.obj
 0002:0000f814       $unwind$__vcrt_initialize_winapi_thunks 0000000180040814     libvcruntime:winapi_downlevel.obj
 0002:0000f81c       $unwind$__vcrt_uninitialize_winapi_thunks 000000018004081c     libvcruntime:winapi_downlevel.obj
 0002:0000f828       $xdatasym                  0000000180040828     libvcruntime:handlers.obj
 0002:0000f838       $unwind$__stdio_common_vswprintf 0000000180040838     libucrt:output.obj
 0002:0000f838       $unwind$__stdio_common_vsprintf 0000000180040838     libucrt:output.obj
 0002:0000f85c       $unwind$?process@?$output_processor@DV?$string_output_adapter@D@__crt_stdio_output@@V?$standard_base@DV?$string_output_adapter@D@__crt_stdio_output@@@2@@__crt_stdio_output@@QEAAHXZ 000000018004085c     libucrt:output.obj
 0002:0000f86c       $unwind$?parse_int_from_format_string@?$output_processor@DV?$string_output_adapter@D@__crt_stdio_output@@V?$standard_base@DV?$string_output_adapter@D@__crt_stdio_output@@@2@@__crt_stdio_output@@AEAA_NQEAH@Z 000000018004086c     libucrt:output.obj
 0002:0000f880       $unwind$?state_case_type@?$output_processor@DV?$string_output_adapter@D@__crt_stdio_output@@V?$standard_base@DV?$string_output_adapter@D@__crt_stdio_output@@@2@@__crt_stdio_output@@AEAA_NXZ 0000000180040880     libucrt:output.obj
 0002:0000f898       $unwind$?write_stored_string_tchar@?$output_processor@DV?$string_output_adapter@D@__crt_stdio_output@@V?$standard_base@DV?$string_output_adapter@D@__crt_stdio_output@@@2@@__crt_stdio_output@@AEAA_ND@Z 0000000180040898     libucrt:output.obj
 0002:0000f8b0       $unwind$?state_case_type@?$output_processor@_WV?$string_output_adapter@_W@__crt_stdio_output@@V?$standard_base@_WV?$string_output_adapter@_W@__crt_stdio_output@@@2@@__crt_stdio_output@@AEAA_NXZ 00000001800408b0     libucrt:output.obj
 0002:0000f8d4       $unwind$?type_case_c_tchar@?$output_processor@_WV?$string_output_adapter@_W@__crt_stdio_output@@V?$standard_base@_WV?$string_output_adapter@_W@__crt_stdio_output@@@2@@__crt_stdio_output@@AEAA_N_W@Z 00000001800408d4     libucrt:output.obj
 0002:0000f8e4       $unwind$?type_case_a@?$output_processor@_WV?$string_output_adapter@_W@__crt_stdio_output@@V?$standard_base@_WV?$string_output_adapter@_W@__crt_stdio_output@@@2@@__crt_stdio_output@@AEAA_NXZ 00000001800408e4     libucrt:output.obj
 0002:0000f8f4       $unwind$?write_stored_string_tchar@?$output_processor@_WV?$string_output_adapter@_W@__crt_stdio_output@@V?$standard_base@_WV?$string_output_adapter@_W@__crt_stdio_output@@@2@@__crt_stdio_output@@AEAA_N_W@Z 00000001800408f4     libucrt:output.obj
 0002:0000f908       $unwind$??$write_multiple_characters@V?$string_output_adapter@_W@__crt_stdio_output@@D@__crt_stdio_output@@YAXAEBV?$string_output_adapter@_W@0@DHQEAH@Z 0000000180040908     libucrt:output.obj
 0002:0000f914       $unwind$??$parse_integer@KV?$c_string_character_source@D@__crt_strtox@@@__crt_strtox@@YAKQEAU__crt_locale_pointers@@V?$c_string_character_source@D@0@H_N@Z 0000000180040914     libucrt:strtox.obj
 0002:0000f930       $unwind$??$parse_integer@KV?$c_string_character_source@_W@__crt_strtox@@@__crt_strtox@@YAKQEAU__crt_locale_pointers@@V?$c_string_character_source@_W@0@H_N@Z 0000000180040930     libucrt:strtox.obj
 0002:0000f94c       $unwind$__acrt_call_reportfault 000000018004094c     libucrt:invalid_parameter.obj
 0002:0000f96c       $unwind$?common_exit@@YAXHW4_crt_exit_cleanup_mode@@W4_crt_exit_return_mode@@@Z 000000018004096c     libucrt:exit.obj
 0002:0000f9ac       $unwind$_configure_narrow_argv 00000001800409ac     libucrt:argv_parsing.obj
 0002:0000f9c0       $unwind$_register_onexit_function 00000001800409c0     libucrt:onexit.obj
 0002:0000f9c8       $unwind$_execute_onexit_table 00000001800409c8     libucrt:onexit.obj
 0002:0000f9d0       $unwind$??$?RV<lambda_b8c45f8f788dd370798f47cfe8ac3a86>@@AEAV<lambda_4e60a939b0d047cfe11ddc22648dfba9>@@V<lambda_332c3edc96d0294ec56c57d38c1cdfd5>@@@?$__crt_seh_guarded_call@H@@QEAAH$$QEAV<lambda_b8c45f8f788dd370798f47cfe8ac3a86>@@AEAV<lambda_4e60a939b0d047cfe11ddc22648dfba9>@@$$QEAV<lambda_332c3edc96d0294ec56c57d38c1cdfd5>@@@Z 00000001800409d0     libucrt:onexit.obj
 0002:0000f9f4       $unwind$??$?RV<lambda_e24bbb7b643b32fcea6fa61b31d4c984>@@AEAV<lambda_275893d493268fdec8709772e3fcec0e>@@V<lambda_9d71df4d7cf3f480f8d633942495c3b0>@@@?$__crt_seh_guarded_call@H@@QEAAH$$QEAV<lambda_e24bbb7b643b32fcea6fa61b31d4c984>@@AEAV<lambda_275893d493268fdec8709772e3fcec0e>@@$$QEAV<lambda_9d71df4d7cf3f480f8d633942495c3b0>@@@Z 00000001800409f4     libucrt:onexit.obj
 0002:0000fa24       $unwind$terminate          0000000180040a24     libucrt:terminate.obj
 0002:0000fa48       $xdatasym                  0000000180040a48     libucrt:strncmp.obj
 0002:0000fa4c       $unwind$_tolower_l         0000000180040a4c     libucrt:tolower_toupper.obj
 0002:0000fa5c       $unwind$__acrt_locale_free_numeric 0000000180040a5c     libucrt:initnum.obj
 0002:0000fa5c       $unwind$?destroy_fls@@YAXPEAX@Z 0000000180040a5c     libucrt:per_thread_data.obj
 0002:0000fa5c       $unwind$__acrt_locale_free_lc_time_if_unreferenced 0000000180040a5c     libucrt:locale_refcounting.obj
 0002:0000fa5c       $unwind$_free_base         0000000180040a5c     libucrt:free_base.obj
 0002:0000fa64       $unwind$_wctomb_s_l        0000000180040a64     libucrt:wctomb.obj
 0002:0000fa74       $unwind$strnlen            0000000180040a74     libucrt:strnlen.obj
 0002:0000fa74       $unwind$wcsnlen            0000000180040a74     libucrt:strnlen.obj
 0002:0000fa7c       $unwind$?construct_ptd_array@@YAXQEAU__acrt_ptd@@@Z 0000000180040a7c     libucrt:per_thread_data.obj
 0002:0000fa84       $unwind$?destroy_ptd_array@@YAXQEAU__acrt_ptd@@@Z 0000000180040a84     libucrt:per_thread_data.obj
 0002:0000fa8c       $unwind$??$?RV<lambda_72d1df2b273a38828b1ce30cbf4cdab5>@@AEAV<lambda_876a65b173b8412d3a47c70a915b0cf4>@@V<lambda_41932305e351933ebe8f8be3ed8bb5dc>@@@?$__crt_seh_guarded_call@X@@QEAAX$$QEAV<lambda_72d1df2b273a38828b1ce30cbf4cdab5>@@AEAV<lambda_876a65b173b8412d3a47c70a915b0cf4>@@$$QEAV<lambda_41932305e351933ebe8f8be3ed8bb5dc>@@@Z 0000000180040a8c     libucrt:per_thread_data.obj
 0002:0000fab0       $unwind$??$?RV<lambda_5e887d1dcbef67a5eb4283622ba103bf>@@AEAV<lambda_4466841279450cc726390878d4a41900>@@V<lambda_341c25c0346d94847f1f3c463c57e077>@@@?$__crt_seh_guarded_call@X@@QEAAX$$QEAV<lambda_5e887d1dcbef67a5eb4283622ba103bf>@@AEAV<lambda_4466841279450cc726390878d4a41900>@@$$QEAV<lambda_341c25c0346d94847f1f3c463c57e077>@@@Z 0000000180040ab0     libucrt:per_thread_data.obj
 0002:0000fad4       $unwind$??$?RV<lambda_46352004c1216016012b18bd6f87e700>@@AEAV<lambda_3bd07e1a1191394380780325891bf33f>@@V<lambda_334532d3f185bcaa59b5be82d7d22bff>@@@?$__crt_seh_guarded_call@X@@QEAAX$$QEAV<lambda_46352004c1216016012b18bd6f87e700>@@AEAV<lambda_3bd07e1a1191394380780325891bf33f>@@$$QEAV<lambda_334532d3f185bcaa59b5be82d7d22bff>@@@Z 0000000180040ad4     libucrt:per_thread_data.obj
 0002:0000faf8       $unwind$??$?RV<lambda_fb3a7dec4e47f37f22dae91bb15c9095>@@AEAV<lambda_698284760c8add0bfb0756c19673e34b>@@V<lambda_dfb8eca1e75fef3034a8fb18dd509707>@@@?$__crt_seh_guarded_call@X@@QEAAX$$QEAV<lambda_fb3a7dec4e47f37f22dae91bb15c9095>@@AEAV<lambda_698284760c8add0bfb0756c19673e34b>@@$$QEAV<lambda_dfb8eca1e75fef3034a8fb18dd509707>@@@Z 0000000180040af8     libucrt:per_thread_data.obj
 0002:0000fb1c       $unwind$__acrt_fp_format   0000000180040b1c     libucrt:cvt.obj
 0002:0000fb38       $unwind$?fp_format_nan_or_infinity@@YAHW4__acrt_fp_class@@_NPEAD_K1@Z 0000000180040b38     libucrt:cvt.obj
 0002:0000fb4c       $unwind$?fp_format_e_internal@@YAHQEAD_KH_NIQEAU_strflt@@2QEAU__crt_locale_pointers@@@Z 0000000180040b4c     libucrt:cvt.obj
 0002:0000fb64       $unwind$?fp_format_e@@YAHQEBNQEAD_K12H_NIQEAU__crt_locale_pointers@@@Z 0000000180040b64     libucrt:cvt.obj
 0002:0000fb78       $unwind$?fp_format_a@@YAHQEBNPEAD_KQEAD2H_NIQEAU__crt_locale_pointers@@@Z 0000000180040b78     libucrt:cvt.obj
 0002:0000fb94       $unwind$?fp_format_f_internal@@YAHQEAD_KHQEAU_strflt@@_NQEAU__crt_locale_pointers@@@Z 0000000180040b94     libucrt:cvt.obj
 0002:0000fb94       $unwind$__dcrt_get_narrow_environment_from_os 0000000180040b94     libucrt:get_environment_from_os.obj
 0002:0000fbac       $unwind$?fp_format_g@@YAHQEBNQEAD_K12H_NIQEAU__crt_locale_pointers@@@Z 0000000180040bac     libucrt:cvt.obj
 0002:0000fbc0       $unwind$__acrt_uninitialize_locale 0000000180040bc0     libucrt:wsetlocale.obj
 0002:0000fbe0       $unwind$__acrt_initialize_lowio 0000000180040be0     libucrt:ioinit.obj
 0002:0000fc00       $unwind$?initialize_inherited_file_handles_nolock@@YAXXZ 0000000180040c00     libucrt:ioinit.obj
 0002:0000fc1c       $unwind$_isctype_l         0000000180040c1c     libucrt:isctype.obj
 0002:0000fc38       $unwind$??$common_expand_argv_wildcards@D@@YAHQEAPEADQEAPEAPEAD@Z 0000000180040c38     libucrt:argv_wildcards.obj
 0002:0000fc50       $unwind$??$expand_argument_wildcards@D@@YAHQEAD0AEAV?$argument_list@D@?A0xca0879c4@@@Z 0000000180040c50     libucrt:argv_wildcards.obj
 0002:0000fc70       $unwind$__acrt_update_thread_multibyte_data 0000000180040c70     libucrt:mbctype.obj
 0002:0000fc94       $unwind$_setmbcp_nolock    0000000180040c94     libucrt:mbctype.obj
 0002:0000fcb4       $unwind$?setSBUpLow@@YAXPEAU__crt_multibyte_data@@@Z 0000000180040cb4     libucrt:mbctype.obj
 0002:0000fcd0       $unwind$?setmbcp_internal@@YAHH_N@Z 0000000180040cd0     libucrt:mbctype.obj
 0002:0000fce0       $unwind$??$?RV<lambda_99476a1ad63dd22509b5d3e65b0ffc95>@@AEAV<lambda_ad1ced32f4ac17aa236e5ef05d6b3b7c>@@V<lambda_f7424dd8d45958661754dc4f2697e9c3>@@@?$__crt_seh_guarded_call@X@@QEAAX$$QEAV<lambda_99476a1ad63dd22509b5d3e65b0ffc95>@@AEAV<lambda_ad1ced32f4ac17aa236e5ef05d6b3b7c>@@$$QEAV<lambda_f7424dd8d45958661754dc4f2697e9c3>@@@Z 0000000180040ce0     libucrt:mbctype.obj
 0002:0000fd04       $unwind$_query_new_handler 0000000180040d04     libucrt:new_handler.obj
 0002:0000fd24       $unwind$__acrt_get_sigabrt_handler 0000000180040d24     libucrt:signal.obj
 0002:0000fd2c       $unwind$raise              0000000180040d2c     libucrt:signal.obj
 0002:0000fd58       $unwind$??$?RV<lambda_c36588078e9f5dfd39652860aa6b3aaf>@@AEAV<lambda_ec61778202f4f5fc7e7711acc23c3bca>@@V<lambda_dc9d2797ccde5d239b4a0efae8ebd7db>@@@?$__crt_seh_guarded_call@P6AXH@Z@@QEAAP6AXH@Z$$QEAV<lambda_c36588078e9f5dfd39652860aa6b3aaf>@@AEAV<lambda_ec61778202f4f5fc7e7711acc23c3bca>@@$$QEAV<lambda_dc9d2797ccde5d239b4a0efae8ebd7db>@@@Z 0000000180040d58     libucrt:signal.obj
 0002:0000fd7c       $unwind$__acrt_LCMapStringA 0000000180040d7c     libucrt:lcmapstringa.obj
 0002:0000fd8c       $unwind$?__acrt_LCMapStringA_stat@@YAHPEAU__crt_locale_pointers@@PEB_WKPEBDHPEADHHH@Z 0000000180040d8c     libucrt:lcmapstringa.obj
 0002:0000fdb4       $unwind$__acrt_update_thread_locale_data 0000000180040db4     libucrt:locale_refcounting.obj
 0002:0000fdd8       $unwind$__acrt_fltout      0000000180040dd8     libucrt:cfout.obj
 0002:0000fdf8       $unwind$?divide@__crt_strtox@@YA_KAEAUbig_integer@1@AEBU21@@Z 0000000180040df8     libucrt:cfout.obj
 0002:0000fe18       $chain$5$?divide@__crt_strtox@@YA_KAEAUbig_integer@1@AEBU21@@Z 0000000180040e18     libucrt:cfout.obj
 0002:0000fe2c       $chain$6$?divide@__crt_strtox@@YA_KAEAUbig_integer@1@AEBU21@@Z 0000000180040e2c     libucrt:cfout.obj
 0002:0000fe3c       $unwind$_fcloseall         0000000180040e3c     libucrt:closeall.obj
 0002:0000fe60       $unwind$common_flush_all   0000000180040e60     libucrt:fflush.obj
 0002:0000fe9c       $unwind$__acrt_locale_free_time 0000000180040e9c     libucrt:inittime.obj
 0002:0000feac       $unwind$__acrt_GetStringTypeA 0000000180040eac     libucrt:getstringtypea.obj
 0002:0000fed4       $unwind$__acrt_lowio_destroy_handle_array 0000000180040ed4     libucrt:osfinfo.obj
 0002:0000fee4       $unwind$__acrt_lowio_ensure_fh_exists 0000000180040ee4     libucrt:osfinfo.obj
 0002:0000ff10       $unwind$?GetTableIndexFromLocaleName@@YAHPEB_W@Z 0000000180040f10     libucrt:lcidtoname_downlevel.obj
 0002:0000ff28       $unwind$qsort              0000000180040f28     libucrt:qsort.obj
 0002:0000ff40       $chain$4$qsort             0000000180040f40     libucrt:qsort.obj
 0002:0000ff64       $chain$5$qsort             0000000180040f64     libucrt:qsort.obj
 0002:0000ff74       $unwind$?shortsort@@YAXPEAD0_KP6AHPEBX2@Z@Z 0000000180040f74     libucrt:qsort.obj
 0002:0000ff84       $chain$2$?shortsort@@YAXPEAD0_KP6AHPEBX2@Z@Z 0000000180040f84     libucrt:qsort.obj
 0002:0000ffa0       $chain$3$?shortsort@@YAXPEAD0_KP6AHPEBX2@Z@Z 0000000180040fa0     libucrt:qsort.obj
 0002:0000ffb0       $unwind$_mbsdec_l          0000000180040fb0     libucrt:mbsdec.obj
 0002:0000ffc0       $xdatasym                  0000000180040fc0     libucrt:log10.obj
 0002:0000ffcc       $unwind$_write             0000000180040fcc     libucrt:write.obj
 0002:0000fffc       $unwind$_write_nolock      0000000180040ffc     libucrt:write.obj
 0002:00010014       $unwind$?write_double_translated_ansi_nolock@@YA?AUwrite_result@?A0x9c548279@@HQEBDI@Z 0000000180041014     libucrt:write.obj
 0002:00010034       $unwind$?write_text_ansi_nolock@@YA?AUwrite_result@?A0x9c548279@@HQEBDI@Z 0000000180041034     libucrt:write.obj
 0002:00010034       $unwind$?write_text_utf16le_nolock@@YA?AUwrite_result@?A0x9c548279@@HQEBDI@Z 0000000180041034     libucrt:write.obj
 0002:00010054       $unwind$?write_text_utf8_nolock@@YA?AUwrite_result@?A0x9c548279@@HQEBDI@Z 0000000180041054     libucrt:write.obj
 0002:00010078       $unwind$fclose             0000000180041078     libucrt:fclose.obj
 0002:0001009c       $unwind$_commit            000000018004109c     libucrt:commit.obj
 0002:0001009c       $unwind$_close             000000018004109c     libucrt:close.obj
 0002:000100a4       $unwind$??$?RV<lambda_b521505b218e5242e90febf6bfebc422>@@AEAV<lambda_6978c1fb23f02e42e1d9e99668cc68aa>@@V<lambda_314360699dd331753a4119843814e9a7>@@@?$__crt_seh_guarded_call@H@@QEAAH$$QEAV<lambda_b521505b218e5242e90febf6bfebc422>@@AEAV<lambda_6978c1fb23f02e42e1d9e99668cc68aa>@@$$QEAV<lambda_314360699dd331753a4119843814e9a7>@@@Z 00000001800410a4     libucrt:commit.obj
 0002:000100c8       $unwind$common_control87   00000001800410c8     libucrt:ieee.obj
 0002:000100f8       $unwind$_handle_error      00000001800410f8     libucrt:libm_error.obj
 0002:00010118       $unwind$__acrt_initialize_fma3 0000000180041118     libucrt:fma3_available.obj
 0002:00010120       $unwind$_log_special_common 0000000180041120     libucrt:log_special.obj
 0002:0001012c       $unwind$??$?RV<lambda_bfedae4ebbf01fab1bb6dcc6a9e276e0>@@AEAV<lambda_2fe9b910cf3cbf4a0ab98a02ba45b3ec>@@V<lambda_237c231691f317818eb88cc1d5d642d6>@@@?$__crt_seh_guarded_call@H@@QEAAH$$QEAV<lambda_bfedae4ebbf01fab1bb6dcc6a9e276e0>@@AEAV<lambda_2fe9b910cf3cbf4a0ab98a02ba45b3ec>@@$$QEAV<lambda_237c231691f317818eb88cc1d5d642d6>@@@Z 000000018004112c     libucrt:close.obj
 0002:00010150       $xdatasym                  0000000180041150     libucrt:fpsr.obj
 0002:00010158       $unwind$_raise_exc_ex      0000000180041158     libucrt:fpexcept.obj
 0002:0001016c       $unwind$_ctrlfp            000000018004116c     libucrt:fpctrl.obj
 0002:00010194       $unwind$?apiGetConsoleFontSize@@YAHPEAXAEAH1AEAY0CA@_W@Z 0000000180041194     common-kernel64:WConsole.obj
 0002:000101b0       $unwind$?apiSetConsoleFontSize@@YAHPEAXHHPEB_W@Z 00000001800411b0     common-kernel64:WConsole.obj
 0002:000101cc       $unwind$_IsNonwritableInCurrentImage 00000001800411cc     LIBCMT:pesect.obj
 0002:000103f0       .edata                     00000001800413f0     ConEmu.x64.exp
 0002:00010418       rgpv                       0000000180041418     ConEmu.x64.exp
 0002:00010484       rgszName                   0000000180041484     ConEmu.x64.exp
 0002:000104f0       rgwOrd                     00000001800414f0     ConEmu.x64.exp
 0002:00010526       szName                     0000000180041526     ConEmu.x64.exp
 0002:00010535       $N00001                    0000000180041535     ConEmu.x64.exp
 0002:00010545       $N00002                    0000000180041545     ConEmu.x64.exp
 0002:0001054d       $N00003                    000000018004154d     ConEmu.x64.exp
 0002:00010559       $N00004                    0000000180041559     ConEmu.x64.exp
 0002:00010564       $N00005                    0000000180041564     ConEmu.x64.exp
 0002:00010572       $N00006                    0000000180041572     ConEmu.x64.exp
 0002:00010583       $N00007                    0000000180041583     ConEmu.x64.exp
 0002:00010591       $N00008                    0000000180041591     ConEmu.x64.exp
 0002:000105a0       $N00009                    00000001800415a0     ConEmu.x64.exp
 0002:000105b0       $N00010                    00000001800415b0     ConEmu.x64.exp
 0002:000105bb       $N00011                    00000001800415bb     ConEmu.x64.exp
 0002:000105c1       $N00012                    00000001800415c1     ConEmu.x64.exp
 0002:000105d4       $N00013                    00000001800415d4     ConEmu.x64.exp
 0002:000105e7       $N00014                    00000001800415e7     ConEmu.x64.exp
 0002:000105fa       $N00015                    00000001800415fa     ConEmu.x64.exp
 0002:0001060d       $N00016                    000000018004160d     ConEmu.x64.exp
 0002:0001061f       $N00017                    000000018004161f     ConEmu.x64.exp
 0002:0001062e       $N00018                    000000018004162e     ConEmu.x64.exp
 0002:0001063a       $N00019                    000000018004163a     ConEmu.x64.exp
 0002:00010643       $N00020                    0000000180041643     ConEmu.x64.exp
 0002:00010652       $N00021                    0000000180041652     ConEmu.x64.exp
 0002:00010664       $N00022                    0000000180041664     ConEmu.x64.exp
 0002:00010670       $N00023                    0000000180041670     ConEmu.x64.exp
 0002:00010684       $N00024                    0000000180041684     ConEmu.x64.exp
 0002:00010698       $N00025                    0000000180041698     ConEmu.x64.exp
 0002:000106ad       $N00026                    00000001800416ad     ConEmu.x64.exp
 0002:000106c1       $N00027                    00000001800416c1     ConEmu.x64.exp
 0002:00010e02       .idata$6                   0000000180041e02     version:VERSION.dll
 0002:0001132c       .idata$6                   000000018004232c     kernel32:KERNEL32.dll
 0002:0001143a       .idata$6                   000000018004243a     user32:USER32.dll
 0002:000114da       .idata$6                   00000001800424da     gdi32:GDI32.dll
 0002:00011516       .idata$6                   0000000180042516     advapi32:ADVAPI32.dll
 0003:00000140       ?rc@?CE@??Open@CPluginW2800@@UEAAPEAXPEBX@Z@4UFarMacroCall@@A 0000000180043140     ConEmuPlugin2800.obj
 0003:00000168       ?val@?CE@??Open@CPluginW2800@@UEAAPEAXPEBX@Z@4UFarMacroValue@@A 0000000180043168     ConEmuPlugin2800.obj
 0003:000002c0       ?__vcrt_flsindex@@3KA      00000001800432c0     libvcruntime:per_thread_data.obj
 0003:000002d0       errno_no_memory            00000001800432d0     libucrt:errno.obj
 0003:000002d4       doserrno_no_memory         00000001800432d4     libucrt:errno.obj
 0003:000002e0       __acrt_flsindex            00000001800432e0     libucrt:per_thread_data.obj
 0003:000007b0       __rgctypeflag              00000001800437b0     libucrt:mbctype.obj
 0003:000007c0       __rgcode_page_info         00000001800437c0     libucrt:mbctype.obj
 0003:00000b70       ?dazSupported@?1??common_control87@@9@9 0000000180043b70     libucrt:ieee.obj
 0003:00000b80       ?dazSupported@?1??_ctrlfp@@9@9 0000000180043b80     libucrt:fpctrl.obj
 0003:00000ea0       ?store@?M@??GetPanelInfo@CPluginW1900@@UEAA_NKPEAUCEPanelInfo@@@Z@4UPanelInfo@@A 0000000180043ea0     ConEmuPlugin1900.obj
 0003:00000f10       ?szMenu@?1??GetPluginInfoPtr@CPluginW1900@@UEAAXPEAX@Z@4PAPEA_WA 0000000180043f10     ConEmuPlugin1900.obj
 0003:00000f20       ?szMenu1@?1??GetPluginInfoPtr@CPluginW1900@@UEAAXPEAX@Z@4PA_WA 0000000180043f20     ConEmuPlugin1900.obj
 0003:00001120       ?WLastActive@?1??UpdateConEmuTabsApi@CPluginW1900@@UEAA_NH@Z@4UWindowInfo@@A 0000000180044120     ConEmuPlugin1900.obj
 0003:00001168       ?pwList@@3PEAV?$MArray@UWindowInfo@@@@EA 0000000180044168     ConEmuPlugin2800.obj
 0003:00001170       ?store@?M@??GetPanelInfo@CPluginW2800@@UEAA_NKPEAUCEPanelInfo@@@Z@4UPanelInfo@@A 0000000180044170     ConEmuPlugin2800.obj
 0003:000011d8       ?szMenu@?1??GetPluginInfoPtr@CPluginW2800@@UEAAXPEAX@Z@4PAPEA_WA 00000001800441d8     ConEmuPlugin2800.obj
 0003:000011e0       ?szMenu1@?1??GetPluginInfoPtr@CPluginW2800@@UEAAXPEAX@Z@4PA_WA 00000001800441e0     ConEmuPlugin2800.obj
 0003:000013e0       ?WLastActive@?1??UpdateConEmuTabsApi@CPluginW2800@@UEAA_NH@Z@4UWindowInfo@@A 00000001800443e0     ConEmuPlugin2800.obj
 0003:00001438       ?ghSyncDlg@@3PEAXEA        0000000180044438     ConEmuPlugin995.obj
 0003:00001440       ?store@?M@??GetPanelInfo@CPluginW995@@UEAA_NKPEAUCEPanelInfo@@@Z@4UPanelInfo@@A 0000000180044440     ConEmuPlugin995.obj
 0003:00001488       ?szMenu@?1??GetPluginInfoPtr@CPluginW995@@UEAAXPEAX@Z@4PAPEA_WA 0000000180044488     ConEmuPlugin995.obj
 0003:00001490       ?szMenu1@?1??GetPluginInfoPtr@CPluginW995@@UEAAXPEAX@Z@4PA_WA 0000000180044490     ConEmuPlugin995.obj
 0003:000016a0       ?store@?M@??GetPanelInfo@CPluginAnsi@@UEAA_NKPEAUCEPanelInfo@@@Z@4UPanelInfo@@A 00000001800446a0     ConEmuPluginA.obj
 0003:000018a0       ?szMenu@?1??GetPluginInfoPtr@CPluginAnsi@@UEAAXPEAX@Z@4PAPEADA 00000001800448a0     ConEmuPluginA.obj
 0003:000018b0       ?szMenu1@?1??GetPluginInfoPtr@CPluginAnsi@@UEAAXPEAX@Z@4PADA 00000001800448b0     ConEmuPluginA.obj
 0003:00002c30       ?gbTryOpenMapHeader@@3HA   0000000180045c30     ConEmuPluginBase.obj
 0003:00002c34       ?gbStartupHooksAfterMap@@3HA 0000000180045c34     ConEmuPluginBase.obj
 0003:00002c38       ?siEnabled@?1??CheckBufferEnabled@CPluginBase@@QEAA_NXZ@4HA 0000000180045c38     ConEmuPluginBase.obj
 0003:00002c3c       ?dwLastTickCount@?7??CheckResources@CPluginBase@@QEAAX_N@Z@4KA 0000000180045c3c     ConEmuPluginBase.obj
 0003:00002c40       ?$TSS0@?7??CheckResources@CPluginBase@@QEAAX_N@Z@4HA 0000000180045c40     ConEmuPluginBase.obj
 0003:00002c44       ?dwLastTickCount@?9??OnConsolePeekReadInput@CPluginBase@@SAX_N@Z@4KA 0000000180045c44     ConEmuPluginBase.obj
 0003:00002eb0       ?gHeapInit@@3U?$atomic@H@std@@A 0000000180045eb0     common-kernel64:Memory.obj
 0003:00002eb4       ?gHeapCounter@@3U?$atomic@H@std@@A 0000000180045eb4     common-kernel64:Memory.obj
 0003:00002ed0       ?szFile@?1??ModuleName@@YAPEB_WPEB_W@Z@4PA_WA 0000000180045ed0     common-kernel64:ConEmuCheck.obj
 0003:00002f20       ?g_Threads@@3PAUConEmuThreadInfo@@A 0000000180045f20     common-kernel64:WThreads.obj
 0003:0000b720       ?gh_UnknownTerminatedThread@@3PEAXEA 000000018004e720     common-kernel64:WThreads.obj
 0003:0000b72c       ?szNil@?1??GetCommand@CESERVER_REQ_NEWCMD@@QEAAPEA_WXZ@4PA_WA 000000018004e72c     common-kernel64:Common.obj
 0003:0000b740       ?rtlVerifyVersionInfo@?1??_VerifyVersionInfo@@YA_NPEAU_OSVERSIONINFOEXW@@K_K@Z@4P6AH0K1@ZEA 000000018004e740     common-kernel64:WObjects.obj
 0003:0000b748       ?hasRtl@?1??_VerifyVersionInfo@@YA_NPEAU_OSVERSIONINFOEXW@@K_K@Z@4HA 000000018004e748     common-kernel64:WObjects.obj
 0003:0000b74c       ?ibIsWin6@?1??IsWin6@@YA_NXZ@4HA 000000018004e74c     common-kernel64:WObjects.obj
 0003:0000b750       ?is64bitOs@?1??IsWindows64@@YA_NXZ@4_NA 000000018004e750     common-kernel64:WObjects.obj
 0003:0000b751       ?isOsChecked@?1??IsWindows64@@YA_NXZ@4_NA 000000018004e751     common-kernel64:WObjects.obj
 0003:0000b758       ?TerminalMode@?1??isTerminalMode@@YA_NXZ@4_NA 000000018004e758     common-kernel64:MProcess.obj
 0003:0000b759       ?TerminalChecked@?1??isTerminalMode@@YA_NXZ@4_NA 000000018004e759     common-kernel64:MProcess.obj
 0003:0000b75a       ?bSysInfoRetrieved@?1??IsModuleValid@@YA_NPEAUHINSTANCE__@@H@Z@4_NA 000000018004e75a     common-kernel64:WModuleCheck.obj
 0003:0000b760       ?si@?1??IsModuleValid@@YA_NPEAUHINSTANCE__@@H@Z@4U_SYSTEM_INFO@@A 000000018004e760     common-kernel64:WModuleCheck.obj
 0003:0000b7a8       ?_Tss_mutex@@3U_RTL_CRITICAL_SECTION@@A 000000018004e7a8     LIBCMT:thread_safe_statics.obj
 0003:0000b7d0       ?_Tss_cv@@3U_RTL_CONDITION_VARIABLE@@A 000000018004e7d0     LIBCMT:thread_safe_statics.obj
 0003:0000b7d8       ?_Tss_event@@3PEAXEA       000000018004e7d8     LIBCMT:thread_safe_statics.obj
 0003:0000b7e0       ?encoded_sleep_condition_variable_cs@@3P6AHPEAU_RTL_CONDITION_VARIABLE@@PEAU_RTL_CRITICAL_SECTION@@K@ZEA 000000018004e7e0     LIBCMT:thread_safe_statics.obj
 0003:0000b7e8       ?encoded_wake_all_condition_variable@@3P6AXPEAU_RTL_CONDITION_VARIABLE@@@ZEA 000000018004e7e8     LIBCMT:thread_safe_statics.obj
 0003:0000b7f0       ?__proc_attached@@3HA      000000018004e7f0     LIBCMT:dll_dllmain.obj
 0003:0000b808       ?is_initialized_as_dll@@3_NA 000000018004e808     LIBCMT:utility.obj
 0003:0000b809       ?module_local_atexit_table_initialized@@3_NA 000000018004e809     LIBCMT:utility.obj
 0003:0000b810       ?module_local_atexit_table@@3U_onexit_table_t@@A 000000018004e810     LIBCMT:utility.obj
 0003:0000b828       ?module_local_at_quick_exit_table@@3U_onexit_table_t@@A 000000018004e828     LIBCMT:utility.obj
 0003:0000b840       GS_ExceptionRecord         000000018004e840     LIBCMT:gs_report.obj
 0003:0000b8e0       GS_ContextRecord           000000018004e8e0     LIBCMT:gs_report.obj
 0003:0000bdf0       ?__vcrt_startup_thread_ptd@@3U__vcrt_ptd@@A 000000018004edf0     libvcruntime:per_thread_data.obj
 0003:0000be88       __vcrt_lock_table          000000018004ee88     libvcruntime:locks.obj
 0003:0000beb0       __vcrt_locks_initialized   000000018004eeb0     libvcruntime:locks.obj
 0003:0000beb8       ?module_handles@@3PAPEAUHINSTANCE__@@A 000000018004eeb8     libvcruntime:winapi_downlevel.obj
 0003:0000bed0       ?encoded_function_pointers@@3PAPEAXA 000000018004eed0     libvcruntime:winapi_downlevel.obj
 0003:0000bf38       ?heap@@3V_HeapManager@@A   000000018004ef38     libvcruntime:undname.obj
 0003:0000bf60       __acrt_invalid_parameter_handler 000000018004ef60     libucrt:invalid_parameter.obj
 0003:0000bf68       c_termination_complete     000000018004ef68     libucrt:exit.obj
 0003:0000bf70       thread_local_exit_callback_func 000000018004ef70     libucrt:exit.obj
 0003:0000bf78       ?c_exit_complete@?5??common_exit@@YAXHW4_crt_exit_cleanup_mode@@W4_crt_exit_return_mode@@@Z@4_NA 000000018004ef78     libucrt:exit.obj
 0003:0000bf80       ?program_name@?5???$common_configure_argv@D@@YAHW4_crt_argv_mode@@@Z@4PADA 000000018004ef80     libucrt:argv_parsing.obj
 0003:0000c0e8       enable_percent_n           000000018004f0e8     libucrt:printf_count_output.obj
 0003:0000c520       __acrt_lock_table          000000018004f520     libucrt:locks.obj
 0003:0000c728       __acrt_locks_initialized   000000018004f728     libucrt:locks.obj
 0003:0000c730       module_handles             000000018004f730     libucrt:winapi_thunks.obj
 0003:0000c7d0       encoded_function_pointers  000000018004f7d0     libucrt:winapi_thunks.obj
 0003:0000c8d0       ?state_cache@?1??__acrt_is_packaged_app@@9@4JA 000000018004f8d0     libucrt:winapi_thunks.obj
 0003:0000c8ec       fSystemSet                 000000018004f8ec     libucrt:mbctype.obj
 0003:0000c8f8       ?initialized@?1??__acrt_initialize_multibyte@@9@4_NA 000000018004f8f8     libucrt:mbctype.obj
 0003:0000c930       __acrt_new_handler         000000018004f930     libucrt:new_handler.obj
 0003:0000c938       ctrlc_action               000000018004f938     libucrt:signal.obj
 0003:0000c940       ctrlbreak_action           000000018004f940     libucrt:signal.obj
 0003:0000c948       abort_action               000000018004f948     libucrt:signal.obj
 0003:0000c950       term_action                000000018004f950     libucrt:signal.obj
 0003:0000c958       user_matherr               000000018004f958     libucrt:matherr.obj
 0003:0000c960       __acrt_global_new_mode     000000018004f960     libucrt:new_mode.obj
 0003:0000c96c       __acrt_app_type            000000018004f96c     libucrt:report_runtime_error.obj
 0003:0000c9d4       ?gbPauseConsoleWasRequested@@3_NA 000000018004f9d4     common-kernel64:WConsole.obj
 0003:0000c9d8       ?GetCurrentConsoleFontEx@?1??apiGetCurrentConsoleFontEx@@YAHPEAXHPEAUMY_CONSOLE_FONT_INFOEX@@@Z@4P6AH0H1@ZEA 000000018004f9d8     common-kernel64:WConsole.obj
 0003:0000c9e0       ?bFuncChecked@?1??apiGetCurrentConsoleFontEx@@YAHPEAXHPEAUMY_CONSOLE_FONT_INFOEX@@@Z@4_NA 000000018004f9e0     common-kernel64:WConsole.obj
 0003:0000c9e8       ?SetCurrentConsoleFontEx@?1??apiSetCurrentConsoleFontEx@@YAHPEAXHPEAUMY_CONSOLE_FONT_INFOEX@@@Z@4P6AH0H1@ZEA 000000018004f9e8     common-kernel64:WConsole.obj
 0003:0000c9f0       ?bFuncChecked@?1??apiSetCurrentConsoleFontEx@@YAHPEAXHPEAUMY_CONSOLE_FONT_INFOEX@@@Z@4_NA 000000018004f9f0     common-kernel64:WConsole.obj
 0004:00000000       $pdata$?StringCchCopyW@@YAJPEA_W_KPEB_W@Z 0000000180050000     ConEmuInjects.obj
 0004:0000000c       $pdata$?StringCchVPrintfW@@YAJPEA_W_KPEB_WPEAD@Z 000000018005000c     ConEmuInjects.obj
 0004:00000018       $pdata$?StartupHooks@@YA_NPEAUHINSTANCE__@@@Z 0000000180050018     ConEmuInjects.obj
 0004:00000024       $pdata$?StartupConsoleHooks@@YAXXZ 0000000180050024     ConEmuInjects.obj
 0004:00000030       $pdata$?ShutdownHooks@@YAXXZ 0000000180050030     ConEmuInjects.obj
 0004:0000003c       $pdata$??$swprintf_c@$0IA@@@YAHAEAY0IA@_WPEB_WZZ 000000018005003c     ConEmuInjects.obj
 0004:00000048       $pdata$??$swprintf_c@$0EA@@@YAHAEAY0EA@_WPEB_WZZ 0000000180050048     ConEmuInjects.obj
 0004:00000054       $pdata$??$swprintf_c@$0PP@@@YAHAEAY0PP@_WPEB_WZZ 0000000180050054     ConEmuInjects.obj
 0004:00000060       $pdata$ExitFARW            0000000180050060     ConEmuPlugin.obj
 0004:0000006c       $pdata$OpenPluginW         000000018005006c     ConEmuPlugin.obj
 0004:00000078       $pdata$?ProcessEditorEvent@@YAHHPEAX@Z 0000000180050078     ConEmuPlugin.obj
 0004:00000078       $pdata$ProcessEditorEventW 0000000180050078     ConEmuPlugin.obj
 0004:00000084       $pdata$ProcessEditorInputW 0000000180050084     ConEmuPlugin.obj
 0004:00000090       $pdata$ProcessSynchroEventW 0000000180050090     ConEmuPlugin.obj
 0004:0000009c       $pdata$ProcessViewerEventW 000000018005009c     ConEmuPlugin.obj
 0004:0000009c       $pdata$?ProcessViewerEvent@@YAHHPEAX@Z 000000018005009c     ConEmuPlugin.obj
 0004:000000a8       $pdata$SetStartupInfoW     00000001800500a8     ConEmuPlugin.obj
 0004:000000b4       $pdata$?IsConsoleActive@@YAHXZ 00000001800500b4     ConEmuPlugin.obj
 0004:000000c0       $pdata$?GetFarHWND2@@YAPEAUHWND__@@H@Z 00000001800500c0     ConEmuPlugin.obj
 0004:000000cc       $pdata$?RegisterPanelView@@YAHPEAUPanelViewInit@@@Z 00000001800500cc     ConEmuPlugin.obj
 0004:000000d8       $pdata$?RegisterBackground@@YAHPEAURegisterBackgroundArg@@@Z 00000001800500d8     ConEmuPlugin.obj
 0004:000000e4       $pdata$?dtor$0@?0??RegisterBackground@@YAHPEAURegisterBackgroundArg@@@Z@4HA 00000001800500e4     ConEmuPlugin.obj
 0004:000000f0       $pdata$?SyncExecute@@YAHPEAUHINSTANCE__@@P6AX_J@Z1@Z 00000001800500f0     ConEmuPlugin.obj
 0004:000000fc       $pdata$?ActivateConsole@@YAHXZ 00000001800500fc     ConEmuPlugin.obj
 0004:00000108       $pdata$?GetPluginInfo@@YAXPEAX@Z 0000000180050108     ConEmuPlugin.obj
 0004:00000114       $pdata$?GetPluginInfoW@@YAXPEAX@Z 0000000180050114     ConEmuPlugin.obj
 0004:00000120       $pdata$?SetStartupInfo@@YAXPEAX@Z 0000000180050120     ConEmuPlugin.obj
 0004:0000012c       $pdata$?GetMinFarVersion@@YAHXZ 000000018005012c     ConEmuPlugin.obj
 0004:00000138       $pdata$?ProcessSynchroEventW3@@YA_JPEAX@Z 0000000180050138     ConEmuPlugin.obj
 0004:00000144       $pdata$?ProcessEditorEventW3@@YA_JPEAX@Z 0000000180050144     ConEmuPlugin.obj
 0004:00000150       $pdata$?ProcessViewerEventW3@@YA_JPEAX@Z 0000000180050150     ConEmuPlugin.obj
 0004:0000015c       $pdata$?ProcessEditorInput@@YAHPEBU_INPUT_RECORD@@@Z 000000018005015c     ConEmuPlugin.obj
 0004:00000168       $pdata$?OpenPlugin@@YAPEAXH_J@Z 0000000180050168     ConEmuPlugin.obj
 0004:00000174       $pdata$?OpenW@@YAPEAXPEBX@Z 0000000180050174     ConEmuPlugin.obj
 0004:00000180       $pdata$?ExitFAR@@YAXXZ     0000000180050180     ConEmuPlugin.obj
 0004:0000018c       $pdata$?ExitFARW3@@YAXPEAX@Z 000000018005018c     ConEmuPlugin.obj
 0004:00000198       $pdata$?SetupExportsFar3@@YAXXZ 0000000180050198     ConEmuPlugin.obj
 0004:000001a4       $pdata$DllMain             00000001800501a4     ConEmuPlugin.obj
 0004:000001b0       $pdata$?Color2FgIndex@Far3Color@@SAXKAEAGPEBK@Z 00000001800501b0     ConEmuPlugin1900.obj
 0004:000001bc       $pdata$?Color2BgIndex@Far3Color@@SAXKHAEAGPEBK@Z 00000001800501bc     ConEmuPlugin1900.obj
 0004:000001c8       $pdata$?FarColor_3_2@@YAEAEBUFarColor@@_N@Z 00000001800501c8     ConEmuPlugin1900.obj
 0004:000001d4       $pdata$??0CPluginW1900@@QEAA@XZ 00000001800501d4     ConEmuPlugin1900.obj
 0004:000001e0       $pdata$?CheckPanelExist@CPluginW1900@@UEAA_NXZ 00000001800501e0     ConEmuPlugin1900.obj
 0004:000001ec       $pdata$?ExecuteSynchroApi@CPluginW1900@@UEAA_NXZ 00000001800501ec     ConEmuPlugin1900.obj
 0004:000001f8       $pdata$?ExitFar@CPluginW1900@@UEAAXXZ 00000001800501f8     ConEmuPlugin1900.obj
 0004:00000204       $pdata$?GetActiveWindowType@CPluginW1900@@UEAAHXZ 0000000180050204     ConEmuPlugin1900.obj
 0004:00000210       $pdata$?GetEditorModifiedState@CPluginW1900@@UEAAKXZ 0000000180050210     ConEmuPlugin1900.obj
 0004:0000021c       $pdata$?GetFarRect@CPluginW1900@@UEAA_NAEAU_SMALL_RECT@@@Z 000000018005021c     ConEmuPlugin1900.obj
 0004:00000228       $pdata$?GetMsg@CPluginW1900@@UEAAPEB_WHPEA_W_K@Z 0000000180050228     ConEmuPlugin1900.obj
 0004:00000234       $pdata$?GetPanelInfo@CPluginW1900@@UEAA_NKPEAUCEPanelInfo@@@Z 0000000180050234     ConEmuPlugin1900.obj
 0004:00000240       $pdata$?GetPanelItemInfo@CPluginW1900@@UEAA_NAEBUCEPanelInfo@@_N_JAEAU_WIN32_FIND_DATAW@@PEAPEA_W@Z 0000000180050240     ConEmuPlugin1900.obj
 0004:0000024c       $pdata$?GetPanelDir@CPluginW1900@@UEAAPEA_WKPEA_WH@Z 000000018005024c     ConEmuPlugin1900.obj
 0004:00000258       $pdata$?GetPluginInfoPtr@CPluginW1900@@UEAAXPEAX@Z 0000000180050258     ConEmuPlugin1900.obj
 0004:00000264       $pdata$?InputBox@CPluginW1900@@UEAA_NPEB_W000AEAPEA_W@Z 0000000180050264     ConEmuPlugin1900.obj
 0004:00000270       $pdata$?IsMacroActive@CPluginW1900@@UEAA_NXZ 0000000180050270     ConEmuPlugin1900.obj
 0004:0000027c       $pdata$?LoadFarColors@CPluginW1900@@UEAAXAEAY0BAA@E@Z 000000018005027c     ConEmuPlugin1900.obj
 0004:00000288       $pdata$?LoadFarSettings@CPluginW1900@@UEAAXPEAUCEFarInterfaceSettings@@PEAUCEFarPanelSettings@@@Z 0000000180050288     ConEmuPlugin1900.obj
 0004:00000294       $pdata$?Open@CPluginW1900@@UEAAPEAXPEBX@Z 0000000180050294     ConEmuPlugin1900.obj
 0004:000002a0       $pdata$?OpenEditor@CPluginW1900@@UEAA_NPEB_W_N11HH@Z 00000001800502a0     ConEmuPlugin1900.obj
 0004:000002ac       $pdata$?PanelControlApi@CPluginW1900@@UEAA_JPEAXH_J0@Z 00000001800502ac     ConEmuPlugin1900.obj
 0004:000002b8       $pdata$?PostMacroApi@CPluginW1900@@UEAAXPEB_WPEAU_INPUT_RECORD@@_N@Z 00000001800502b8     ConEmuPlugin1900.obj
 0004:000002c4       $pdata$?ProcessEditorInputPtr@CPluginW1900@@UEAAHPEBX@Z 00000001800502c4     ConEmuPlugin1900.obj
 0004:000002d0       $pdata$?ProcessSynchroEventPtr@CPluginW2800@@UEAAHPEAX@Z 00000001800502d0     ConEmuPlugin2800.obj
 0004:000002d0       $pdata$?ProcessSynchroEventPtr@CPluginW1900@@UEAAHPEAX@Z 00000001800502d0     ConEmuPlugin1900.obj
 0004:000002dc       $pdata$?RedrawAll@CPluginW1900@@UEAAXXZ 00000001800502dc     ConEmuPlugin1900.obj
 0004:000002e8       $pdata$?SetStartupInfoPtr@CPluginW1900@@UEAAXPEAX@Z 00000001800502e8     ConEmuPlugin1900.obj
 0004:000002f4       $pdata$?SetWindow@CPluginW1900@@UEAAXH@Z 00000001800502f4     ConEmuPlugin1900.obj
 0004:00000300       $pdata$?ShowMessage@CPluginW1900@@UEAAHPEB_WH_N@Z 0000000180050300     ConEmuPlugin1900.obj
 0004:0000030c       $pdata$?ShowPluginMenu@CPluginW1900@@UEAAHPEAUConEmuPluginMenuItem@@HH@Z 000000018005030c     ConEmuPlugin1900.obj
 0004:00000318       $pdata$?ShowUserScreen@CPluginW1900@@UEAAX_N@Z 0000000180050318     ConEmuPlugin1900.obj
 0004:00000324       $pdata$?UpdateConEmuTabsApi@CPluginW1900@@UEAA_NH@Z 0000000180050324     ConEmuPlugin1900.obj
 0004:00000330       $pdata$??_GCPluginW1900@@UEAAPEAXI@Z 0000000180050330     ConEmuPlugin1900.obj
 0004:0000033c       $pdata$?GetFarSetting@@YAHPEAX_KPEB_W@Z 000000018005033c     ConEmuPlugin1900.obj
 0004:00000348       $pdata$?CallGuiMacroDlg@@YA_JPEAXHH0@Z 0000000180050348     ConEmuPlugin1900.obj
 0004:00000354       $pdata$?CallGuiMacroProc@@YAXXZ 0000000180050354     ConEmuPlugin1900.obj
 0004:00000360       $pdata$??0exception@std@@QEAA@AEBV01@@Z 0000000180050360     ConEmuPlugin2800.obj
 0004:0000036c       $pdata$??_Gexception@std@@UEAAPEAXI@Z 000000018005036c     ConEmuPlugin2800.obj
 0004:0000036c       $pdata$??_Glength_error@std@@UEAAPEAXI@Z 000000018005036c     libcpmt:xthrow.obj
 0004:0000036c       $pdata$??_Glogic_error@std@@UEAAPEAXI@Z 000000018005036c     libcpmt:xthrow.obj
 0004:0000036c       $pdata$??_Gbad_alloc@std@@UEAAPEAXI@Z 000000018005036c     ConEmuPlugin2800.obj
 0004:0000036c       $pdata$??_Gbad_exception@std@@UEAAPEAXI@Z 000000018005036c     libvcruntime:frame.obj
 0004:00000378       $pdata$??0bad_alloc@std@@QEAA@AEBV01@@Z 0000000180050378     ConEmuPlugin2800.obj
 0004:00000384       $pdata$GetGlobalInfoW      0000000180050384     ConEmuPlugin2800.obj
 0004:00000390       $pdata$??0CPluginW2800@@QEAA@XZ 0000000180050390     ConEmuPlugin2800.obj
 0004:0000039c       $pdata$?CheckPanelExist@CPluginW2800@@UEAA_NXZ 000000018005039c     ConEmuPlugin2800.obj
 0004:000003a8       $pdata$?ExecuteSynchroApi@CPluginW2800@@UEAA_NXZ 00000001800503a8     ConEmuPlugin2800.obj
 0004:000003b4       $pdata$?ExitFar@CPluginW2800@@UEAAXXZ 00000001800503b4     ConEmuPlugin2800.obj
 0004:000003c0       $pdata$?GetActiveWindowType@CPluginW2800@@UEAAHXZ 00000001800503c0     ConEmuPlugin2800.obj
 0004:000003cc       $pdata$?GetEditorModifiedState@CPluginW2800@@UEAAKXZ 00000001800503cc     ConEmuPlugin2800.obj
 0004:000003d8       $pdata$?GetFarRect@CPluginW2800@@UEAA_NAEAU_SMALL_RECT@@@Z 00000001800503d8     ConEmuPlugin2800.obj
 0004:000003e4       $pdata$?GetMsg@CPluginW2800@@UEAAPEB_WHPEA_W_K@Z 00000001800503e4     ConEmuPlugin2800.obj
 0004:000003f0       $pdata$?GetPanelDir@CPluginW2800@@UEAAPEA_WKPEA_WH@Z 00000001800503f0     ConEmuPlugin2800.obj
 0004:000003fc       $pdata$?GetPanelInfo@CPluginW2800@@UEAA_NKPEAUCEPanelInfo@@@Z 00000001800503fc     ConEmuPlugin2800.obj
 0004:00000408       $pdata$?GetPanelItemInfo@CPluginW2800@@UEAA_NAEBUCEPanelInfo@@_N_JAEAU_WIN32_FIND_DATAW@@PEAPEA_W@Z 0000000180050408     ConEmuPlugin2800.obj
 0004:00000414       $pdata$?GetPluginInfoPtr@CPluginW2800@@UEAAXPEAX@Z 0000000180050414     ConEmuPlugin2800.obj
 0004:00000420       $pdata$?InputBox@CPluginW2800@@UEAA_NPEB_W000AEAPEA_W@Z 0000000180050420     ConEmuPlugin2800.obj
 0004:0000042c       $pdata$?IsMacroActive@CPluginW2800@@UEAA_NXZ 000000018005042c     ConEmuPlugin2800.obj
 0004:00000438       $pdata$?LoadFarColors@CPluginW2800@@UEAAXAEAY0BAA@E@Z 0000000180050438     ConEmuPlugin2800.obj
 0004:00000444       $pdata$?LoadFarSettings@CPluginW2800@@UEAAXPEAUCEFarInterfaceSettings@@PEAUCEFarPanelSettings@@@Z 0000000180050444     ConEmuPlugin2800.obj
 0004:00000450       $pdata$?Open@CPluginW2800@@UEAAPEAXPEBX@Z 0000000180050450     ConEmuPlugin2800.obj
 0004:0000045c       $pdata$?OpenEditor@CPluginW2800@@UEAA_NPEB_W_N11HH@Z 000000018005045c     ConEmuPlugin2800.obj
 0004:00000468       $pdata$?PanelControlApi@CPluginW2800@@UEAA_JPEAXH_J0@Z 0000000180050468     ConEmuPlugin2800.obj
 0004:00000474       $pdata$?PostMacroApi@CPluginW2800@@UEAAXPEB_WPEAU_INPUT_RECORD@@_N@Z 0000000180050474     ConEmuPlugin2800.obj
 0004:00000480       $pdata$?ProcessEditorInputPtr@CPluginW2800@@UEAAHPEBX@Z 0000000180050480     ConEmuPlugin2800.obj
 0004:0000048c       $pdata$?RedrawAll@CPluginW2800@@UEAAXXZ 000000018005048c     ConEmuPlugin2800.obj
 0004:00000498       $pdata$?SetStartupInfoPtr@CPluginW2800@@UEAAXPEAX@Z 0000000180050498     ConEmuPlugin2800.obj
 0004:000004a4       $pdata$?SetWindow@CPluginW2800@@UEAAXH@Z 00000001800504a4     ConEmuPlugin2800.obj
 0004:000004b0       $pdata$?ShowMessage@CPluginW2800@@UEAAHPEB_WH_N@Z 00000001800504b0     ConEmuPlugin2800.obj
 0004:000004bc       $pdata$?ShowPluginMenu@CPluginW2800@@UEAAHPEAUConEmuPluginMenuItem@@HH@Z 00000001800504bc     ConEmuPlugin2800.obj
 0004:000004c8       $pdata$?ShowUserScreen@CPluginW2800@@UEAAX_N@Z 00000001800504c8     ConEmuPlugin2800.obj
 0004:000004d4       $pdata$?UpdateConEmuTabsApi@CPluginW2800@@UEAA_NH@Z 00000001800504d4     ConEmuPlugin2800.obj
 0004:000004e0       $pdata$?dtor$0@?0??UpdateConEmuTabsApi@CPluginW2800@@UEAA_NH@Z@4HA 00000001800504e0     ConEmuPlugin2800.obj
 0004:000004ec       $pdata$??_GCPluginW2800@@UEAAPEAXI@Z 00000001800504ec     ConEmuPlugin2800.obj
 0004:000004f8       $pdata$?deallocate@?$MArrayAllocator@UWindowInfo@@@@QEAAXPEAUWindowInfo@@_K@Z 00000001800504f8     ConEmuPlugin2800.obj
 0004:00000504       $pdata$?insert@?$vector@UWindowInfo@@V?$MArrayAllocator@UWindowInfo@@@@@std@@QEAA?AV?$_Vector_iterator@V?$_Vector_val@U?$_Simple_types@UWindowInfo@@@std@@@std@@@2@V?$_Vector_const_iterator@V?$_Vector_val@U?$_Simple_types@UWindowInfo@@@std@@@std@@@2@_KAEBUWindowInfo@@@Z 0000000180050504     ConEmuPlugin2800.obj
 0004:00000510       $pdata$?catch$0@?0??insert@?$vector@UWindowInfo@@V?$MArrayAllocator@UWindowInfo@@@@@std@@QEAA?AV?$_Vector_iterator@V?$_Vector_val@U?$_Simple_types@UWindowInfo@@@std@@@std@@@2@V?$_Vector_const_iterator@V?$_Vector_val@U?$_Simple_types@UWindowInfo@@@std@@@std@@@2@_KAEBUWindowInfo@@@Z@4HA 0000000180050510     ConEmuPlugin2800.obj
 0004:0000051c       $pdata$?_Xlength@?$vector@UWindowInfo@@V?$MArrayAllocator@UWindowInfo@@@@@std@@CAXXZ 000000018005051c     ConEmuPlugin2800.obj
 0004:0000051c       $pdata$?_Xlength@?$vector@UtagPROCESSENTRY32W@@V?$MArrayAllocator@UtagPROCESSENTRY32W@@@@@std@@CAXXZ 000000018005051c     common-kernel64:MProcess.obj
 0004:00000528       $pdata$?push_back@?$MArray@UWindowInfo@@@@QEAA_JAEBUWindowInfo@@@Z 0000000180050528     ConEmuPlugin2800.obj
 0004:00000534       $pdata$?insert@?$MArray@UWindowInfo@@@@QEAA_J_JAEBUWindowInfo@@0@Z 0000000180050534     ConEmuPlugin2800.obj
 0004:00000540       $pdata$?erase@?$MArray@UWindowInfo@@@@QEAAX_J0@Z 0000000180050540     ConEmuPlugin2800.obj
 0004:0000054c       $pdata$??1?$MArray@UWindowInfo@@@@QEAA@XZ 000000018005054c     ConEmuPlugin2800.obj
 0004:00000558       $pdata$?WLoadWindows@@YA_JAEAV?$MArray@UWindowInfo@@@@H@Z 0000000180050558     ConEmuPlugin2800.obj
 0004:00000564       $pdata$?GetFarSetting@@YAHPEAX_KPEB_W@Z 0000000180050564     ConEmuPlugin2800.obj
 0004:00000570       $pdata$?CallGuiMacroDlg@@YA_JPEAX_J10@Z 0000000180050570     ConEmuPlugin2800.obj
 0004:0000057c       $pdata$?CallGuiMacroProc@@YAXXZ 000000018005057c     ConEmuPlugin2800.obj
 0004:00000588       $pdata$??$_Emplace_reallocate@AEBUWindowInfo@@@?$vector@UWindowInfo@@V?$MArrayAllocator@UWindowInfo@@@@@std@@QEAAPEAUWindowInfo@@QEAU2@AEBU2@@Z 0000000180050588     ConEmuPlugin2800.obj
 0004:00000594       $pdata$?catch$0@?0???$_Emplace_reallocate@AEBUWindowInfo@@@?$vector@UWindowInfo@@V?$MArrayAllocator@UWindowInfo@@@@@std@@QEAAPEAUWindowInfo@@QEAU2@AEBU2@@Z@4HA 0000000180050594     ConEmuPlugin2800.obj
 0004:000005a0       $pdata$??0CPluginW995@@QEAA@XZ 00000001800505a0     ConEmuPlugin995.obj
 0004:000005ac       $pdata$?CheckPanelExist@CPluginW995@@UEAA_NXZ 00000001800505ac     ConEmuPlugin995.obj
 0004:000005b8       $pdata$?ExecuteSynchroApi@CPluginW995@@UEAA_NXZ 00000001800505b8     ConEmuPlugin995.obj
 0004:000005c4       $pdata$?ExitFar@CPluginW995@@UEAAXXZ 00000001800505c4     ConEmuPlugin995.obj
 0004:000005d0       $pdata$?GetActiveWindowType@CPluginW995@@UEAAHXZ 00000001800505d0     ConEmuPlugin995.obj
 0004:000005dc       $pdata$?GetEditorModifiedState@CPluginW995@@UEAAKXZ 00000001800505dc     ConEmuPlugin995.obj
 0004:000005e8       $pdata$?GetFarRect@CPluginW995@@UEAA_NAEAU_SMALL_RECT@@@Z 00000001800505e8     ConEmuPlugin995.obj
 0004:000005f4       $pdata$?GetMacroArea@CPluginW995@@UEAAHXZ 00000001800505f4     ConEmuPlugin995.obj
 0004:00000600       $pdata$?GetMsg@CPluginW995@@UEAAPEB_WHPEA_W_K@Z 0000000180050600     ConEmuPlugin995.obj
 0004:0000060c       $pdata$?GetPanelInfo@CPluginW995@@UEAA_NKPEAUCEPanelInfo@@@Z 000000018005060c     ConEmuPlugin995.obj
 0004:00000618       $pdata$?GetPanelItemInfo@CPluginW995@@UEAA_NAEBUCEPanelInfo@@_N_JAEAU_WIN32_FIND_DATAW@@PEAPEA_W@Z 0000000180050618     ConEmuPlugin995.obj
 0004:00000624       $pdata$?GetPanelDir@CPluginW995@@UEAAPEA_WKPEA_WH@Z 0000000180050624     ConEmuPlugin995.obj
 0004:00000630       $pdata$?GetPluginInfoPtr@CPluginW995@@UEAAXPEAX@Z 0000000180050630     ConEmuPlugin995.obj
 0004:0000063c       $pdata$?InputBox@CPluginW995@@UEAA_NPEB_W000AEAPEA_W@Z 000000018005063c     ConEmuPlugin995.obj
 0004:00000648       $pdata$?IsMacroActive@CPluginW995@@UEAA_NXZ 0000000180050648     ConEmuPlugin995.obj
 0004:00000654       $pdata$?LoadFarColors@CPluginW995@@UEAAXAEAY0BAA@E@Z 0000000180050654     ConEmuPlugin995.obj
 0004:00000660       $pdata$?LoadFarSettings@CPluginW995@@UEAAXPEAUCEFarInterfaceSettings@@PEAUCEFarPanelSettings@@@Z 0000000180050660     ConEmuPlugin995.obj
 0004:0000066c       $pdata$?OpenEditor@CPluginW995@@UEAA_NPEB_W_N11HH@Z 000000018005066c     ConEmuPlugin995.obj
 0004:00000678       $pdata$?PanelControlApi@CPluginW995@@UEAA_JPEAXH_J0@Z 0000000180050678     ConEmuPlugin995.obj
 0004:00000684       $pdata$?PostMacroApi@CPluginW995@@UEAAXPEB_WPEAU_INPUT_RECORD@@_N@Z 0000000180050684     ConEmuPlugin995.obj
 0004:00000690       $pdata$?ProcessEditorInputPtr@CPluginW995@@UEAAHPEBX@Z 0000000180050690     ConEmuPlugin995.obj
 0004:0000069c       $pdata$?RedrawAll@CPluginW995@@UEAAXXZ 000000018005069c     ConEmuPlugin995.obj
 0004:000006a8       $pdata$?SetStartupInfoPtr@CPluginW995@@UEAAXPEAX@Z 00000001800506a8     ConEmuPlugin995.obj
 0004:000006b4       $pdata$?SetWindow@CPluginW995@@UEAAXH@Z 00000001800506b4     ConEmuPlugin995.obj
 0004:000006c0       $pdata$?ShowMessage@CPluginW995@@UEAAHPEB_WH_N@Z 00000001800506c0     ConEmuPlugin995.obj
 0004:000006cc       $pdata$?ShowPluginMenu@CPluginW995@@UEAAHPEAUConEmuPluginMenuItem@@HH@Z 00000001800506cc     ConEmuPlugin995.obj
 0004:000006d8       $pdata$?ShowUserScreen@CPluginW995@@UEAAX_N@Z 00000001800506d8     ConEmuPlugin995.obj
 0004:000006e4       $pdata$?StopWaitEndSynchro@CPluginW995@@UEAAXXZ 00000001800506e4     ConEmuPlugin995.obj
 0004:000006f0       $pdata$?UpdateConEmuTabsApi@CPluginW995@@UEAA_NH@Z 00000001800506f0     ConEmuPlugin995.obj
 0004:000006fc       $pdata$?WaitEndSynchro@CPluginW995@@UEAAXXZ 00000001800506fc     ConEmuPlugin995.obj
 0004:00000708       $pdata$??_GCPluginW995@@UEAAPEAXI@Z 0000000180050708     ConEmuPlugin995.obj
 0004:00000714       $pdata$?CallGuiMacroDlg@@YA_JPEAXHH_J@Z 0000000180050714     ConEmuPlugin995.obj
 0004:00000720       $pdata$?CallGuiMacroProc@@YAXXZ 0000000180050720     ConEmuPlugin995.obj
 0004:0000072c       $pdata$??0CPluginAnsi@@QEAA@XZ 000000018005072c     ConEmuPluginA.obj
 0004:00000738       $pdata$?CheckPanelExist@CPluginAnsi@@UEAA_NXZ 0000000180050738     ConEmuPluginA.obj
 0004:00000744       $pdata$?ExitFar@CPluginAnsi@@UEAAXXZ 0000000180050744     ConEmuPluginA.obj
 0004:00000750       $pdata$?GetActiveWindowType@CPluginAnsi@@UEAAHXZ 0000000180050750     ConEmuPluginA.obj
 0004:0000075c       $pdata$?GetEditorModifiedState@CPluginAnsi@@UEAAKXZ 000000018005075c     ConEmuPluginA.obj
 0004:00000768       $pdata$?GetMsg@CPluginAnsi@@UEAAPEB_WHPEA_W_K@Z 0000000180050768     ConEmuPluginA.obj
 0004:00000774       $pdata$?GetPanelDir@CPluginAnsi@@UEAAPEA_WKPEA_WH@Z 0000000180050774     ConEmuPluginA.obj
 0004:00000780       $pdata$?GetPanelInfo@CPluginAnsi@@UEAA_NKPEAUCEPanelInfo@@@Z 0000000180050780     ConEmuPluginA.obj
 0004:0000078c       $pdata$?GetPanelItemInfo@CPluginAnsi@@UEAA_NAEBUCEPanelInfo@@_N_JAEAU_WIN32_FIND_DATAW@@PEAPEA_W@Z 000000018005078c     ConEmuPluginA.obj
 0004:00000798       $pdata$?GetPluginInfoPtr@CPluginAnsi@@UEAAXPEAX@Z 0000000180050798     ConEmuPluginA.obj
 0004:000007a4       $pdata$?InputBox@CPluginAnsi@@UEAA_NPEB_W000AEAPEA_W@Z 00000001800507a4     ConEmuPluginA.obj
 0004:000007b0       $pdata$?IsMacroActive@CPluginAnsi@@UEAA_NXZ 00000001800507b0     ConEmuPluginA.obj
 0004:000007bc       $pdata$?LoadFarColors@CPluginAnsi@@UEAAXAEAY0BAA@E@Z 00000001800507bc     ConEmuPluginA.obj
 0004:000007c8       $pdata$?LoadFarSettings@CPluginAnsi@@UEAAXPEAUCEFarInterfaceSettings@@PEAUCEFarPanelSettings@@@Z 00000001800507c8     ConEmuPluginA.obj
 0004:000007d4       $pdata$?OpenEditor@CPluginAnsi@@UEAA_NPEB_W_N11HH@Z 00000001800507d4     ConEmuPluginA.obj
 0004:000007e0       $pdata$?PanelControlApi@CPluginAnsi@@UEAA_JPEAXH_J0@Z 00000001800507e0     ConEmuPluginA.obj
 0004:000007ec       $pdata$?PostMacroApi@CPluginAnsi@@UEAAXPEB_WPEAU_INPUT_RECORD@@_N@Z 00000001800507ec     ConEmuPluginA.obj
 0004:000007f8       $pdata$?RedrawAll@CPluginAnsi@@UEAAXXZ 00000001800507f8     ConEmuPluginA.obj
 0004:00000804       $pdata$?SetStartupInfoPtr@CPluginAnsi@@UEAAXPEAX@Z 0000000180050804     ConEmuPluginA.obj
 0004:00000810       $pdata$?SetWindow@CPluginAnsi@@UEAAXH@Z 0000000180050810     ConEmuPluginA.obj
 0004:0000081c       $pdata$?ShowMessage@CPluginAnsi@@UEAAHPEB_WH_N@Z 000000018005081c     ConEmuPluginA.obj
 0004:00000828       $pdata$?ShowPluginMenu@CPluginAnsi@@UEAAHPEAUConEmuPluginMenuItem@@HH@Z 0000000180050828     ConEmuPluginA.obj
 0004:00000834       $pdata$?ShowUserScreen@CPluginAnsi@@UEAAX_N@Z 0000000180050834     ConEmuPluginA.obj
 0004:00000840       $pdata$?UpdateConEmuTabsApi@CPluginAnsi@@UEAA_NH@Z 0000000180050840     ConEmuPluginA.obj
 0004:0000084c       $pdata$??_GCPluginAnsi@@UEAAPEAXI@Z 000000018005084c     ConEmuPluginA.obj
 0004:00000858       $pdata$?CallGuiMacroDlg@@YA_JPEAXHH_J@Z 0000000180050858     ConEmuPluginA.obj
 0004:00000864       $pdata$?CallGuiMacroProc@@YAXXZ 0000000180050864     ConEmuPluginA.obj
 0004:00000870       $pdata$?StringCchCatW@@YAJPEA_W_KPEB_W@Z 0000000180050870     ConEmuPluginBase.obj
 0004:0000087c       $pdata$?InitRootRegKey@CPluginBase@@IEAAXXZ 000000018005087c     ConEmuPluginBase.obj
 0004:00000888       $pdata$?SetRootRegKey@CPluginBase@@IEAAXPEA_W@Z 0000000180050888     ConEmuPluginBase.obj
 0004:00000894       $pdata$?ReloadFarInfoApi@CPluginBase@@IEAA_NXZ 0000000180050894     ConEmuPluginBase.obj
 0004:000008a0       $pdata$?EmergencyShow@CPluginBase@@KAXXZ 00000001800508a0     ConEmuPluginBase.obj
 0004:000008ac       $pdata$?DllMain_ProcessAttach@CPluginBase@@KAXPEAUHINSTANCE__@@@Z 00000001800508ac     ConEmuPluginBase.obj
 0004:000008b8       $pdata$?dtor$1@?0??DllMain_ProcessAttach@CPluginBase@@KAXPEAUHINSTANCE__@@@Z@4HA 00000001800508b8     ConEmuPluginBase.obj
 0004:000008b8       $pdata$?dtor$0@?0??DllMain_ProcessAttach@CPluginBase@@KAXPEAUHINSTANCE__@@@Z@4HA 00000001800508b8     ConEmuPluginBase.obj
 0004:000008c4       $pdata$?DllMain_ProcessDetach@CPluginBase@@KAXXZ 00000001800508c4     ConEmuPluginBase.obj
 0004:000008d0       $pdata$?DllCheckUnique@CPluginBase@@KA_N_N@Z 00000001800508d0     ConEmuPluginBase.obj
 0004:000008dc       $pdata$?ShowProtocolWarning@CPluginBase@@KAXXZ 00000001800508dc     ConEmuPluginBase.obj
 0004:000008e8       $pdata$?ShowMessageBox@CPluginBase@@KAHPEB_WI@Z 00000001800508e8     ConEmuPluginBase.obj
 0004:000008f4       $pdata$?ShowMessageGui@CPluginBase@@QEAAHHH@Z 00000001800508f4     ConEmuPluginBase.obj
 0004:00000900       $pdata$?isMacroActive@CPluginBase@@QEAA_NAEAH@Z 0000000180050900     ConEmuPluginBase.obj
 0004:0000090c       $pdata$?UpdatePanelDirs@CPluginBase@@QEAAXXZ 000000018005090c     ConEmuPluginBase.obj
 0004:00000918       $pdata$?StorePanelDirs@CPluginBase@@QEAA_NPEB_W0@Z 0000000180050918     ConEmuPluginBase.obj
 0004:00000924       $pdata$?RunExternalProgram@CPluginBase@@QEAA_NPEA_W@Z 0000000180050924     ConEmuPluginBase.obj
 0004:00000930       $pdata$?ProcessCommandLine@CPluginBase@@QEAA_NPEA_W@Z 0000000180050930     ConEmuPluginBase.obj
 0004:0000093c       $pdata$?ShowPluginMenu@CPluginBase@@QEAAXW4PluginCallCommands@@@Z 000000018005093c     ConEmuPluginBase.obj
 0004:00000948       $pdata$?ProcessSynchroEvent@CPluginBase@@QEAAHHPEAX@Z 0000000180050948     ConEmuPluginBase.obj
 0004:00000954       $pdata$?ProcessEditorViewerEvent@CPluginBase@@QEAAHHH@Z 0000000180050954     ConEmuPluginBase.obj
 0004:00000960       $pdata$?ShowConsoleInfo@CPluginBase@@QEAAXXZ 0000000180050960     ConEmuPluginBase.obj
 0004:0000096c       $pdata$?StartDebugger@CPluginBase@@QEAA_NXZ 000000018005096c     ConEmuPluginBase.obj
